 openh264

 Timestamp is 65301193 (Thu Oct 19 01:10:43 2023)

 Preferred load address is 0000000180000000

 Start         Length     Name                   Class
 0001:00000000 0001d260H .text                   CODE
 0001:0001d260 0009fe90H .text$mn                CODE
 0001:000bd0f0 00000040H .text$mn$00             CODE
 0001:000bd130 00000910H .text$x                 CODE
 0002:00000000 00000b00H .rodata                 CODE
 0003:00000000 000002c8H .idata$5                DATA
 0003:000002c8 00000038H .00cfg                  DATA
 0003:00000300 00000008H .CRT$XCA                DATA
 0003:00000308 00000008H .CRT$XCZ                DATA
 0003:00000310 00000008H .CRT$XIA                DATA
 0003:00000318 00000028H .CRT$XIC                DATA
 0003:00000340 00000008H .CRT$XIZ                DATA
 0003:00000348 00000008H .CRT$XLA                DATA
 0003:00000350 00000008H .CRT$XLZ                DATA
 0003:00000358 00000008H .CRT$XPA                DATA
 0003:00000360 00000010H .CRT$XPX                DATA
 0003:00000370 00000008H .CRT$XPXA               DATA
 0003:00000378 00000008H .CRT$XPZ                DATA
 0003:00000380 00000008H .CRT$XTA                DATA
 0003:00000388 00000008H .CRT$XTZ                DATA
 0003:00000390 00000000H .gehcont$y              DATA
 0003:00000390 00000000H .gfids$y                DATA
 0003:00000390 0001ba70H .rdata                  DATA
 0003:0001be00 00000000H .rdata$CastGuardVftablesA DATA
 0003:0001be00 00000000H .rdata$CastGuardVftablesC DATA
 0003:0001be00 00000028H .rdata$T                DATA
 0003:0001be28 00001be4H .rdata$r                DATA
 0003:0001da0c 0000011cH .rdata$voltmd           DATA
 0003:0001db28 000003d0H .rdata$zzzdbg           DATA
 0003:0001def8 00000008H .rtc$IAA                DATA
 0003:0001df00 00000008H .rtc$IZZ                DATA
 0003:0001df08 00000008H .rtc$TAA                DATA
 0003:0001df10 00000008H .rtc$TZZ                DATA
 0003:0001df18 00000004H .tls                    DATA
 0003:0001df1c 00000004H .tls$                   DATA
 0003:0001df20 00000008H .tls$ZZZ                DATA
 0003:0001df28 000070f8H .xdata                  DATA
 0003:00025020 00000150H .xdata$x                DATA
 0003:00025170 000000ecH .edata                  DATA
 0003:0002525c 00000014H .idata$2                DATA
 0003:00025270 00000018H .idata$3                DATA
 0003:00025288 000002c8H .idata$4                DATA
 0003:00025550 00000682H .idata$6                DATA
 0004:00000000 00000be0H .data                   DATA
 0004:00000be0 000000b0H .data$r                 DATA
 0004:00000c90 00000b10H .data$rs                DATA
 0004:000017a0 000012e0H .bss                    DATA
 0005:00000000 000064d4H .pdata                  DATA
 0006:00000000 0000015cH _RDATA                  DATA
 0007:00000000 00000060H .rsrc$01                DATA
 0007:00000060 000003a0H .rsrc$02                DATA

  Address         Publics by Value              Rva+Base               Lib:Object

 0000:00000000       __AbsoluteZero             0000000000000000     <absolute>
 0000:00000000       ___safe_se_handler_count   0000000000000000     <absolute>
 0000:00000000       ___safe_se_handler_table   0000000000000000     <absolute>
 0000:00000000       __arm64x_extra_rfe_table   0000000000000000     <absolute>
 0000:00000000       __arm64x_extra_rfe_table_size 0000000000000000     <absolute>
 0000:00000000       __arm64x_native_entrypoint 0000000000000000     <absolute>
 0000:00000000       __arm64x_redirection_metadata 0000000000000000     <absolute>
 0000:00000000       __arm64x_redirection_metadata_count 0000000000000000     <absolute>
 0000:00000000       __dynamic_value_reloc_table 0000000000000000     <absolute>
 0000:00000000       __enclave_config           0000000000000000     <absolute>
 0000:00000000       __guard_check_icall_a64n_fptr 0000000000000000     <absolute>
 0000:00000000       __guard_eh_cont_count      0000000000000000     <absolute>
 0000:00000000       __guard_eh_cont_table      0000000000000000     <absolute>
 0000:00000000       __guard_fids_count         0000000000000000     <absolute>
 0000:00000000       __guard_fids_table         0000000000000000     <absolute>
 0000:00000000       __guard_iat_count          0000000000000000     <absolute>
 0000:00000000       __guard_iat_table          0000000000000000     <absolute>
 0000:00000000       __guard_longjmp_count      0000000000000000     <absolute>
 0000:00000000       __guard_longjmp_table      0000000000000000     <absolute>
 0000:00000000       __hybrid_auxiliary_delayload_iat 0000000000000000     <absolute>
 0000:00000000       __hybrid_auxiliary_delayload_iat_copy 0000000000000000     <absolute>
 0000:00000000       __hybrid_auxiliary_iat     0000000000000000     <absolute>
 0000:00000000       __hybrid_auxiliary_iat_copy 0000000000000000     <absolute>
 0000:00000000       __hybrid_code_map          0000000000000000     <absolute>
 0000:00000000       __hybrid_code_map_count    0000000000000000     <absolute>
 0000:00000000       __hybrid_image_info_bitfield 0000000000000000     <absolute>
 0000:00000000       __x64_code_ranges_to_entry_points 0000000000000000     <absolute>
 0000:00000000       __x64_code_ranges_to_entry_points_count 0000000000000000     <absolute>
 0000:00000100       __guard_flags              0000000000000100     <absolute>
 0000:00000000       __ImageBase                0000000180000000     <linker-defined>
 0001:00000000       CavlcParamCal_sse42        0000000180001000     coeff.obj
 0001:000000e0       WelsHadamardT4Dc_sse2      00000001800010e0     dct.obj
 0001:000002e0       WelsI4x4LumaPredH_sse2     00000001800012e0     intra_pred.obj
 0001:00000350       WelsI16x16LumaPredPlane_sse2 0000000180001350     intra_pred.obj
 0001:00000570       WelsIChromaPredPlane_sse2  0000000180001570     intra_pred.obj
 0001:00000720       WelsI4x4LumaPredDDR_mmx    0000000180001720     intra_pred.obj
 0001:000007b0       WelsI4x4LumaPredDc_sse2    00000001800017b0     intra_pred.obj
 0001:00000820       WelsIChromaPredH_mmx       0000000180001820     intra_pred.obj
 0001:00000900       WelsI4x4LumaPredV_sse2     0000000180001900     intra_pred.obj
 0001:00000920       WelsIChromaPredV_sse2      0000000180001920     intra_pred.obj
 0001:00000950       WelsI4x4LumaPredHD_mmx     0000000180001950     intra_pred.obj
 0001:000009f0       WelsI4x4LumaPredHU_mmx     00000001800019f0     intra_pred.obj
 0001:00000a80       WelsI4x4LumaPredVR_mmx     0000000180001a80     intra_pred.obj
 0001:00000b20       WelsI4x4LumaPredDDL_mmx    0000000180001b20     intra_pred.obj
 0001:00000b80       WelsI4x4LumaPredVL_mmx     0000000180001b80     intra_pred.obj
 0001:00000bd0       WelsIChromaPredDc_sse2     0000000180001bd0     intra_pred.obj
 0001:00000cd0       WelsI16x16LumaPredDc_sse2  0000000180001cd0     intra_pred.obj
 0001:00000e30       TransposeMatrixBlock16x16_sse2 0000000180001e30     matrix_transpose.obj
 0001:00001190       TransposeMatrixBlocksx16_sse2 0000000180002190     matrix_transpose.obj
 0001:00001580       TransposeMatrixBlock8x8_mmx 0000000180002580     matrix_transpose.obj
 0001:00001670       TransposeMatrixBlocksx8_mmx 0000000180002670     matrix_transpose.obj
 0001:000017c0       WelsPrefetchZero_mmx       00000001800027c0     memzero.obj
 0001:000017d0       WelsSetMemZeroAligned64_sse2 00000001800027d0     memzero.obj
 0001:00001800       WelsSetMemZeroSize64_mmx   0000000180002800     memzero.obj
 0001:00001840       WelsSetMemZeroSize8_mmx    0000000180002840     memzero.obj
 0001:00001860       WelsQuant4x4_sse2          0000000180002860     quant.obj
 0001:000018c0       WelsQuant4x4Dc_sse2        00000001800028c0     quant.obj
 0001:00001940       WelsQuantFour4x4_sse2      0000000180002940     quant.obj
 0001:00001aa0       WelsQuantFour4x4Max_sse2   0000000180002aa0     quant.obj
 0001:00001cb0       WelsHadamardQuant2x2_mmx   0000000180002cb0     quant.obj
 0001:00001d50       WelsHadamardQuant2x2Skip_mmx 0000000180002d50     quant.obj
 0001:00001dd0       WelsDequant4x4_sse2        0000000180002dd0     quant.obj
 0001:00001df0       WelsDequantFour4x4_sse2    0000000180002df0     quant.obj
 0001:00001e70       WelsDequantIHadamard4x4_sse2 0000000180002e70     quant.obj
 0001:00001fb0       WelsQuant4x4_avx2          0000000180002fb0     quant.obj
 0001:00001ff0       WelsQuant4x4Dc_avx2        0000000180002ff0     quant.obj
 0001:00002030       WelsQuantFour4x4_avx2      0000000180003030     quant.obj
 0001:000020d0       WelsQuantFour4x4Max_avx2   00000001800030d0     quant.obj
 0001:000021e0       SumOf8x8BlockOfFrame_sse2  00000001800031e0     sample_sc.obj
 0001:000022f0       SumOf8x8BlockOfFrame_sse4  00000001800032f0     sample_sc.obj
 0001:000025a0       SumOf16x16BlockOfFrame_sse2 00000001800035a0     sample_sc.obj
 0001:00002750       SumOf16x16BlockOfFrame_sse4 0000000180003750     sample_sc.obj
 0001:00002d30       FillQpelLocationByFeatureValue_sse2 0000000180003d30     sample_sc.obj
 0001:00002e50       InitializeHashforFeature_sse2 0000000180003e50     sample_sc.obj
 0001:00002f80       SumOf8x8SingleBlock_sse2   0000000180003f80     sample_sc.obj
 0001:00002fe0       SumOf16x16SingleBlock_sse2 0000000180003fe0     sample_sc.obj
 0001:000030e0       SampleSad16x16Hor8_sse41   00000001800040e0     sample_sc.obj
 0001:000035d0       SampleSad8x8Hor8_sse41     00000001800045d0     sample_sc.obj
 0001:00003750       WelsScan4x4DcAc_sse2       0000000180004750     score.obj
 0001:000037b0       WelsScan4x4DcAc_ssse3      00000001800047b0     score.obj
 0001:000037f0       WelsScan4x4Ac_sse2         00000001800047f0     score.obj
 0001:00003870       WelsCalculateSingleCtr4x4_sse2 0000000180004870     score.obj
 0001:00003900       WelsGetNoneZeroCount_sse2  0000000180004900     score.obj
 0001:00003950       WelsGetNoneZeroCount_sse42 0000000180004950     score.obj
 0001:00003970       WelsBlockZero16x16_sse2    0000000180004970     dct.obj
 0001:00003a40       WelsBlockZero8x8_sse2      0000000180004a40     dct.obj
 0001:00003a90       WelsDecoderI4x4LumaPredH_sse2 0000000180004a90     intra_pred.obj
 0001:00003b00       WelsDecoderI16x16LumaPredPlane_sse2 0000000180004b00     intra_pred.obj
 0001:00003d20       WelsDecoderI16x16LumaPredH_sse2 0000000180004d20     intra_pred.obj
 0001:00003f00       WelsDecoderI16x16LumaPredV_sse2 0000000180004f00     intra_pred.obj
 0001:00003f80       WelsDecoderIChromaPredPlane_sse2 0000000180004f80     intra_pred.obj
 0001:00004130       WelsDecoderI4x4LumaPredDDR_mmx 0000000180005130     intra_pred.obj
 0001:000041d0       WelsDecoderIChromaPredH_mmx 00000001800051d0     intra_pred.obj
 0001:000042c0       WelsDecoderIChromaPredV_mmx 00000001800052c0     intra_pred.obj
 0001:00004300       WelsDecoderI4x4LumaPredHD_mmx 0000000180005300     intra_pred.obj
 0001:000043a0       WelsDecoderI4x4LumaPredHU_mmx 00000001800053a0     intra_pred.obj
 0001:00004440       WelsDecoderI4x4LumaPredVR_mmx 0000000180005440     intra_pred.obj
 0001:000044f0       WelsDecoderI4x4LumaPredDDL_mmx 00000001800054f0     intra_pred.obj
 0001:00004560       WelsDecoderI4x4LumaPredVL_mmx 0000000180005560     intra_pred.obj
 0001:000045c0       WelsDecoderIChromaPredDc_sse2 00000001800055c0     intra_pred.obj
 0001:000046d0       WelsDecoderI16x16LumaPredDc_sse2 00000001800056d0     intra_pred.obj
 0001:00004840       WelsDecoderI16x16LumaPredDcTop_sse2 0000000180005840     intra_pred.obj
 0001:00004910       WelsDecoderI16x16LumaPredDcNA_sse2 0000000180005910     intra_pred.obj
 0001:00004980       WelsDecoderIChromaPredDcLeft_mmx 0000000180005980     intra_pred.obj
 0001:00004a40       WelsDecoderIChromaPredDcTop_sse2 0000000180005a40     intra_pred.obj
 0001:00004af0       WelsDecoderIChromaPredDcNA_mmx 0000000180005af0     intra_pred.obj
 0001:00004b30       BilateralLumaFilter8_sse2  0000000180005b30     denoisefilter.obj
 0001:00004d80       WaverageChromaFilter8_sse2 0000000180005d80     denoisefilter.obj
 0001:00004fa0       DyadicBilinearDownsamplerWidthx32_sse 0000000180005fa0     downsample_bilinear.obj
 0001:000050e0       DyadicBilinearDownsamplerWidthx16_sse 00000001800060e0     downsample_bilinear.obj
 0001:000051b0       DyadicBilinearDownsamplerWidthx8_sse 00000001800061b0     downsample_bilinear.obj
 0001:00005250       DyadicBilinearDownsamplerWidthx32_ssse3 0000000180006250     downsample_bilinear.obj
 0001:00005300       DyadicBilinearDownsamplerWidthx16_ssse3 0000000180006300     downsample_bilinear.obj
 0001:00005390       GeneralBilinearAccurateDownsampler_sse2 0000000180006390     downsample_bilinear.obj
 0001:00005570       GeneralBilinearFastDownsampler_sse2 0000000180006570     downsample_bilinear.obj
 0001:00005730       DyadicBilinearOneThirdDownsampler_ssse3 0000000180006730     downsample_bilinear.obj
 0001:000058d0       DyadicBilinearOneThirdDownsampler_sse4 00000001800068d0     downsample_bilinear.obj
 0001:00005a70       DyadicBilinearQuarterDownsampler_sse 0000000180006a70     downsample_bilinear.obj
 0001:00005bd0       DyadicBilinearQuarterDownsampler_ssse3 0000000180006bd0     downsample_bilinear.obj
 0001:00005cc0       DyadicBilinearQuarterDownsampler_sse4 0000000180006cc0     downsample_bilinear.obj
 0001:00005db0       GeneralBilinearFastDownsampler_ssse3 0000000180006db0     downsample_bilinear.obj
 0001:00006490       GeneralBilinearAccurateDownsampler_sse41 0000000180007490     downsample_bilinear.obj
 0001:00006c30       GeneralBilinearFastDownsampler_avx2 0000000180007c30     downsample_bilinear.obj
 0001:00007650       GeneralBilinearAccurateDownsampler_avx2 0000000180008650     downsample_bilinear.obj
 0001:000081b0       SampleVariance16x16_sse2   00000001800091b0     vaa.obj
 0001:00008330       VAACalcSad_sse2            0000000180009330     vaa.obj
 0001:00008550       VAACalcSadVar_sse2         0000000180009550     vaa.obj
 0001:00008ab0       VAACalcSadSsd_sse2         0000000180009ab0     vaa.obj
 0001:00009330       VAACalcSadBgd_sse2         000000018000a330     vaa.obj
 0001:00009940       VAACalcSadSsdBgd_sse2      000000018000a940     vaa.obj
 0001:0000a600       VAACalcSad_avx2            000000018000b600     vaa.obj
 0001:0000a920       VAACalcSadVar_avx2         000000018000b920     vaa.obj
 0001:0000af00       VAACalcSadSsd_avx2         000000018000bf00     vaa.obj
 0001:0000b860       VAACalcSadBgd_avx2         000000018000c860     vaa.obj
 0001:0000c030       VAACalcSadSsdBgd_avx2      000000018000d030     vaa.obj
 0001:0000ce00       WelsCPUIdVerify            000000018000de00     cpuid.obj
 0001:0000ce10       WelsCPUId                  000000018000de10     cpuid.obj
 0001:0000ce30       WelsCPUSupportAVX          000000018000de30     cpuid.obj
 0001:0000ce60       WelsCPUSupportFMA          000000018000de60     cpuid.obj
 0001:0000ce90       WelsEmms                   000000018000de90     cpuid.obj
 0001:0000cea0       WelsCPUDetectAVX512        000000018000dea0     cpuid.obj
 0001:0000cef0       WelsDctT4_mmx              000000018000def0     dct.obj
 0001:0000d000       IdctResAddPred_mmx         000000018000e000     dct.obj
 0001:0000d010       WelsIDctT4Rec_mmx          000000018000e010     dct.obj
 0001:0000d150       WelsDctFourT4_sse2         000000018000e150     dct.obj
 0001:0000d480       WelsIDctFourT4Rec_sse2     000000018000e480     dct.obj
 0001:0000d870       WelsDctT4_sse2             000000018000e870     dct.obj
 0001:0000d980       IdctResAddPred_sse2        000000018000e980     dct.obj
 0001:0000d990       WelsIDctT4Rec_sse2         000000018000e990     dct.obj
 0001:0000dae0       WelsIDctRecI16x16Dc_sse2   000000018000eae0     dct.obj
 0001:0000ded0       WelsDctFourT4_avx2         000000018000eed0     dct.obj
 0001:0000e0d0       IdctFourResAddPred_avx2    000000018000f0d0     dct.obj
 0001:0000e0e0       WelsIDctFourT4Rec_avx2     000000018000f0e0     dct.obj
 0001:0000e340       WelsDctT4_avx2             000000018000f340     dct.obj
 0001:0000e410       IdctResAddPred_avx2        000000018000f410     dct.obj
 0001:0000e420       WelsIDctT4Rec_avx2         000000018000f420     dct.obj
 0001:0000e520       DeblockLumaLt4V_ssse3      000000018000f520     deblock.obj
 0001:0000e740       DeblockLumaEq4V_ssse3      000000018000f740     deblock.obj
 0001:0000eac0       DeblockChromaLt4V_ssse3    000000018000fac0     deblock.obj
 0001:0000ec10       DeblockChromaEq4V_ssse3    000000018000fc10     deblock.obj
 0001:0000ed40       DeblockChromaLt4H_ssse3    000000018000fd40     deblock.obj
 0001:0000efe0       DeblockChromaEq4H_ssse3    000000018000ffe0     deblock.obj
 0001:0000f260       DeblockLumaTransposeH2V_sse2 0000000180010260     deblock.obj
 0001:0000f450       DeblockLumaTransposeV2H_sse2 0000000180010450     deblock.obj
 0001:0000f640       WelsNonZeroCount_sse2      0000000180010640     deblock.obj
 0001:0000f670       ExpandPictureLuma_sse2     0000000180010670     expand_picture.obj
 0001:00010070       ExpandPictureChromaAlign_sse2 0000000180011070     expand_picture.obj
 0001:00010570       ExpandPictureChromaUnalign_sse2 0000000180011570     expand_picture.obj
 0001:00010a70       WelsI16x16LumaPredH_sse2   0000000180011a70     intra_pred_com.obj
 0001:00010c90       WelsI16x16LumaPredV_sse2   0000000180011c90     intra_pred_com.obj
 0001:00010d20       WelsCopy16x16_sse2         0000000180011d20     mb_copy.obj
 0001:00010e20       WelsCopy16x16NotAligned_sse2 0000000180011e20     mb_copy.obj
 0001:00010f20       WelsCopy16x8NotAligned_sse2 0000000180011f20     mb_copy.obj
 0001:00010fb0       WelsCopy8x16_mmx           0000000180011fb0     mb_copy.obj
 0001:00011080       WelsCopy8x8_mmx            0000000180012080     mb_copy.obj
 0001:00011110       UpdateMbMv_sse2            0000000180012110     mb_copy.obj
 0001:00011130       PixelAvgWidthEq4_mmx       0000000180012130     mb_copy.obj
 0001:00011170       PixelAvgWidthEq8_mmx       0000000180012170     mb_copy.obj
 0001:000111c0       PixelAvgWidthEq16_sse2     00000001800121c0     mb_copy.obj
 0001:00011250       McCopyWidthEq8_mmx         0000000180012250     mb_copy.obj
 0001:000112c0       McCopyWidthEq16_sse2       00000001800122c0     mb_copy.obj
 0001:00011310       McCopyWidthEq16_sse3       0000000180012310     mb_copy.obj
 0001:00011380       McChromaWidthEq4_mmx       0000000180012380     mc_chroma.obj
 0001:00011420       McChromaWidthEq8_sse2      0000000180012420     mc_chroma.obj
 0001:00011510       McChromaWidthEq8_ssse3     0000000180012510     mc_chroma.obj
 0001:00011600       McHorVer20WidthEq4_mmx     0000000180012600     mc_luma.obj
 0001:00011680       McHorVer22Width8HorFirst_sse2 0000000180012680     mc_luma.obj
 0001:00011720       McHorVer20WidthEq8_sse2    0000000180012720     mc_luma.obj
 0001:000117e0       McHorVer20WidthEq16_sse2   00000001800127e0     mc_luma.obj
 0001:00011910       McHorVer02WidthEq8_sse2    0000000180012910     mc_luma.obj
 0001:00011c60       McHorVer02Height9Or17_sse2 0000000180012c60     mc_luma.obj
 0001:00012060       McHorVer02Height5_sse2     0000000180013060     mc_luma.obj
 0001:00012460       McHorVer20Width9Or17_sse2  0000000180013460     mc_luma.obj
 0001:000126c0       McHorVer20Width5_sse2      00000001800136c0     mc_luma.obj
 0001:000127d0       McHorVer22HorFirst_sse2    00000001800137d0     mc_luma.obj
 0001:000129f0       McHorVer22Width8VerLastAlign_sse2 00000001800139f0     mc_luma.obj
 0001:00012db0       McHorVer22Width8VerLastUnAlign_sse2 0000000180013db0     mc_luma.obj
 0001:00013170       McHorVer22Width5HorFirst_sse2 0000000180014170     mc_luma.obj
 0001:00013260       McHorVer22Width4VerLastAlign_sse2 0000000180014260     mc_luma.obj
 0001:00013620       McHorVer22Width4VerLastUnAlign_sse2 0000000180014620     mc_luma.obj
 0001:000139e0       McHorVer02_ssse3           00000001800149e0     mc_luma.obj
 0001:00014000       McHorVer20_ssse3           0000000180015000     mc_luma.obj
 0001:00014220       McHorVer20Width5Or9Or17_ssse3 0000000180015220     mc_luma.obj
 0001:00014550       McHorVer20Width4U8ToS16_ssse3 0000000180015550     mc_luma.obj
 0001:00014630       McHorVer02Width4S16ToU8_ssse3 0000000180015630     mc_luma.obj
 0001:000147e0       McHorVer20Width8U8ToS16_ssse3 00000001800157e0     mc_luma.obj
 0001:000148f0       McHorVer02Width5S16ToU8_ssse3 00000001800158f0     mc_luma.obj
 0001:00014c80       McHorVer20Width9Or17U8ToS16_ssse3 0000000180015c80     mc_luma.obj
 0001:00014ed0       McHorVer02WidthGe8S16ToU8_ssse3 0000000180015ed0     mc_luma.obj
 0001:00015480       McHorVer02_avx2            0000000180016480     mc_luma.obj
 0001:00015d40       McHorVer20_avx2            0000000180016d40     mc_luma.obj
 0001:00015fd0       McHorVer20Width5Or9Or17_avx2 0000000180016fd0     mc_luma.obj
 0001:000163a0       McHorVer20Width4U8ToS16_avx2 00000001800173a0     mc_luma.obj
 0001:00016490       McHorVer02Width4S16ToU8_avx2 0000000180017490     mc_luma.obj
 0001:000165b0       McHorVer20Width8U8ToS16_avx2 00000001800175b0     mc_luma.obj
 0001:00016660       McHorVer02Width5S16ToU8_avx2 0000000180017660     mc_luma.obj
 0001:000168b0       McHorVer02Width8S16ToU8_avx2 00000001800178b0     mc_luma.obj
 0001:00016a60       McHorVer20Width16U8ToS16_avx2 0000000180017a60     mc_luma.obj
 0001:00016b70       McHorVer02Width9S16ToU8_avx2 0000000180017b70     mc_luma.obj
 0001:00016ea0       McHorVer20Width17U8ToS16_avx2 0000000180017ea0     mc_luma.obj
 0001:00017120       McHorVer02Width16Or17S16ToU8_avx2 0000000180018120     mc_luma.obj
 0001:00017590       WelsSampleSatd4x4_sse2     0000000180018590     satd_sad.obj
 0001:000176d0       WelsSampleSatd8x8_sse2     00000001800186d0     satd_sad.obj
 0001:000179c0       WelsSampleSatd8x16_sse2    00000001800189c0     satd_sad.obj
 0001:00017f50       WelsSampleSatd16x8_sse2    0000000180018f50     satd_sad.obj
 0001:000184e0       WelsSampleSatd16x16_sse2   00000001800194e0     satd_sad.obj
 0001:00018fb0       WelsSampleSatdThree4x4_sse2 0000000180019fb0     satd_sad.obj
 0001:00019380       WelsIntra16x16Combined3Satd_sse41 000000018001a380     satd_sad.obj
 0001:00019840       WelsIntraChroma8x8Combined3Satd_sse41 000000018001a840     satd_sad.obj
 0001:0001a2e0       WelsIntra16x16Combined3Sad_ssse3 000000018001b2e0     satd_sad.obj
 0001:0001a930       WelsSampleSatd4x4_sse41    000000018001b930     satd_sad.obj
 0001:0001aa30       WelsSampleSatd8x8_sse41    000000018001ba30     satd_sad.obj
 0001:0001acb0       WelsSampleSatd8x16_sse41   000000018001bcb0     satd_sad.obj
 0001:0001ae30       WelsSampleSatd16x8_sse41   000000018001be30     satd_sad.obj
 0001:0001b2d0       WelsSampleSatd16x16_sse41  000000018001c2d0     satd_sad.obj
 0001:0001b590       WelsSampleSatd8x16_avx2    000000018001c590     satd_sad.obj
 0001:0001b5a0       WelsSampleSatd8x8_avx2     000000018001c5a0     satd_sad.obj
 0001:0001b760       WelsSampleSatd16x16_avx2   000000018001c760     satd_sad.obj
 0001:0001b770       WelsSampleSatd16x8_avx2    000000018001c770     satd_sad.obj
 0001:0001b8d0       WelsSampleSad16x16_sse2    000000018001c8d0     satd_sad.obj
 0001:0001ba50       WelsSampleSad16x8_sse2     000000018001ca50     satd_sad.obj
 0001:0001bb10       WelsSampleSad8x16_sse2     000000018001cb10     satd_sad.obj
 0001:0001bc40       WelsSampleSad8x8_sse21     000000018001cc40     satd_sad.obj
 0001:0001be50       WelsSampleSadFour16x16_sse2 000000018001ce50     satd_sad.obj
 0001:0001c270       WelsSampleSadFour16x8_sse2 000000018001d270     satd_sad.obj
 0001:0001c4c0       WelsSampleSadFour8x16_sse2 000000018001d4c0     satd_sad.obj
 0001:0001c7d0       WelsSampleSadFour8x8_sse2  000000018001d7d0     satd_sad.obj
 0001:0001c990       WelsSampleSadFour4x4_sse2  000000018001d990     satd_sad.obj
 0001:0001cab0       WelsSampleSad4x4_mmx       000000018001dab0     satd_sad.obj
 0001:0001cb00       AnalysisVaaInfoIntra_sse2  000000018001db00     vaa.obj
 0001:0001ceb0       AnalysisVaaInfoIntra_ssse3 000000018001deb0     vaa.obj
 0001:0001d160       MdInterAnalysisVaaInfo_sse41 000000018001e160     vaa.obj
 0001:0001d1d0       MdInterAnalysisVaaInfo_sse2 000000018001e1d0     vaa.obj
 0001:0001d430       ?WelsAdjustLevel@WelsEnc@@YAHPEAUSSpatialLayerConfig@@PEBUTagLevelLimits@WelsCommon@@@Z 000000018001e430 f   au_set.obj
 0001:0001d5b0       ?WelsCheckRefFrameLimitationLevelIdcFirst@WelsEnc@@YAHPEAUTagLogContext@@PEAUTagWelsSvcCodingParam@1@@Z 000000018001e5b0 f   au_set.obj
 0001:0001d700       ?WelsCheckRefFrameLimitationNumRefFirst@WelsEnc@@YAHPEAUTagLogContext@@PEAUTagWelsSvcCodingParam@1@@Z 000000018001e700 f   au_set.obj
 0001:0001d720       ?WelsInitPps@WelsEnc@@YAHPEAUTagWelsPPS@1@PEAUTagWelsSPS@1@PEAUTagSubsetSps@1@I_N33@Z 000000018001e720 f   au_set.obj
 0001:0001d770       ?WelsInitSps@WelsEnc@@YAHPEAUTagWelsSPS@1@PEAUSSpatialLayerConfig@@PEAUTagDLayerParam@1@IHI_N_NH4@Z 000000018001e770 f   au_set.obj
 0001:0001da00       ?WelsInitSubsetSps@WelsEnc@@YAHPEAUTagSubsetSps@1@PEAUSSpatialLayerConfig@@PEAUTagDLayerParam@1@IHI_N_NH@Z 000000018001ea00 f   au_set.obj
 0001:0001da90       ?WelsWritePpsSyntax@WelsEnc@@YAHPEAUTagWelsPPS@1@PEAUTagBitStringAux@WelsCommon@@PEAVIWelsParametersetStrategy@1@@Z 000000018001ea90 f   au_set.obj
 0001:0001dc20       ?WelsWriteSpsNal@WelsEnc@@YAHPEAUTagWelsSPS@1@PEAUTagBitStringAux@WelsCommon@@PEAH@Z 000000018001ec20 f   au_set.obj
 0001:0001dc50       ?WelsWriteSpsSyntax@WelsEnc@@YAHPEAUTagWelsSPS@1@PEAUTagBitStringAux@WelsCommon@@PEAH_N@Z 000000018001ec50 f   au_set.obj
 0001:0001dee0       ?WelsWriteSubsetSpsSyntax@WelsEnc@@YAHPEAUTagSubsetSps@1@PEAUTagBitStringAux@WelsCommon@@PEAH@Z 000000018001eee0 f   au_set.obj
 0001:0001e010       ?WelsWriteVUI@WelsEnc@@YAHPEAUTagWelsSPS@1@PEAUTagBitStringAux@WelsCommon@@@Z 000000018001f010 f   au_set.obj
 0001:0001e1d0       ?DeblockingBSCalc_c@WelsEnc@@YAXPEAUTagWelsFuncPointerList@1@PEAUTagMB@1@QEAY133EIHHH@Z 000000018001f1d0 f   deblocking.obj
 0001:0001e390       ?DeblockingBSInsideMBNormal@WelsEnc@@YAXPEAUTagMB@1@QEAY133EPEAC@Z 000000018001f390 f i deblocking.obj
 0001:0001ec40       ?DeblockingBSMarginalMBAvcbase@WelsEnc@@YAIPEAUTagMB@1@0H@Z 000000018001fc40 f   deblocking.obj
 0001:0001eea0       ?DeblockingFilterFrameAvcbase@WelsEnc@@YAXPEAUTagDqLayer@1@PEAUTagWelsFuncPointerList@1@@Z 000000018001fea0 f   deblocking.obj
 0001:0001f030       ?DeblockingFilterSliceAvcbase@WelsEnc@@YAXPEAUTagDqLayer@1@PEAUTagWelsFuncPointerList@1@PEAUTagSlice@1@@Z 0000000180020030 f   deblocking.obj
 0001:0001f200       ?AfterBuildRefList@CWelsReference_TemporalLayer@WelsEnc@@UEAAXXZ 0000000180020200 f   ref_list_mgr_svc.obj
 0001:0001f200       ?DeblockingFilterSliceAvcbaseNull@WelsEnc@@YAXPEAUTagDqLayer@1@PEAUTagWelsFuncPointerList@1@PEAUTagSlice@1@@Z 0000000180020200 f   deblocking.obj
 0001:0001f200       ?InitFrame@IWelsTaskManage@WelsEnc@@UEAAXH@Z 0000000180020200 f   wels_task_management.obj
 0001:0001f200       ?LoadPrevious@CWelsParametersetIdConstant@WelsEnc@@UEAAXPEAUTagExistingParasetList@2@PEAUTagWelsSPS@2@PEAUTagSubsetSps@2@PEAUTagWelsPPS@2@@Z 0000000180020200 f   paraset_strategy.obj
 0001:0001f200       ?LoadPreviousPps@CWelsParametersetIdConstant@WelsEnc@@MEAAXPEAUTagExistingParasetList@2@PEAUTagWelsPPS@2@@Z 0000000180020200 f   paraset_strategy.obj
 0001:0001f200       ?LoadPreviousSps@CWelsParametersetIdConstant@WelsEnc@@MEAAXPEAUTagExistingParasetList@2@PEAUTagWelsSPS@2@PEAUTagSubsetSps@2@@Z 0000000180020200 f   paraset_strategy.obj
 0001:0001f200       ?LoadPreviousStructure@CWelsParametersetIdConstant@WelsEnc@@UEAAXPEAUTagParaSetOffsetVariable@2@PEAH@Z 0000000180020200 f   paraset_strategy.obj
 0001:0001f200       ?NotCalculateSatdCost@WelsEnc@@YAXP6AHPEAEH0H@ZPEAUTagWelsME@1@HH@Z 0000000180020200 f   svc_motion_estimate.obj
 0001:0001f200       ?OutputCurrentStructure@CWelsParametersetIdConstant@WelsEnc@@UEAAXPEAUTagParaSetOffsetVariable@2@PEAHPEAUTagWelsEncCtx@2@PEAUTagExistingParasetList@2@@Z 0000000180020200 f   paraset_strategy.obj
 0001:0001f200       ?SetScrollingMvToMdNull@WelsEnc@@YAXPEAUTagVAAFrameInfo@1@PEAUTagWelsMD@1@@Z 0000000180020200 f   svc_mode_decision.obj
 0001:0001f200       ?UpdateFMESwitchNull@WelsEnc@@YAXPEAUTagDqLayer@1@@Z 0000000180020200 f   svc_motion_estimate.obj
 0001:0001f200       ?UpdateParaSetNum@CWelsParametersetIdConstant@WelsEnc@@UEAAXPEAUTagWelsEncCtx@2@@Z 0000000180020200 f   paraset_strategy.obj
 0001:0001f200       ?UpdatePpsList@CWelsParametersetIdConstant@WelsEnc@@UEAAXPEAUTagWelsEncCtx@2@@Z 0000000180020200 f   paraset_strategy.obj
 0001:0001f200       ?WelsRcMbInfoUpdateDisable@WelsEnc@@YAXPEAUTagWelsEncCtx@1@PEAUTagMB@1@HPEAUTagSlice@1@@Z 0000000180020200 f   ratectl.obj
 0001:0001f200       ?WelsRcPictureInfoUpdateDisable@WelsEnc@@YAXPEAUTagWelsEncCtx@1@H@Z 0000000180020200 f   ratectl.obj
 0001:0001f200       ?WelsRcPostFrameSkippedUpdate@WelsEnc@@YAXPEAUTagWelsEncCtx@1@H@Z 0000000180020200 f   ratectl.obj
 0001:0001f200       _guard_check_icall_nop     0000000180020200 f   LIBCMT:guard_support.obj
 0001:0001f210       ?DeblockingInit@WelsEnc@@YAXPEAUtagDeblockingFunc@1@H@Z 0000000180020210 f   deblocking.obj
 0001:0001f2d0       ?DeblockingInterMb@WelsEnc@@YAXPEAUtagDeblockingFunc@1@PEAUTagMB@1@PEAUTagDeblockingFilter@1@QEAY133E@Z 00000001800202d0 f   deblocking.obj
 0001:0001f690       ?DeblockingIntraMb@WelsEnc@@YAXPEAUtagDeblockingFunc@1@PEAUTagMB@1@PEAUTagDeblockingFilter@1@@Z 0000000180020690 f   deblocking.obj
 0001:0001f6d0       ?DeblockingMbAvcbase@WelsEnc@@YAXPEAUTagWelsFuncPointerList@1@PEAUTagMB@1@PEAUTagDeblockingFilter@1@@Z 00000001800206d0 f   deblocking.obj
 0001:0001f7f0       ?FilteringEdgeChromaH@WelsEnc@@YAXPEAUtagDeblockingFunc@1@PEAUTagDeblockingFilter@1@PEAE2H2@Z 00000001800207f0 f   deblocking.obj
 0001:0001f920       ?FilteringEdgeChromaHV@WelsEnc@@YAXPEAUtagDeblockingFunc@1@PEAUTagMB@1@PEAUTagDeblockingFilter@1@@Z 0000000180020920 f   deblocking.obj
 0001:0001fb50       ?FilteringEdgeChromaIntraH@WelsEnc@@YAXPEAUtagDeblockingFunc@1@PEAUTagDeblockingFilter@1@PEAE2H2@Z 0000000180020b50 f   deblocking.obj
 0001:0001fbf0       ?FilteringEdgeChromaIntraV@WelsEnc@@YAXPEAUtagDeblockingFunc@1@PEAUTagDeblockingFilter@1@PEAE2H2@Z 0000000180020bf0 f   deblocking.obj
 0001:0001fc90       ?FilteringEdgeChromaV@WelsEnc@@YAXPEAUtagDeblockingFunc@1@PEAUTagDeblockingFilter@1@PEAE2H2@Z 0000000180020c90 f   deblocking.obj
 0001:0001fdc0       ?FilteringEdgeLumaH@WelsEnc@@YAXPEAUtagDeblockingFunc@1@PEAUTagDeblockingFilter@1@PEAEH2@Z 0000000180020dc0 f   deblocking.obj
 0001:0001fed0       ?FilteringEdgeLumaHV@WelsEnc@@YAXPEAUtagDeblockingFunc@1@PEAUTagMB@1@PEAUTagDeblockingFilter@1@@Z 0000000180020ed0 f   deblocking.obj
 0001:00020140       ?FilteringEdgeLumaIntraH@WelsEnc@@YAXPEAUtagDeblockingFunc@1@PEAUTagDeblockingFilter@1@PEAEH2@Z 0000000180021140 f   deblocking.obj
 0001:000201e0       ?FilteringEdgeLumaIntraV@WelsEnc@@YAXPEAUtagDeblockingFunc@1@PEAUTagDeblockingFilter@1@PEAEH2@Z 00000001800211e0 f   deblocking.obj
 0001:00020280       ?FilteringEdgeLumaV@WelsEnc@@YAXPEAUtagDeblockingFunc@1@PEAUTagDeblockingFilter@1@PEAEH2@Z 0000000180021280 f   deblocking.obj
 0001:00020390       ?PerformDeblockingFilter@WelsEnc@@YAXPEAUTagWelsEncCtx@1@@Z 0000000180021390 f   deblocking.obj
 0001:00020420       ?WelsBlockFuncInit@WelsEnc@@YAXPEAP6AXPEAC@ZH@Z 0000000180021420 f   deblocking.obj
 0001:00020440       ?WelsDequant4x4_c@WelsEnc@@YAXPEAFPEBG@Z 0000000180021440 f   decode_mb_aux.obj
 0001:00020560       ?WelsDequantFour4x4_c@WelsEnc@@YAXPEAFPEBG@Z 0000000180021560 f   decode_mb_aux.obj
 0001:000207b0       ?WelsDequantIHadamard2x2Dc@WelsEnc@@YAXPEAFG@Z 00000001800217b0 f   decode_mb_aux.obj
 0001:00020830       ?WelsDequantIHadamard4x4_c@WelsEnc@@YAXPEAFG@Z 0000000180021830 f   decode_mb_aux.obj
 0001:00020a30       ?WelsDequantLumaDc4x4@WelsEnc@@YAXPEAFH@Z 0000000180021a30 f   decode_mb_aux.obj
 0001:00020bc0       ?WelsGetEncBlockStrideOffset@WelsEnc@@YAXPEAHHH@Z 0000000180021bc0 f   decode_mb_aux.obj
 0001:00020ca0       ?WelsIDctFourT4Rec_c@WelsEnc@@YAXPEAEH0HPEAF@Z 0000000180021ca0 f   decode_mb_aux.obj
 0001:00020d70       ?WelsIDctRecI16x16Dc_c@WelsEnc@@YAXPEAEH0HPEAF@Z 0000000180021d70 f   decode_mb_aux.obj
 0001:00021010       ?WelsIDctT4RecOnMb@WelsEnc@@YAXPEAEH0HPEAFP6AX0H0H1@Z@Z 0000000180022010 f   decode_mb_aux.obj
 0001:000210f0       ?WelsIDctT4Rec_c@WelsEnc@@YAXPEAEH0HPEAF@Z 00000001800220f0 f   decode_mb_aux.obj
 0001:00021500       ?WelsIHadamard4x4Dc@WelsEnc@@YAXPEAF@Z 0000000180022500 f   decode_mb_aux.obj
 0001:000216f0       ?WelsInitReconstructionFuncs@WelsEnc@@YAXPEAUTagWelsFuncPointerList@1@I@Z 00000001800226f0 f   decode_mb_aux.obj
 0001:000217e0       ?WelsCalculateSingleCtr4x4_c@WelsEnc@@YAHPEAF@Z 00000001800227e0 f   encode_mb_aux.obj
 0001:00021870       ?WelsDctFourT4_c@WelsEnc@@YAXPEAFPEAEH1H@Z 0000000180022870 f   encode_mb_aux.obj
 0001:00021930       ?WelsDctT4_c@WelsEnc@@YAXPEAFPEAEH1H@Z 0000000180022930 f   encode_mb_aux.obj
 0001:00021b20       ?WelsGetNoneZeroCount_c@WelsEnc@@YAHPEAF@Z 0000000180022b20 f   encode_mb_aux.obj
 0001:00021b80       ?WelsHadamardQuant2x2Skip_c@WelsEnc@@YAHPEAFFF@Z 0000000180022b80 f   encode_mb_aux.obj
 0001:00021c30       ?WelsHadamardQuant2x2_c@WelsEnc@@YAHPEAFFF00@Z 0000000180022c30 f   encode_mb_aux.obj
 0001:00021d70       ?WelsHadamardT4Dc_c@WelsEnc@@YAXPEAF0@Z 0000000180022d70 f   encode_mb_aux.obj
 0001:00021f90       ?WelsInitEncodingFuncs@WelsEnc@@YAXPEAUTagWelsFuncPointerList@1@I@Z 0000000180022f90 f   encode_mb_aux.obj
 0001:00022250       ?WelsQuant4x4Dc_c@WelsEnc@@YAXPEAFFF@Z 0000000180023250 f   encode_mb_aux.obj
 0001:00022310       ?WelsQuant4x4_c@WelsEnc@@YAXPEAFPEBF1@Z 0000000180023310 f   encode_mb_aux.obj
 0001:00022410       ?WelsQuantFour4x4Max_c@WelsEnc@@YAXPEAFPEBF10@Z 0000000180023410 f   encode_mb_aux.obj
 0001:000226c0       ?WelsQuantFour4x4_c@WelsEnc@@YAXPEAFPEBF1@Z 00000001800236c0 f   encode_mb_aux.obj
 0001:00022a70       ?WelsScan4x4Ac_c@WelsEnc@@YAXPEAF0@Z 0000000180023a70 f   encode_mb_aux.obj
 0001:00022ad0       ?WelsScan4x4DcAc_c@WelsEnc@@YAXPEAF0@Z 0000000180023ad0 f   encode_mb_aux.obj
 0001:00022b30       ?DecideFrameType@WelsEnc@@YA?AW4EVideoFrameType@@PEAUTagWelsEncCtx@1@CH_N@Z 0000000180023b30 f   encoder.obj
 0001:00022d50       ?InitBitStream@WelsEnc@@YAXPEAUTagWelsEncCtx@1@@Z 0000000180023d50 f   encoder.obj
 0001:00022da0       ?InitFrameCoding@WelsEnc@@YAXPEAUTagWelsEncCtx@1@W4EVideoFrameType@@H@Z 0000000180023da0 f   encoder.obj
 0001:00022ed0       ?InitFunctionPointers@WelsEnc@@YAHPEAUTagWelsEncCtx@1@PEAUTagWelsSvcCodingParam@1@I@Z 0000000180023ed0 f   encoder.obj
 0001:00023070       ?LoadBackFrameNum@WelsEnc@@YAXPEAUTagWelsEncCtx@1@H@Z 0000000180024070 f   encoder.obj
 0001:000230c0       ?UpdateFrameNum@WelsEnc@@YAXPEAUTagWelsEncCtx@1@H@Z 00000001800240c0 f   encoder.obj
 0001:00023130       ?WelsInitBGDFunc@WelsEnc@@YAXPEAUTagWelsFuncPointerList@1@_N@Z 0000000180024130 f   encoder.obj
 0001:00023160       ?WelsSetMemZero_c@WelsEnc@@YAXPEAXH@Z 0000000180024160 f   encoder.obj
 0001:00023170       ?AcquireLayersNals@WelsEnc@@YAHPEAPEAUTagWelsEncCtx@1@PEAUTagWelsSvcCodingParam@1@PEAH2@Z 0000000180024170 f   encoder_ext.obj
 0001:00023370       ?AllocStrideTables@WelsEnc@@YAHPEAPEAUTagWelsEncCtx@1@H@Z 0000000180024370 f   encoder_ext.obj
 0001:000239b0       ?CheckLevelSetting@WelsEnc@@YAXPEAUTagLogContext@@PEAUTagWelsSvcCodingParam@1@HW4ELevelIdc@@@Z 00000001800249b0 f   encoder_ext.obj
 0001:000239f0       ?CheckProfileSetting@WelsEnc@@YAXPEAUTagLogContext@@PEAUTagWelsSvcCodingParam@1@HW4EProfileIdc@@@Z 00000001800249f0 f   encoder_ext.obj
 0001:00023ae0       ?CheckReferenceNumSetting@WelsEnc@@YAXPEAUTagLogContext@@PEAUTagWelsSvcCodingParam@1@H@Z 0000000180024ae0 f   encoder_ext.obj
 0001:00023b30       ?ClearFrameBsInfo@WelsEnc@@YAXPEAUTagWelsEncCtx@1@PEAUSFrameBSInfo@@@Z 0000000180024b30 f   encoder_ext.obj
 0001:00023b80       ?DetermineTemporalSettings@TagWelsSvcCodingParam@WelsEnc@@QEAAHXZ 0000000180024b80 f i encoder_ext.obj
 0001:00023db0       ?DynSliceRealloc@WelsEnc@@YAHPEAUTagWelsEncCtx@1@PEAUSFrameBSInfo@@PEAUSLayerBSInfo@@@Z 0000000180024db0 f   encoder_ext.obj
 0001:00023df0       ?DynslcUpdateMbNeighbourInfoListForAllSlices@WelsEnc@@YAXPEAUTagDqLayer@1@PEAUTagMB@1@@Z 0000000180024df0 f   encoder_ext.obj
 0001:00023e70       ?FillDefault@TagWelsSvcCodingParam@WelsEnc@@SAXAEAUTagEncParamExt@@@Z 0000000180024e70 f i encoder_ext.obj
 0001:00024020       ?ForceCodingIDR@WelsEnc@@YAHPEAUTagWelsEncCtx@1@H@Z 0000000180025020 f   encoder_ext.obj
 0001:00024110       ?FreeDqLayer@WelsEnc@@YAXAEAPEAUTagDqLayer@1@PEAVCMemoryAlign@WelsCommon@@@Z 0000000180025110 f   encoder_ext.obj
 0001:00024230       ?FreeMemorySvc@WelsEnc@@YAXPEAPEAUTagWelsEncCtx@1@@Z 0000000180025230 f   encoder_ext.obj
 0001:00024970       ?FreeRefList@WelsEnc@@YAXAEAPEAUTagRefList@1@PEAVCMemoryAlign@WelsCommon@@H@Z 0000000180025970 f   encoder_ext.obj
 0001:00024a00       ?FreeSliceInLayer@WelsEnc@@YAXPEAUTagDqLayer@1@PEAVCMemoryAlign@WelsCommon@@@Z 0000000180025a00 f   encoder_ext.obj
 0001:00024af0       ?GetMultipleThreadIdc@WelsEnc@@YAHPEAUTagLogContext@@PEAUTagWelsSvcCodingParam@1@AEAFAEAHAEAI@Z 0000000180025af0 f   encoder_ext.obj
 0001:00024c10       ?GetMvMvdRange@WelsEnc@@YAXPEAUTagWelsSvcCodingParam@1@AEAH1@Z 0000000180025c10 f   encoder_ext.obj
 0001:00024e00       ?GetSubSequenceId@WelsEnc@@YAHPEAUTagWelsEncCtx@1@W4EVideoFrameType@@@Z 0000000180025e00 f   encoder_ext.obj
 0001:00024e40       ?GetTemporalLevel@WelsEnc@@YAHPEAUTagDLayerParam@1@HH@Z 0000000180025e40 f   encoder_ext.obj
 0001:00025120       ?InitMbListD@WelsEnc@@YAHPEAPEAUTagWelsEncCtx@1@@Z 0000000180026120 f   encoder_ext.obj
 0001:00025310       ?InitSliceSettings@WelsEnc@@YAHPEAUTagLogContext@@PEAUTagWelsSvcCodingParam@1@HPEAF@Z 0000000180026310 f   encoder_ext.obj
 0001:00025420       ?OutputCpuFeaturesLog@WelsEnc@@YAXPEAUTagLogContext@@IIH@Z 0000000180026420 f   encoder_ext.obj
 0001:00025630       ?ParamValidation@WelsEnc@@YAHPEAUTagLogContext@@PEAUTagWelsSvcCodingParam@1@@Z 0000000180026630 f   encoder_ext.obj
 0001:00025b40       ?ParamValidationExt@WelsEnc@@YAHPEAUTagLogContext@@PEAUTagWelsSvcCodingParam@1@@Z 0000000180026b40 f   encoder_ext.obj
 0001:00026310       ?PicPartitionNumDecision@WelsEnc@@YAHPEAUTagWelsEncCtx@1@@Z 0000000180027310 f   encoder_ext.obj
 0001:00026330       ?PrepareEncodeFrame@WelsEnc@@YA?AW4EVideoFrameType@@PEAUTagWelsEncCtx@1@AEAPEAUSLayerBSInfo@@HAEACAEAH33_J@Z 0000000180027330 f   encoder_ext.obj
 0001:000264e0       ?PreprocessSliceCoding@WelsEnc@@YAXPEAUTagWelsEncCtx@1@@Z 00000001800274e0 f   encoder_ext.obj
 0001:00026890       ?ReleaseMemoryVaaScreen@WelsEnc@@YAXPEAUTagVAAFrameInfo@1@PEAVCMemoryAlign@WelsCommon@@H@Z 0000000180027890 f   encoder_ext.obj
 0001:000268f0       ?RequestMemorySvc@WelsEnc@@YAHPEAPEAUTagWelsEncCtx@1@PEAUTagExistingParasetList@1@@Z 00000001800278f0 f   encoder_ext.obj
 0001:00027a90       ?RequestMemoryVaaScreen@WelsEnc@@YAHPEAUTagVAAFrameInfo@1@PEAVCMemoryAlign@WelsCommon@@HH@Z 0000000180028a90 f   encoder_ext.obj
 0001:00027b30       ?SetMeMethod@WelsEnc@@YA_NEAEAP6AXPEAUTagWelsFuncPointerList@1@PEAUTagWelsME@1@PEAUTagSlice@1@HH@Z@Z 0000000180028b30 f   encoder_ext.obj
 0001:00027b90       ?SliceArgumentValidationFixedSliceMode@WelsEnc@@YAHPEAUTagLogContext@@PEAUSSliceArgument@@W4RC_MODES@@HH@Z 0000000180028b90 f   encoder_ext.obj
 0001:00027d80       ?StackBackEncoderStatus@WelsEnc@@YAXPEAUTagWelsEncCtx@1@W4EVideoFrameType@@@Z 0000000180028d80 f   encoder_ext.obj
 0001:00027e70       ?UpdateSlicepEncCtxWithPartition@WelsEnc@@YAXPEAUTagDqLayer@1@H@Z 0000000180028e70 f   encoder_ext.obj
 0001:00027fc0       ?WelsBitRateVerification@WelsEnc@@YAHPEAUTagLogContext@@PEAUSSpatialLayerConfig@@H@Z 0000000180028fc0 f   encoder_ext.obj
 0001:00028160       ?WelsCodeOnePicPartition@WelsEnc@@YAHPEAUTagWelsEncCtx@1@PEAUSFrameBSInfo@@PEAUSLayerBSInfo@@PEAH3HHH@Z 0000000180029160 f   encoder_ext.obj
 0001:000284d0       ?WelsEncoderApplyBitRate@WelsEnc@@YAHPEAUTagLogContext@@PEAUTagWelsSvcCodingParam@1@H@Z 00000001800294d0 f   encoder_ext.obj
 0001:00028700       ?WelsEncoderApplyBitVaryRang@WelsEnc@@YAHPEAUTagLogContext@@PEAUTagWelsSvcCodingParam@1@H@Z 0000000180029700 f   encoder_ext.obj
 0001:000287e0       ?WelsEncoderApplyFrameRate@WelsEnc@@YAXPEAUTagWelsSvcCodingParam@1@@Z 00000001800297e0 f   encoder_ext.obj
 0001:000289d0       ?WelsEncoderApplyLTR@WelsEnc@@YAHPEAUTagLogContext@@PEAPEAUTagWelsEncCtx@1@PEAUSLTRConfig@@@Z 00000001800299d0 f   encoder_ext.obj
 0001:00028c50       ?WelsEncoderEncodeExt@WelsEnc@@YAHPEAUTagWelsEncCtx@1@PEAUSFrameBSInfo@@PEBUSource_Picture_s@@@Z 0000000180029c50 f   encoder_ext.obj
 0001:0002a660       ?WelsEncoderEncodeParameterSets@WelsEnc@@YAHPEAUTagWelsEncCtx@1@PEAX@Z 000000018002b660 f   encoder_ext.obj
 0001:0002a730       ?WelsEncoderParamAdjust@WelsEnc@@YAHPEAPEAUTagWelsEncCtx@1@PEAUTagWelsSvcCodingParam@1@@Z 000000018002b730 f   encoder_ext.obj
 0001:0002b2a0       ?WelsInitCurrentDlayerMltslc@WelsEnc@@YAXPEAUTagWelsEncCtx@1@H@Z 000000018002c2a0 f   encoder_ext.obj
 0001:0002b390       ?WelsInitCurrentLayer@WelsEnc@@YAXPEAUTagWelsEncCtx@1@HH@Z 000000018002c390 f   encoder_ext.obj
 0001:0002b650       ?WelsInitCurrentQBLayerMltslc@WelsEnc@@YAXPEAUTagWelsEncCtx@1@@Z 000000018002c650 f   encoder_ext.obj
 0001:0002b670       ?WelsInitEncoderExt@WelsEnc@@YAHPEAPEAUTagWelsEncCtx@1@PEAUTagWelsSvcCodingParam@1@PEAUTagLogContext@@PEAUTagExistingParasetList@1@@Z 000000018002c670 f   encoder_ext.obj
 0001:0002ba90       ?WelsUninitEncoderExt@WelsEnc@@YAXPEAPEAUTagWelsEncCtx@1@@Z 000000018002ca90 f   encoder_ext.obj
 0001:0002bbd0       ?WelsWriteOnePPS@WelsEnc@@YAHPEAUTagWelsEncCtx@1@HAEAH@Z 000000018002cbd0 f   encoder_ext.obj
 0001:0002bca0       ?WelsWriteOneSPS@WelsEnc@@YAHPEAUTagWelsEncCtx@1@HAEAH@Z 000000018002cca0 f   encoder_ext.obj
 0001:0002bd80       ?WelsWriteParameterSets@WelsEnc@@YAHPEAUTagWelsEncCtx@1@PEAH11@Z 000000018002cd80 f   encoder_ext.obj
 0001:0002c050       ?WritePadding@WelsEnc@@YAHPEAUTagWelsEncCtx@1@HAEAH@Z 000000018002d050 f   encoder_ext.obj
 0001:0002c2c0       ?WriteSavcParaset@WelsEnc@@YAHPEAUTagWelsEncCtx@1@HAEAPEAUSLayerBSInfo@@AEAH2@Z 000000018002d2c0 f   encoder_ext.obj
 0001:0002c4e0       ?WriteSavcParaset_Listing@WelsEnc@@YAHPEAUTagWelsEncCtx@1@HAEAPEAUSLayerBSInfo@@AEAH2@Z 000000018002d4e0 f   encoder_ext.obj
 0001:0002c790       ?WriteSsvcParaset@WelsEnc@@YAHPEAUTagWelsEncCtx@1@HAEAPEAUSLayerBSInfo@@AEAH2@Z 000000018002d790 f   encoder_ext.obj
 0001:0002c8c0       ?WelsI16x16LumaPredDcLeft_c@WelsEnc@@YAXPEAE0H@Z 000000018002d8c0 f   get_intra_predictor.obj
 0001:0002c910       ?WelsI16x16LumaPredDcNA_c@WelsEnc@@YAXPEAE0H@Z 000000018002d910 f   get_intra_predictor.obj
 0001:0002c920       ?WelsI16x16LumaPredDcTop_c@WelsEnc@@YAXPEAE0H@Z 000000018002d920 f   get_intra_predictor.obj
 0001:0002c970       ?WelsI16x16LumaPredDc_c@WelsEnc@@YAXPEAE0H@Z 000000018002d970 f   get_intra_predictor.obj
 0001:0002c9f0       ?WelsI16x16LumaPredPlane_c@WelsEnc@@YAXPEAE0H@Z 000000018002d9f0 f   get_intra_predictor.obj
 0001:0002cdc0       ?WelsI4x4LumaPredDDLTop_c@WelsEnc@@YAXPEAE0H@Z 000000018002ddc0 f   get_intra_predictor.obj
 0001:0002cec0       ?WelsI4x4LumaPredDDL_c@WelsEnc@@YAXPEAE0H@Z 000000018002dec0 f   get_intra_predictor.obj
 0001:0002d040       ?WelsI4x4LumaPredDDR_c@WelsEnc@@YAXPEAE0H@Z 000000018002e040 f   get_intra_predictor.obj
 0001:0002d1f0       ?WelsI4x4LumaPredDcLeft_c@WelsEnc@@YAXPEAE0H@Z 000000018002e1f0 f   get_intra_predictor.obj
 0001:0002d260       ?WelsI4x4LumaPredDcNA_c@WelsEnc@@YAXPEAE0H@Z 000000018002e260 f   get_intra_predictor.obj
 0001:0002d280       ?WelsI4x4LumaPredDcTop_c@WelsEnc@@YAXPEAE0H@Z 000000018002e280 f   get_intra_predictor.obj
 0001:0002d310       ?WelsI4x4LumaPredDc_c@WelsEnc@@YAXPEAE0H@Z 000000018002e310 f   get_intra_predictor.obj
 0001:0002d3d0       ?WelsI4x4LumaPredHD_c@WelsEnc@@YAXPEAE0H@Z 000000018002e3d0 f   get_intra_predictor.obj
 0001:0002d560       ?WelsI4x4LumaPredHU_c@WelsEnc@@YAXPEAE0H@Z 000000018002e560 f   get_intra_predictor.obj
 0001:0002d660       ?WelsI4x4LumaPredH_c@WelsEnc@@YAXPEAE0H@Z 000000018002e660 f   get_intra_predictor.obj
 0001:0002d730       ?WelsI4x4LumaPredVLTop_c@WelsEnc@@YAXPEAE0H@Z 000000018002e730 f   get_intra_predictor.obj
 0001:0002d830       ?WelsI4x4LumaPredVL_c@WelsEnc@@YAXPEAE0H@Z 000000018002e830 f   get_intra_predictor.obj
 0001:0002d9d0       ?WelsI4x4LumaPredVR_c@WelsEnc@@YAXPEAE0H@Z 000000018002e9d0 f   get_intra_predictor.obj
 0001:0002db50       ?WelsI4x4LumaPredV_c@WelsEnc@@YAXPEAE0H@Z 000000018002eb50 f   get_intra_predictor.obj
 0001:0002dbb0       ?WelsIChromaPredDcLeft_c@WelsEnc@@YAXPEAE0H@Z 000000018002ebb0 f   get_intra_predictor.obj
 0001:0002dc90       ?WelsIChromaPredDcNA_c@WelsEnc@@YAXPEAE0H@Z 000000018002ec90 f   get_intra_predictor.obj
 0001:0002dcc0       ?WelsIChromaPredDcTop_c@WelsEnc@@YAXPEAE0H@Z 000000018002ecc0 f   get_intra_predictor.obj
 0001:0002ddc0       ?WelsIChromaPredDc_c@WelsEnc@@YAXPEAE0H@Z 000000018002edc0 f   get_intra_predictor.obj
 0001:0002dfa0       ?WelsIChromaPredH_c@WelsEnc@@YAXPEAE0H@Z 000000018002efa0 f   get_intra_predictor.obj
 0001:0002dfe0       ?WelsIChromaPredPlane_c@WelsEnc@@YAXPEAE0H@Z 000000018002efe0 f   get_intra_predictor.obj
 0001:0002e1f0       ?WelsIChromaPredV_c@WelsEnc@@YAXPEAE0H@Z 000000018002f1f0 f   get_intra_predictor.obj
 0001:0002e220       ?WelsInitIntraPredFuncs@WelsEnc@@YAXPEAUTagWelsFuncPointerList@1@I@Z 000000018002f220 f   get_intra_predictor.obj
 0001:0002e4b0       ?AnalysisVaaInfoIntra_c@WelsEnc@@YAHPEAEH@Z 000000018002f4b0 f   md.obj
 0001:0002e7b0       ?FillNeighborCacheInterWithBGD@WelsEnc@@YAXPEAUTagMbCache@1@PEAUTagMB@1@HPEAC@Z 000000018002f7b0 f   md.obj
 0001:0002eb30       ?FillNeighborCacheInterWithoutBGD@WelsEnc@@YAXPEAUTagMbCache@1@PEAUTagMB@1@HPEAC@Z 000000018002fb30 f   md.obj
 0001:0002ee90       ?FillNeighborCacheIntra@WelsEnc@@YAXPEAUTagMbCache@1@PEAUTagMB@1@H@Z 000000018002fe90 f   md.obj
 0001:0002f060       ?InitFillNeighborCacheInterFunc@WelsEnc@@YAXPEAUTagWelsFuncPointerList@1@H@Z 0000000180030060 f   md.obj
 0001:0002f080       ?InitIntraAnalysisVaaInfo@WelsEnc@@YAXPEAUTagWelsFuncPointerList@1@I@Z 0000000180030080 f   md.obj
 0001:0002f0f0       ?InitMeRefinePointer@WelsEnc@@YAXPEAUTagMeRefinePointer@1@PEAUTagMbCache@1@H@Z 00000001800300f0 f   md.obj
 0001:0002f140       ?MdInterAnalysisVaaInfo_c@WelsEnc@@YAEPEAH@Z 0000000180030140 f   md.obj
 0001:0002f200       ?MdIntraAnalysisVaaInfo@WelsEnc@@YA_NPEAUTagWelsEncCtx@1@PEAE@Z 0000000180030200 f   md.obj
 0001:0002f230       ?MeRefineFracPixel@WelsEnc@@YAXPEAUTagWelsEncCtx@1@PEAEPEAUTagWelsME@1@PEAUTagMeRefinePointer@1@HH@Z 0000000180030230 f   md.obj
 0001:0002f9c0       ?MeRefineQuarPixel@WelsEnc@@YAXPEAUTagWelsFuncPointerList@1@PEAUTagWelsME@1@PEAUTagMeRefinePointer@1@HHPEAUTagQuarParams@1@H@Z 00000001800309c0 f i md.obj
 0001:0002fc10       ?MvdCostInit@WelsEnc@@YAXPEAGH@Z 0000000180030c10 f   md.obj
 0001:0002fe70       ?PredictSad@WelsEnc@@YAXPEACPEAHH1@Z 0000000180030e70 f   md.obj
 0001:0002ff60       ?PredictSadSkip@WelsEnc@@YAXPEACPEA_NPEAHH2@Z 0000000180030f60 f   md.obj
 0001:000300a0       ?UpdateMbMv_c@WelsEnc@@YAXPEAUSMVUnitXY@1@U21@@Z 00000001800310a0 f   md.obj
 0001:000300d0       ?PredInter16x8Mv@WelsEnc@@YAXPEAUTagMbCache@1@HCPEAUSMVUnitXY@1@@Z 00000001800310d0 f   mv_pred.obj
 0001:00030120       ?PredInter8x16Mv@WelsEnc@@YAXPEAUTagMbCache@1@HCPEAUSMVUnitXY@1@@Z 0000000180031120 f   mv_pred.obj
 0001:00030190       ?PredMv@WelsEnc@@YAXPEBUTagMVComponentUnit@1@CCHPEAUSMVUnitXY@1@@Z 0000000180031190 f   mv_pred.obj
 0001:00030340       ?PredSkipMv@WelsEnc@@YAXPEAUTagMbCache@1@PEAUSMVUnitXY@1@@Z 0000000180031340 f   mv_pred.obj
 0001:00030390       ?UpdateP16x16MotionInfo@WelsEnc@@YAXPEAUTagMbCache@1@PEAUTagMB@1@CPEAUSMVUnitXY@1@@Z 0000000180031390 f   mv_pred.obj
 0001:00030480       ?UpdateP16x8Motion2Cache@WelsEnc@@YAXPEAUTagMbCache@1@HCPEAUSMVUnitXY@1@@Z 0000000180031480 f   mv_pred.obj
 0001:00030500       ?UpdateP16x8MotionInfo@WelsEnc@@YAXPEAUTagMbCache@1@PEAUTagMB@1@HCPEAUSMVUnitXY@1@@Z 0000000180031500 f   mv_pred.obj
 0001:000305d0       ?UpdateP4x4MotionInfo@WelsEnc@@YAXPEAUTagMbCache@1@PEAUTagMB@1@HCPEAUSMVUnitXY@1@@Z 00000001800315d0 f   mv_pred.obj
 0001:00030610       ?UpdateP4x8MotionInfo@WelsEnc@@YAXPEAUTagMbCache@1@PEAUTagMB@1@HCPEAUSMVUnitXY@1@@Z 0000000180031610 f   mv_pred.obj
 0001:00030680       ?UpdateP8x16Motion2Cache@WelsEnc@@YAXPEAUTagMbCache@1@HCPEAUSMVUnitXY@1@@Z 0000000180031680 f   mv_pred.obj
 0001:00030700       ?UpdateP8x4MotionInfo@WelsEnc@@YAXPEAUTagMbCache@1@PEAUTagMB@1@HCPEAUSMVUnitXY@1@@Z 0000000180031700 f   mv_pred.obj
 0001:00030770       ?UpdateP8x8Motion2Cache@WelsEnc@@YAXPEAUTagMbCache@1@HCPEAUSMVUnitXY@1@@Z 0000000180031770 f   mv_pred.obj
 0001:000307b0       ?UpdateP8x8MotionInfo@WelsEnc@@YAXPEAUTagMbCache@1@PEAUTagMB@1@HCPEAUSMVUnitXY@1@@Z 00000001800317b0 f   mv_pred.obj
 0001:00030830       ?update_P8x16_motion_info@WelsEnc@@YAXPEAUTagMbCache@1@PEAUTagMB@1@HCPEAUSMVUnitXY@1@@Z 0000000180031830 f   mv_pred.obj
 0001:00030930       ?WelsEncodeNal@WelsEnc@@YAHPEAUTagWelsNalRaw@1@PEAXH1PEAH@Z 0000000180031930 f   nal_encap.obj
 0001:00030a70       ?WelsLoadNal@WelsEnc@@YAXPEAUTagWelsEncoderOutput@1@HH@Z 0000000180031a70 f   nal_encap.obj
 0001:00030ad0       ?WelsLoadNalForSlice@WelsEnc@@YAXPEAUTagWelsSliceBs@1@HH@Z 0000000180031ad0 f   nal_encap.obj
 0001:00030b30       ?WelsUnloadNal@WelsEnc@@YAXPEAUTagWelsEncoderOutput@1@@Z 0000000180031b30 f   nal_encap.obj
 0001:00030b70       ?WelsUnloadNalForSlice@WelsEnc@@YAXPEAUTagWelsSliceBs@1@@Z 0000000180031b70 f   nal_encap.obj
 0001:00030bb0       ?WelsWriteSVCPrefixNal@WelsEnc@@YAHPEAUTagBitStringAux@WelsCommon@@H_N@Z 0000000180031bb0 f   nal_encap.obj
 0001:00030c70       ??0CWelsParametersetIdConstant@WelsEnc@@QEAA@_NH@Z 0000000180031c70 f   paraset_strategy.obj
 0001:00030ce0       ??0CWelsParametersetSpsListing@WelsEnc@@QEAA@_NH@Z 0000000180031ce0 f   paraset_strategy.obj
 0001:00030d50       ??0CWelsParametersetSpsPpsListing@WelsEnc@@QEAA@_NH@Z 0000000180031d50 f   paraset_strategy.obj
 0001:00030dc0       ??1CWelsParametersetIdConstant@WelsEnc@@UEAA@XZ 0000000180031dc0 f   paraset_strategy.obj
 0001:00030dd0       ??_ECWelsParametersetIdConstant@WelsEnc@@UEAAPEAXI@Z 0000000180031dd0 f i paraset_strategy.obj
 0001:00030dd0       ??_ECWelsParametersetIdIncreasing@WelsEnc@@UEAAPEAXI@Z 0000000180031dd0 f i paraset_strategy.obj
 0001:00030dd0       ??_ECWelsParametersetSpsListing@WelsEnc@@UEAAPEAXI@Z 0000000180031dd0 f i paraset_strategy.obj
 0001:00030dd0       ??_ECWelsParametersetSpsListingPpsIncreasing@WelsEnc@@UEAAPEAXI@Z 0000000180031dd0 f i paraset_strategy.obj
 0001:00030dd0       ??_ECWelsParametersetSpsPpsListing@WelsEnc@@UEAAPEAXI@Z 0000000180031dd0 f i paraset_strategy.obj
 0001:00030dd0       ??_GCWelsParametersetIdConstant@WelsEnc@@UEAAPEAXI@Z 0000000180031dd0 f i paraset_strategy.obj
 0001:00030dd0       ??_GCWelsParametersetIdIncreasing@WelsEnc@@UEAAPEAXI@Z 0000000180031dd0 f i paraset_strategy.obj
 0001:00030dd0       ??_GCWelsParametersetSpsListing@WelsEnc@@UEAAPEAXI@Z 0000000180031dd0 f i paraset_strategy.obj
 0001:00030dd0       ??_GCWelsParametersetSpsListingPpsIncreasing@WelsEnc@@UEAAPEAXI@Z 0000000180031dd0 f i paraset_strategy.obj
 0001:00030dd0       ??_GCWelsParametersetSpsPpsListing@WelsEnc@@UEAAPEAXI@Z 0000000180031dd0 f i paraset_strategy.obj
 0001:00030e10       ??_EIWelsParametersetStrategy@WelsEnc@@UEAAPEAXI@Z 0000000180031e10 f i paraset_strategy.obj
 0001:00030e10       ??_GIWelsParametersetStrategy@WelsEnc@@UEAAPEAXI@Z 0000000180031e10 f i paraset_strategy.obj
 0001:00030f30       ?CheckParamCompatibility@CWelsParametersetIdConstant@WelsEnc@@UEAA_NPEAUTagWelsSvcCodingParam@2@PEAUTagLogContext@@@Z 0000000180031f30 f i paraset_strategy.obj
 0001:00030f30       ?CheckPpsGenerating@CWelsParametersetSpsListing@WelsEnc@@MEAA_NXZ 0000000180031f30 f i paraset_strategy.obj
 0001:00030f30       __acrt_uninitialize_command_line 0000000180031f30 f i libucrt:argv_data.obj
 0001:00030f40       ?CheckParamCompatibility@CWelsParametersetSpsListing@WelsEnc@@UEAA_NPEAUTagWelsSvcCodingParam@2@PEAUTagLogContext@@@Z 0000000180031f40 f   paraset_strategy.obj
 0001:00030fa0       ?CheckPpsGenerating@CWelsParametersetSpsPpsListing@WelsEnc@@MEAA_NXZ 0000000180031fa0 f   paraset_strategy.obj
 0001:00030fb0       ?CreateParametersetStrategy@IWelsParametersetStrategy@WelsEnc@@SAPEAV12@W4EParameterSetStrategy@@_NH@Z 0000000180031fb0 f   paraset_strategy.obj
 0001:00031100       ?FindExistingPps@WelsEnc@@YAHPEAUTagWelsSPS@1@PEAUTagSubsetSps@1@_NH2HPEAUTagWelsPPS@1@@Z 0000000180032100 f   paraset_strategy.obj
 0001:000311d0       ?FindExistingSps@WelsEnc@@YAHPEAUTagWelsSvcCodingParam@1@_NHHHPEAUTagWelsSPS@1@PEAUTagSubsetSps@1@_N@Z 00000001800321d0 f   paraset_strategy.obj
 0001:00031330       ?GenerateNewSps@CWelsParametersetIdConstant@WelsEnc@@UEAAIPEAUTagWelsEncCtx@2@_NHHIAEAPEAUTagWelsSPS@2@AEAPEAUTagSubsetSps@2@_N@Z 0000000180032330 f   paraset_strategy.obj
 0001:00031390       ?GenerateNewSps@CWelsParametersetSpsListing@WelsEnc@@UEAAIPEAUTagWelsEncCtx@2@_NHHIAEAPEAUTagWelsSPS@2@AEAPEAUTagSubsetSps@2@_N@Z 0000000180032390 f   paraset_strategy.obj
 0001:00031520       ?GetAllNeededParasetNum@CWelsParametersetIdConstant@WelsEnc@@UEAAIXZ 0000000180032520 f   paraset_strategy.obj
 0001:00031560       ?GetCurrentPpsId@CWelsParametersetIdConstant@WelsEnc@@UEAAHHH@Z 0000000180032560 f i paraset_strategy.obj
 0001:00031560       ?GetSpsIdx@CWelsParametersetSpsListing@WelsEnc@@UEAAHH@Z 0000000180032560 f i paraset_strategy.obj
 0001:00031570       ?GetCurrentPpsId@CWelsParametersetSpsPpsListing@WelsEnc@@UEAAHHH@Z 0000000180032570 f   paraset_strategy.obj
 0001:00031590       ?GetNeededPpsNum@CWelsParametersetIdConstant@WelsEnc@@UEAAIXZ 0000000180032590 f   paraset_strategy.obj
 0001:000315d0       ?GetNeededSpsNum@CWelsParametersetIdConstant@WelsEnc@@UEAAIXZ 00000001800325d0 f   paraset_strategy.obj
 0001:00031610       ?GetNeededSubsetSpsNum@CWelsParametersetIdConstant@WelsEnc@@UEAAIXZ 0000000180032610 f   paraset_strategy.obj
 0001:00031640       ?GetNeededSubsetSpsNum@CWelsParametersetSpsListing@WelsEnc@@UEAAIXZ 0000000180032640 f   paraset_strategy.obj
 0001:00031670       ?DecodeFrameEx@CWelsDecoder@WelsDec@@UEAA?AW4DECODING_STATE@@PEBEHPEAEHAEAH222@Z 0000000180032670 f   welsDecoderExt.obj
 0001:00031670       ?Flush@CVpFrameWork@WelsVP@@UEAA?AW4EResult@@H@Z 0000000180032670 f   WelsFrameWork.obj
 0001:00031670       ?Flush@IStrategy@WelsVP@@UEAA?AW4EResult@@H@Z 0000000180032670 f   AdaptiveQuantization.obj
 0001:00031670       ?Get@IStrategy@WelsVP@@UEAA?AW4EResult@@HPEAX@Z 0000000180032670 f   AdaptiveQuantization.obj
 0001:00031670       ?GetPpsIdOffset@CWelsParametersetIdConstant@WelsEnc@@UEAAHH@Z 0000000180032670 f   paraset_strategy.obj
 0001:00031670       ?GetSpsIdOffset@CWelsParametersetIdConstant@WelsEnc@@UEAAHHH@Z 0000000180032670 f   paraset_strategy.obj
 0001:00031670       ?GetSpsIdx@CWelsParametersetIdConstant@WelsEnc@@UEAAHH@Z 0000000180032670 f   paraset_strategy.obj
 0001:00031670       ?GetTaskType@CWelsConstrainedSizeSlicingEncodingTask@WelsEnc@@UEBAIXZ 0000000180032670 f   wels_task_management.obj
 0001:00031670       ?GetTaskType@CWelsLoadBalancingSlicingEncodingTask@WelsEnc@@UEBAIXZ 0000000180032670 f   wels_task_management.obj
 0001:00031670       ?GetTaskType@CWelsSliceEncodingTask@WelsEnc@@UEBAIXZ 0000000180032670 f   wels_task_encoder.obj
 0001:00031670       ?Init@IStrategy@WelsVP@@UEAA?AW4EResult@@HPEAX@Z 0000000180032670 f   AdaptiveQuantization.obj
 0001:00031670       ?Set@IStrategy@WelsVP@@UEAA?AW4EResult@@HPEAX@Z 0000000180032670 f   AdaptiveQuantization.obj
 0001:00031670       ?SpecialFeature@CVpFrameWork@WelsVP@@UEAA?AW4EResult@@HPEAX0@Z 0000000180032670 f   WelsFrameWork.obj
 0001:00031670       ?SpecialFeature@IStrategy@WelsVP@@UEAA?AW4EResult@@HPEAX0@Z 0000000180032670 f   AdaptiveQuantization.obj
 0001:00031670       ?Uninit@IStrategy@WelsVP@@UEAA?AW4EResult@@H@Z 0000000180032670 f   AdaptiveQuantization.obj
 0001:00031670       WelsThreadSetName          0000000180032670 f   WelsThreadLib.obj
 0001:00031680       ?GetPpsIdOffset@CWelsParametersetIdIncreasing@WelsEnc@@UEAAHH@Z 0000000180032680 f   paraset_strategy.obj
 0001:00031680       ?GetPpsIdOffset@CWelsParametersetSpsListingPpsIncreasing@WelsEnc@@UEAAHH@Z 0000000180032680 f   paraset_strategy.obj
 0001:00031690       ?GetSpsIdOffset@CWelsParametersetIdIncreasing@WelsEnc@@UEAAHHH@Z 0000000180032690 f   paraset_strategy.obj
 0001:000316c0       ?GetSpsIdOffsetList@CWelsParametersetIdConstant@WelsEnc@@UEAAPEAHH@Z 00000001800326c0 f   paraset_strategy.obj
 0001:000316e0       ?InitPps@CWelsParametersetIdConstant@WelsEnc@@UEAAIPEAUTagWelsEncCtx@2@IPEAUTagWelsSPS@2@PEAUTagSubsetSps@2@I_N33@Z 00000001800326e0 f   paraset_strategy.obj
 0001:00031760       ?InitPps@CWelsParametersetSpsPpsListing@WelsEnc@@UEAAIPEAUTagWelsEncCtx@2@IPEAUTagWelsSPS@2@PEAUTagSubsetSps@2@I_N33@Z 0000000180032760 f   paraset_strategy.obj
 0001:00031840       ?LoadPrevious@CWelsParametersetSpsListing@WelsEnc@@UEAAXPEAUTagExistingParasetList@2@PEAUTagWelsSPS@2@PEAUTagSubsetSps@2@PEAUTagWelsPPS@2@@Z 0000000180032840 f   paraset_strategy.obj
 0001:00031880       ?LoadPreviousPps@CWelsParametersetSpsPpsListing@WelsEnc@@MEAAXPEAUTagExistingParasetList@2@PEAUTagWelsPPS@2@@Z 0000000180032880 f   paraset_strategy.obj
 0001:00031910       ?LoadPreviousSps@CWelsParametersetSpsListing@WelsEnc@@MEAAXPEAUTagExistingParasetList@2@PEAUTagWelsSPS@2@PEAUTagSubsetSps@2@@Z 0000000180032910 f   paraset_strategy.obj
 0001:000319a0       ?LoadPreviousStructure@CWelsParametersetIdNonConstant@WelsEnc@@UEAAXPEAUTagParaSetOffsetVariable@2@PEAH@Z 00000001800329a0 f   paraset_strategy.obj
 0001:00031a30       ?LoadPreviousStructure@CWelsParametersetSpsPpsListing@WelsEnc@@UEAAXPEAUTagParaSetOffsetVariable@2@PEAH@Z 0000000180032a30 f   paraset_strategy.obj
 0001:00031b30       ?OutputCurrentStructure@CWelsParametersetIdNonConstant@WelsEnc@@UEAAXPEAUTagParaSetOffsetVariable@2@PEAHPEAUTagWelsEncCtx@2@PEAUTagExistingParasetList@2@@Z 0000000180032b30 f   paraset_strategy.obj
 0001:00031bf0       ?OutputCurrentStructure@CWelsParametersetSpsListing@WelsEnc@@UEAAXPEAUTagParaSetOffsetVariable@2@PEAHPEAUTagWelsEncCtx@2@PEAUTagExistingParasetList@2@@Z 0000000180032bf0 f   paraset_strategy.obj
 0001:00031c90       ?OutputCurrentStructure@CWelsParametersetSpsPpsListing@WelsEnc@@UEAAXPEAUTagParaSetOffsetVariable@2@PEAHPEAUTagWelsEncCtx@2@PEAUTagExistingParasetList@2@@Z 0000000180032c90 f   paraset_strategy.obj
 0001:00031db0       ?ParasetIdAdditionIdAdjust@WelsEnc@@YAXPEAUTagParaSetOffsetVariable@1@HI@Z 0000000180032db0 f   paraset_strategy.obj
 0001:00031de0       ?SetUseSubsetFlag@CWelsParametersetIdConstant@WelsEnc@@UEAAXI_N@Z 0000000180032de0 f   paraset_strategy.obj
 0001:00031df0       ?SpsReset@CWelsParametersetSpsListing@WelsEnc@@MEAAHPEAUTagWelsEncCtx@2@_N@Z 0000000180032df0 f   paraset_strategy.obj
 0001:00031e50       ?SpsReset@CWelsParametersetSpsPpsListing@WelsEnc@@MEAAHPEAUTagWelsEncCtx@2@_N@Z 0000000180032e50 f   paraset_strategy.obj
 0001:00031e60       ?Update@CWelsParametersetIdConstant@WelsEnc@@UEAAXIH@Z 0000000180032e60 f   paraset_strategy.obj
 0001:00031e80       ?Update@CWelsParametersetIdIncreasing@WelsEnc@@UEAAXIH@Z 0000000180032e80 f   paraset_strategy.obj
 0001:00031e80       ?Update@CWelsParametersetSpsListingPpsIncreasing@WelsEnc@@UEAAXIH@Z 0000000180032e80 f   paraset_strategy.obj
 0001:00031eb0       ?UpdateParaSetNum@CWelsParametersetSpsListing@WelsEnc@@UEAAXPEAUTagWelsEncCtx@2@@Z 0000000180032eb0 f   paraset_strategy.obj
 0001:00031ed0       ?UpdateParaSetNum@CWelsParametersetSpsPpsListing@WelsEnc@@UEAAXPEAUTagWelsEncCtx@2@@Z 0000000180032ed0 f   paraset_strategy.obj
 0001:00031f00       ?UpdatePpsList@CWelsParametersetSpsPpsListing@WelsEnc@@UEAAXPEAUTagWelsEncCtx@2@@Z 0000000180032f00 f   paraset_strategy.obj
 0001:00032760       ?AllocPicture@WelsEnc@@YAPEAUTagPicture@1@PEAVCMemoryAlign@WelsCommon@@HH_NH@Z 0000000180033760 f   picture_handle.obj
 0001:000329a0       ?FreePicture@WelsEnc@@YAXPEAVCMemoryAlign@WelsCommon@@PEAPEAUTagPicture@1@@Z 00000001800339a0 f   picture_handle.obj
 0001:00032af0       ?CheckFrameSkipBasedMaxbr@WelsEnc@@YAXPEAUTagWelsEncCtx@1@_JH@Z 0000000180033af0 f   ratectl.obj
 0001:00032dc0       ?GetTimestampForRc@WelsEnc@@YA_J_J0M@Z 0000000180033dc0 f   ratectl.obj
 0001:00032e00       ?GomRCInitForOneSlice@WelsEnc@@YAXPEAUTagSlice@1@H@Z 0000000180033e00 f   ratectl.obj
 0001:00032e60       ?RcCalculateCascadingQp@WelsEnc@@YAHPEAUTagWelsEncCtx@1@H@Z 0000000180033e60 f   ratectl.obj
 0001:00032eb0       ?RcCalculateGomQp@WelsEnc@@YAXPEAUTagWelsEncCtx@1@PEAUTagSlice@1@PEAUTagMB@1@@Z 0000000180033eb0 f   ratectl.obj
 0001:00032f70       ?RcCalculateIdrQp@WelsEnc@@YAXPEAUTagWelsEncCtx@1@@Z 0000000180033f70 f   ratectl.obj
 0001:000333a0       ?RcCalculateMbQp@WelsEnc@@YAXPEAUTagWelsEncCtx@1@PEAUTagSlice@1@PEAUTagMB@1@@Z 00000001800343a0 f   ratectl.obj
 0001:00033440       ?RcCalculatePictureQp@WelsEnc@@YAXPEAUTagWelsEncCtx@1@@Z 0000000180034440 f   ratectl.obj
 0001:00033760       ?RcDecideTargetBits@WelsEnc@@YAXPEAUTagWelsEncCtx@1@@Z 0000000180034760 f   ratectl.obj
 0001:00033870       ?RcDecideTargetBitsTimestamp@WelsEnc@@YAXPEAUTagWelsEncCtx@1@@Z 0000000180034870 f   ratectl.obj
 0001:00033b00       ?RcFreeLayerMemory@WelsEnc@@YAXPEAUTagWelsRc@1@PEAVCMemoryAlign@WelsCommon@@@Z 0000000180034b00 f   ratectl.obj
 0001:00033b60       ?RcGomTargetBits@WelsEnc@@YAXPEAUTagWelsEncCtx@1@PEAUTagSlice@1@@Z 0000000180034b60 f   ratectl.obj
 0001:00033d30       ?RcInitGomParameters@WelsEnc@@YAXPEAUTagWelsEncCtx@1@@Z 0000000180034d30 f   ratectl.obj
 0001:00033de0       ?RcInitLayerMemory@WelsEnc@@YAXPEAUTagWelsRc@1@PEAVCMemoryAlign@WelsCommon@@H@Z 0000000180034de0 f   ratectl.obj
 0001:00033e90       ?RcInitRefreshParameter@WelsEnc@@YAXPEAUTagWelsEncCtx@1@@Z 0000000180034e90 f   ratectl.obj
 0001:00033fb0       ?RcInitSequenceParameter@WelsEnc@@YAXPEAUTagWelsEncCtx@1@@Z 0000000180034fb0 f   ratectl.obj
 0001:00034210       ?RcInitSliceInformation@WelsEnc@@YAXPEAUTagWelsEncCtx@1@@Z 0000000180035210 f   ratectl.obj
 0001:000342e0       ?RcInitTlWeight@WelsEnc@@YAXPEAUTagWelsEncCtx@1@@Z 00000001800352e0 f   ratectl.obj
 0001:000344c0       ?RcInitVGop@WelsEnc@@YAXPEAUTagWelsEncCtx@1@@Z 00000001800354c0 f   ratectl.obj
 0001:000345b0       ?RcJudgeBaseUsability@WelsEnc@@YAPEAUTagWelsRc@1@PEAUTagWelsEncCtx@1@@Z 00000001800355b0 f   ratectl.obj
 0001:00034650       ?RcJudgeBitrateFpsUpdate@WelsEnc@@YA_NPEAUTagWelsEncCtx@1@@Z 0000000180035650 f   ratectl.obj
 0001:000346d0       ?RcTraceFrameBits@WelsEnc@@YAXPEAUTagWelsEncCtx@1@_JH@Z 00000001800356d0 f   ratectl.obj
 0001:000347f0       ?RcUpdateBitrateFps@WelsEnc@@YAXPEAUTagWelsEncCtx@1@@Z 00000001800357f0 f   ratectl.obj
 0001:00034a50       ?RcUpdateFrameComplexity@WelsEnc@@YAXPEAUTagWelsEncCtx@1@@Z 0000000180035a50 f   ratectl.obj
 0001:00034be0       ?RcUpdateIntraComplexity@WelsEnc@@YAXPEAUTagWelsEncCtx@1@@Z 0000000180035be0 f   ratectl.obj
 0001:00034d30       ?RcUpdatePictureQpBits@WelsEnc@@YAXPEAUTagWelsEncCtx@1@H@Z 0000000180035d30 f   ratectl.obj
 0001:00034e90       ?RcUpdateTemporalZero@WelsEnc@@YAXPEAUTagWelsEncCtx@1@@Z 0000000180035e90 f   ratectl.obj
 0001:00034f10       ?RcVBufferCalculationPadding@WelsEnc@@YAXPEAUTagWelsEncCtx@1@@Z 0000000180035f10 f   ratectl.obj
 0001:00034f90       ?RcVBufferCalculationSkip@WelsEnc@@YAXPEAUTagWelsEncCtx@1@@Z 0000000180035f90 f   ratectl.obj
 0001:00035150       ?UpdateBufferWhenFrameSkipped@WelsEnc@@YAXPEAUTagWelsEncCtx@1@H@Z 0000000180036150 f   ratectl.obj
 0001:00035240       ?UpdateMaxBrCheckWindowStatus@WelsEnc@@YAXPEAUTagWelsEncCtx@1@H_J@Z 0000000180036240 f   ratectl.obj
 0001:00035410       ?WelRcPictureInitBufferBasedQp@WelsEnc@@YAXPEAUTagWelsEncCtx@1@_J@Z 0000000180036410 f   ratectl.obj
 0001:000354b0       ?WelsRcCheckFrameStatus@WelsEnc@@YA_NPEAUTagWelsEncCtx@1@_JHH@Z 00000001800364b0 f   ratectl.obj
 0001:000356c0       ?WelsRcFrameDelayJudgeTimeStamp@WelsEnc@@YAXPEAUTagWelsEncCtx@1@_JH@Z 00000001800366c0 f   ratectl.obj
 0001:000358a0       ?WelsRcFreeMemory@WelsEnc@@YAXPEAUTagWelsEncCtx@1@@Z 00000001800368a0 f   ratectl.obj
 0001:00035900       ?WelsRcInitFuncPointers@WelsEnc@@YAXPEAUTagWelsEncCtx@1@W4RC_MODES@@@Z 0000000180036900 f   ratectl.obj
 0001:00035a50       ?WelsRcInitModule@WelsEnc@@YAXPEAUTagWelsEncCtx@1@W4RC_MODES@@@Z 0000000180036a50 f   ratectl.obj
 0001:00035a70       ?WelsRcMbInfoUpdateGom@WelsEnc@@YAXPEAUTagWelsEncCtx@1@PEAUTagMB@1@HPEAUTagSlice@1@@Z 0000000180036a70 f   ratectl.obj
 0001:00035b10       ?WelsRcMbInitDisable@WelsEnc@@YAXPEAUTagWelsEncCtx@1@PEAUTagMB@1@PEAUTagSlice@1@@Z 0000000180036b10 f   ratectl.obj
 0001:00035be0       ?WelsRcMbInitGom@WelsEnc@@YAXPEAUTagWelsEncCtx@1@PEAUTagMB@1@PEAUTagSlice@1@@Z 0000000180036be0 f   ratectl.obj
 0001:00035ce0       ?WelsRcPictureInfoUpdateGom@WelsEnc@@YAXPEAUTagWelsEncCtx@1@H@Z 0000000180036ce0 f   ratectl.obj
 0001:00035d70       ?WelsRcPictureInfoUpdateGomTimeStamp@WelsEnc@@YAXPEAUTagWelsEncCtx@1@H@Z 0000000180036d70 f   ratectl.obj
 0001:00035df0       ?WelsRcPictureInitDisable@WelsEnc@@YAXPEAUTagWelsEncCtx@1@_J@Z 0000000180036df0 f   ratectl.obj
 0001:00035ed0       ?WelsRcPictureInitGom@WelsEnc@@YAXPEAUTagWelsEncCtx@1@_J@Z 0000000180036ed0 f   ratectl.obj
 0001:00035fe0       ?CheckDirectionalMvFalse@WelsEnc@@YA_NP6AHPEAEH0H@ZPEAUTagWelsME@1@USMVUnitXY@1@3HHAEAH@Z 0000000180036fe0 f   svc_motion_estimate.obj
 0001:00035fe0       ?WelsMdInterJudgeBGDPskipFalse@WelsEnc@@YA_NPEAUTagWelsEncCtx@1@PEAUTagWelsMD@1@PEAUTagSlice@1@PEAUTagMB@1@PEAUTagMbCache@1@PEA_N@Z 0000000180036fe0 f   svc_mode_decision.obj
 0001:00035fe0       ?WelsMdInterJudgeSCDPskipFalse@WelsEnc@@YA_NPEAUTagWelsEncCtx@1@PEAUTagWelsMD@1@PEAUTagSlice@1@PEAUTagMB@1@PEAUTagMbCache@1@@Z 0000000180036fe0 f   svc_mode_decision.obj
 0001:00035fe0       ?WelsRcPostFrameSkipping@WelsEnc@@YA_NPEAUTagWelsEncCtx@1@H_J@Z 0000000180036fe0 f   ratectl.obj
 0001:00035ff0       ??_ECWelsReference_LosslessWithLtr@WelsEnc@@UEAAPEAXI@Z 0000000180036ff0 f i ref_list_mgr_svc.obj
 0001:00035ff0       ??_ECWelsReference_Screen@WelsEnc@@UEAAPEAXI@Z 0000000180036ff0 f i ref_list_mgr_svc.obj
 0001:00035ff0       ??_ECWelsReference_TemporalLayer@WelsEnc@@UEAAPEAXI@Z 0000000180036ff0 f i ref_list_mgr_svc.obj
 0001:00035ff0       ??_GCWelsReference_LosslessWithLtr@WelsEnc@@UEAAPEAXI@Z 0000000180036ff0 f i ref_list_mgr_svc.obj
 0001:00035ff0       ??_GCWelsReference_Screen@WelsEnc@@UEAAPEAXI@Z 0000000180036ff0 f i ref_list_mgr_svc.obj
 0001:00035ff0       ??_GCWelsReference_TemporalLayer@WelsEnc@@UEAAPEAXI@Z 0000000180036ff0 f i ref_list_mgr_svc.obj
 0001:00036020       ??_EIWelsReferenceStrategy@WelsEnc@@UEAAPEAXI@Z 0000000180037020 f i ref_list_mgr_svc.obj
 0001:00036020       ??_GIWelsReferenceStrategy@WelsEnc@@UEAAPEAXI@Z 0000000180037020 f i ref_list_mgr_svc.obj
 0001:00036050       ?AfterBuildRefList@CWelsReference_Screen@WelsEnc@@UEAAXXZ 0000000180037050 f   ref_list_mgr_svc.obj
 0001:00036060       ?BuildRefList@CWelsReference_LosslessWithLtr@WelsEnc@@UEAA_NHH@Z 0000000180037060 f   ref_list_mgr_svc.obj
 0001:00036070       ?BuildRefList@CWelsReference_Screen@WelsEnc@@UEAA_NHH@Z 0000000180037070 f   ref_list_mgr_svc.obj
 0001:00036070       ?BuildRefList@CWelsReference_TemporalLayer@WelsEnc@@UEAA_NHH@Z 0000000180037070 f   ref_list_mgr_svc.obj
 0001:00036080       ?CheckCurMarkFrameNumUsed@WelsEnc@@YA_NPEAUTagWelsEncCtx@1@@Z 0000000180037080 f   ref_list_mgr_svc.obj
 0001:000362a0       ?CreateReferenceStrategy@IWelsReferenceStrategy@WelsEnc@@SAPEAV12@PEAUTagWelsEncCtx@2@W4EUsageType@@_N@Z 00000001800372a0 f   ref_list_mgr_svc.obj
 0001:00036950       ?EndofUpdateRefList@CWelsReference_LosslessWithLtr@WelsEnc@@UEAAXXZ 0000000180037950 f   ref_list_mgr_svc.obj
 0001:00036960       ?EndofUpdateRefList@CWelsReference_Screen@WelsEnc@@UEAAXXZ 0000000180037960 f   ref_list_mgr_svc.obj
 0001:00036970       ?EndofUpdateRefList@CWelsReference_TemporalLayer@WelsEnc@@UEAAXXZ 0000000180037970 f   ref_list_mgr_svc.obj
 0001:00036980       ?FilterLTRMarkingFeedback@WelsEnc@@YAXPEAUTagWelsEncCtx@1@PEAUSLTRMarkingFeedback@@@Z 0000000180037980 f   ref_list_mgr_svc.obj
 0001:00036a40       ?FilterLTRRecoveryRequest@WelsEnc@@YAHPEAUTagWelsEncCtx@1@PEAUSLTRRecoverRequest@@@Z 0000000180037a40 f   ref_list_mgr_svc.obj
 0001:00036f00       ?Init@CWelsReference_TemporalLayer@WelsEnc@@UEAAXPEAUTagWelsEncCtx@2@@Z 0000000180037f00 f   ref_list_mgr_svc.obj
 0001:00036f00       ?SetTraceCallback@welsCodecTrace@@QEAAXP6AXPEAXHPEBD@Z@Z 0000000180037f00 f   welsCodecTrace.obj
 0001:00037300       ?MarkPic@CWelsReference_LosslessWithLtr@WelsEnc@@UEAAXXZ 0000000180038300 f   ref_list_mgr_svc.obj
 0001:00037310       ?MarkPic@CWelsReference_Screen@WelsEnc@@UEAAXXZ 0000000180038310 f   ref_list_mgr_svc.obj
 0001:00037310       ?MarkPic@CWelsReference_TemporalLayer@WelsEnc@@UEAAXXZ 0000000180038310 f   ref_list_mgr_svc.obj
 0001:000373f0       ?ResetLtrState@WelsEnc@@YAXPEAUTagLTRState@1@@Z 00000001800383f0 f   ref_list_mgr_svc.obj
 0001:000374b0       ?UpdateRefList@CWelsReference_LosslessWithLtr@WelsEnc@@UEAA_NXZ 00000001800384b0 f   ref_list_mgr_svc.obj
 0001:000374c0       ?UpdateRefList@CWelsReference_Screen@WelsEnc@@UEAA_NXZ 00000001800384c0 f   ref_list_mgr_svc.obj
 0001:000374c0       ?UpdateRefList@CWelsReference_TemporalLayer@WelsEnc@@UEAA_NXZ 00000001800384c0 f   ref_list_mgr_svc.obj
 0001:00037640       ?WelsBuildRefList@WelsEnc@@YA_NPEAUTagWelsEncCtx@1@HH@Z 0000000180038640 f   ref_list_mgr_svc.obj
 0001:000378a0       ?WelsBuildRefListScreen@WelsEnc@@YA_NPEAUTagWelsEncCtx@1@HH@Z 00000001800388a0 f   ref_list_mgr_svc.obj
 0001:00037c60       ?WelsMarkMMCORefInfo@WelsEnc@@YAXPEAUTagWelsEncCtx@1@PEAUTagLTRState@1@PEAPEAUTagSlice@1@H@Z 0000000180038c60 f   ref_list_mgr_svc.obj
 0001:00037dd0       ?WelsMarkMMCORefInfoScreen@WelsEnc@@YAXPEAUTagWelsEncCtx@1@PEAUTagLTRState@1@PEAPEAUTagSlice@1@H@Z 0000000180038dd0 f   ref_list_mgr_svc.obj
 0001:00037f30       ?WelsMarkPic@WelsEnc@@YAXPEAUTagWelsEncCtx@1@@Z 0000000180038f30 f   ref_list_mgr_svc.obj
 0001:00038010       ?WelsMarkPicScreen@WelsEnc@@YAXPEAUTagWelsEncCtx@1@@Z 0000000180039010 f   ref_list_mgr_svc.obj
 0001:00038310       ?WelsResetRefList@WelsEnc@@YAXPEAUTagWelsEncCtx@1@@Z 0000000180039310 f   ref_list_mgr_svc.obj
 0001:000383f0       ?WelsUpdateRefList@WelsEnc@@YA_NPEAUTagWelsEncCtx@1@@Z 00000001800393f0 f   ref_list_mgr_svc.obj
 0001:00038730       ?WelsUpdateRefListScreen@WelsEnc@@YA_NPEAUTagWelsEncCtx@1@@Z 0000000180039730 f   ref_list_mgr_svc.obj
 0001:00038910       ?WelsUpdateRefSyntax@WelsEnc@@YAXPEAUTagWelsEncCtx@1@HH@Z 0000000180039910 f   ref_list_mgr_svc.obj
 0001:000389c0       ?WelsUpdateSliceHeaderSyntax@WelsEnc@@YAXPEAUTagWelsEncCtx@1@HPEAPEAUTagSlice@1@H@Z 00000001800399c0 f   ref_list_mgr_svc.obj
 0001:00038b20       ?WelsInitSampleSadFunc@WelsEnc@@YAXPEAUTagWelsFuncPointerList@1@I@Z 0000000180039b20 f   sample.obj
 0001:00038e20       ?WelsSampleSatd16x16_c@WelsEnc@@YAHPEAEH0H@Z 0000000180039e20 f   sample.obj
 0001:00038ec0       ?WelsSampleSatd16x8_c@WelsEnc@@YAHPEAEH0H@Z 0000000180039ec0 f   sample.obj
 0001:00038f20       ?WelsSampleSatd4x4_c@WelsEnc@@YAHPEAEH0H@Z 0000000180039f20 f   sample.obj
 0001:000391d0       ?WelsSampleSatd4x8_c@WelsEnc@@YAHPEAEH0H@Z 000000018003a1d0 f   sample.obj
 0001:00039250       ?WelsSampleSatd8x16_c@WelsEnc@@YAHPEAEH0H@Z 000000018003a250 f   sample.obj
 0001:000392d0       ?WelsSampleSatd8x4_c@WelsEnc@@YAHPEAEH0H@Z 000000018003a2d0 f   sample.obj
 0001:00039330       ?WelsSampleSatd8x8_c@WelsEnc@@YAHPEAEH0H@Z 000000018003a330 f   sample.obj
 0001:00039400       ?WelsCabacContextInit@WelsEnc@@YAXPEAXPEAUTagCabacCtx@1@H@Z 000000018003a400 f   set_mb_syn_cabac.obj
 0001:000394c0       ?WelsCabacEncodeDecisionLps_@WelsEnc@@YAXPEAUTagCabacCtx@1@H@Z 000000018003a4c0 f   set_mb_syn_cabac.obj
 0001:00039580       ?WelsCabacEncodeFlush@WelsEnc@@YAXPEAUTagCabacCtx@1@@Z 000000018003a580 f   set_mb_syn_cabac.obj
 0001:00039600       ?WelsCabacEncodeGetPtr@WelsEnc@@YAPEAEPEAUTagCabacCtx@1@@Z 000000018003a600 f   set_mb_syn_cabac.obj
 0001:00039610       ?WelsCabacEncodeInit@WelsEnc@@YAXPEAUTagCabacCtx@1@PEAE1@Z 000000018003a610 f   set_mb_syn_cabac.obj
 0001:00039640       ?WelsCabacEncodeTerminate@WelsEnc@@YAXPEAUTagCabacCtx@1@I@Z 000000018003a640 f   set_mb_syn_cabac.obj
 0001:000396f0       ?WelsCabacEncodeUeBypass@WelsEnc@@YAXPEAUTagCabacCtx@1@HI@Z 000000018003a6f0 f   set_mb_syn_cabac.obj
 0001:00039810       ?WelsCabacEncodeUpdateLowNontrivial_@WelsEnc@@YAXPEAUTagCabacCtx@1@@Z 000000018003a810 f   set_mb_syn_cabac.obj
 0001:000398d0       ?WelsCabacInit@WelsEnc@@YAXPEAX@Z 000000018003a8d0 f   set_mb_syn_cabac.obj
 0001:000399b0       ?GetBsPosCabac@WelsEnc@@YAHPEAUTagSlice@1@@Z 000000018003a9b0 f   set_mb_syn_cavlc.obj
 0001:000399e0       ?GetBsPosCavlc@WelsEnc@@YAHPEAUTagSlice@1@@Z 000000018003a9e0 f   set_mb_syn_cavlc.obj
 0001:00039a00       ?InitCoeffFunc@WelsEnc@@YAXPEAUTagWelsFuncPointerList@1@IH@Z 000000018003aa00 f   set_mb_syn_cavlc.obj
 0001:00039a90       ?StashMBStatusCabac@WelsEnc@@YAXPEAUTagDynamicSlicingStack@1@PEAUTagSlice@1@H@Z 000000018003aa90 f   set_mb_syn_cavlc.obj
 0001:00039bd0       ?StashMBStatusCavlc@WelsEnc@@YAXPEAUTagDynamicSlicingStack@1@PEAUTagSlice@1@H@Z 000000018003abd0 f   set_mb_syn_cavlc.obj
 0001:00039c10       ?StashPopMBStatusCabac@WelsEnc@@YAHPEAUTagDynamicSlicingStack@1@PEAUTagSlice@1@@Z 000000018003ac10 f   set_mb_syn_cavlc.obj
 0001:00039d40       ?StashPopMBStatusCavlc@WelsEnc@@YAHPEAUTagDynamicSlicingStack@1@PEAUTagSlice@1@@Z 000000018003ad40 f   set_mb_syn_cavlc.obj
 0001:00039d80       ?WelsWriteSliceEndSyn@WelsEnc@@YAXPEAUTagSlice@1@_N@Z 000000018003ad80 f   set_mb_syn_cavlc.obj
 0001:00039ea0       ?WriteBlockResidualCavlc@WelsEnc@@YAHPEAUTagWelsFuncPointerList@1@PEAFHHHCPEAUTagBitStringAux@WelsCommon@@@Z 000000018003aea0 f   set_mb_syn_cavlc.obj
 0001:0003a3e0       CavlcParamCal_c            000000018003b3e0 f   set_mb_syn_cavlc.obj
 0001:0003a470       ?AdjustBaseLayer@WelsEnc@@YAHPEAUTagWelsEncCtx@1@@Z 000000018003b470 f   slice_multi_threading.obj
 0001:0003a4d0       ?AdjustEnhanceLayer@WelsEnc@@YAHPEAUTagWelsEncCtx@1@H@Z 000000018003b4d0 f   slice_multi_threading.obj
 0001:0003a570       ?AppendSliceToFrameBs@WelsEnc@@YAHPEAUTagWelsEncCtx@1@PEAUSLayerBSInfo@@H@Z 000000018003b570 f   slice_multi_threading.obj
 0001:0003a670       ?CalcSliceComplexRatio@WelsEnc@@YAXPEAUTagDqLayer@1@@Z 000000018003b670 f   slice_multi_threading.obj
 0001:0003a790       ?DynamicAdjustSlicing@WelsEnc@@YAXPEAUTagWelsEncCtx@1@PEAUTagDqLayer@1@H@Z 000000018003b790 f   slice_multi_threading.obj
 0001:0003a940       ?DynamicDetectCpuCores@WelsEnc@@YAHXZ 000000018003b940 f   slice_multi_threading.obj
 0001:0003a960       ?NeedDynamicAdjust@WelsEnc@@YAHPEAPEAUTagSlice@1@H@Z 000000018003b960 f   slice_multi_threading.obj
 0001:0003aab0       ?ReleaseMtResource@WelsEnc@@YAXPEAPEAUTagWelsEncCtx@1@@Z 000000018003bab0 f   slice_multi_threading.obj
 0001:0003adb0       ?RequestMtResource@WelsEnc@@YAHPEAPEAUTagWelsEncCtx@1@PEAUTagWelsSvcCodingParam@1@HH_N@Z 000000018003bdb0 f   slice_multi_threading.obj
 0001:0003b120       ?SetOneSliceBsBufferUnderMultithread@WelsEnc@@YAXPEAUTagWelsEncCtx@1@HPEAUTagSlice@1@@Z 000000018003c120 f   slice_multi_threading.obj
 0001:0003b150       ?UpdateMbListNeighborParallel@WelsEnc@@YAXPEAUTagDqLayer@1@PEAUTagMB@1@H@Z 000000018003c150 f   slice_multi_threading.obj
 0001:0003b1e0       ?WriteSliceBs@WelsEnc@@YAHPEAUTagWelsEncCtx@1@PEAUTagWelsSliceBs@1@HAEAH@Z 000000018003c1e0 f   slice_multi_threading.obj
 0001:0003b2f0       ?PredIntra4x4Mode@WelsEnc@@YAHPEACH@Z 000000018003c2f0 f   svc_base_layer_md.obj
 0001:0003b320       ?WelsMdBackgroundMbEnc@WelsEnc@@YAXPEAUTagWelsEncCtx@1@PEAUTagWelsMD@1@PEAUTagMB@1@PEAUTagMbCache@1@PEAUTagSlice@1@_N@Z 000000018003c320 f   svc_base_layer_md.obj
 0001:0003b710       ?WelsMdFirstIntraMode@WelsEnc@@YA_NPEAUTagWelsEncCtx@1@PEAUTagWelsMD@1@PEAUTagMB@1@PEAUTagMbCache@1@@Z 000000018003c710 f   svc_base_layer_md.obj
 0001:0003b7f0       ?WelsMdI16x16@WelsEnc@@YAHPEAUTagWelsFuncPointerList@1@PEAUTagDqLayer@1@PEAUTagMbCache@1@H@Z 000000018003c7f0 f   svc_base_layer_md.obj
 0001:0003baa0       ?WelsMdI4x4@WelsEnc@@YAHPEAUTagWelsEncCtx@1@PEAUTagWelsMD@1@PEAUTagMB@1@PEAUTagMbCache@1@@Z 000000018003caa0 f   svc_base_layer_md.obj
 0001:0003bfe0       ?WelsMdI4x4Fast@WelsEnc@@YAHPEAUTagWelsEncCtx@1@PEAUTagWelsMD@1@PEAUTagMB@1@PEAUTagMbCache@1@@Z 000000018003cfe0 f   svc_base_layer_md.obj
 0001:0003ca60       ?WelsMdInterDecidedPskip@WelsEnc@@YAXPEAUTagWelsEncCtx@1@PEAUTagSlice@1@PEAUTagMB@1@PEAUTagMbCache@1@@Z 000000018003da60 f   svc_base_layer_md.obj
 0001:0003cac0       ?WelsMdInterDoubleCheckPskip@WelsEnc@@YAXPEAUTagMB@1@PEAUTagMbCache@1@@Z 000000018003dac0 f   svc_base_layer_md.obj
 0001:0003cb30       ?WelsMdInterEncode@WelsEnc@@YAXPEAUTagWelsEncCtx@1@PEAUTagSlice@1@PEAUTagMB@1@PEAUTagMbCache@1@@Z 000000018003db30 f   svc_base_layer_md.obj
 0001:0003cc10       ?WelsMdInterFinePartition@WelsEnc@@YAXPEAUTagWelsEncCtx@1@PEAUTagWelsMD@1@PEAUTagSlice@1@PEAUTagMB@1@H@Z 000000018003dc10 f   svc_base_layer_md.obj
 0001:0003ccc0       ?WelsMdInterFinePartitionVaa@WelsEnc@@YAXPEAUTagWelsEncCtx@1@PEAUTagWelsMD@1@PEAUTagSlice@1@PEAUTagMB@1@H@Z 000000018003dcc0 f   svc_base_layer_md.obj
 0001:0003ce70       ?WelsMdInterInit@WelsEnc@@YAXPEAUTagWelsEncCtx@1@PEAUTagSlice@1@PEAUTagMB@1@H@Z 000000018003de70 f   svc_base_layer_md.obj
 0001:0003d040       ?WelsMdInterJudgePskip@WelsEnc@@YA_NPEAUTagWelsEncCtx@1@PEAUTagWelsMD@1@PEAUTagSlice@1@PEAUTagMB@1@PEAUTagMbCache@1@_N@Z 000000018003e040 f   svc_base_layer_md.obj
 0001:0003d0e0       ?WelsMdInterMb@WelsEnc@@YAXPEAUTagWelsEncCtx@1@PEAUTagWelsMD@1@PEAUTagSlice@1@PEAUTagMB@1@PEAUTagMbCache@1@@Z 000000018003e0e0 f   svc_base_layer_md.obj
 0001:0003d2c0       ?WelsMdInterMbRefinement@WelsEnc@@YAXPEAUTagWelsEncCtx@1@PEAUTagWelsMD@1@PEAUTagMB@1@PEAUTagMbCache@1@@Z 000000018003e2c0 f   svc_base_layer_md.obj
 0001:0003e620       ?WelsMdInterSaveSadAndRefMbType@WelsEnc@@YAXPEAIPEAUTagMbCache@1@PEBUTagMB@1@PEBUTagWelsMD@1@@Z 000000018003f620 f   svc_base_layer_md.obj
 0001:0003e660       ?WelsMdInterSecondaryModesEnc@WelsEnc@@YAXPEAUTagWelsEncCtx@1@PEAUTagWelsMD@1@PEAUTagSlice@1@PEAUTagMB@1@PEAUTagMbCache@1@_N@Z 000000018003f660 f   svc_base_layer_md.obj
 0001:0003e730       ?WelsMdInterUpdatePskip@WelsEnc@@YAXPEAUTagDqLayer@1@PEAUTagSlice@1@PEAUTagMB@1@PEAUTagMbCache@1@@Z 000000018003f730 f   svc_base_layer_md.obj
 0001:0003e780       ?WelsMdIntraChroma@WelsEnc@@YAHPEAUTagWelsFuncPointerList@1@PEAUTagDqLayer@1@PEAUTagMbCache@1@H@Z 000000018003f780 f   svc_base_layer_md.obj
 0001:0003eae0       ?WelsMdIntraFinePartition@WelsEnc@@YAHPEAUTagWelsEncCtx@1@PEAUTagWelsMD@1@PEAUTagMB@1@PEAUTagMbCache@1@@Z 000000018003fae0 f   svc_base_layer_md.obj
 0001:0003eb20       ?WelsMdIntraFinePartitionVaa@WelsEnc@@YAHPEAUTagWelsEncCtx@1@PEAUTagWelsMD@1@PEAUTagMB@1@PEAUTagMbCache@1@@Z 000000018003fb20 f   svc_base_layer_md.obj
 0001:0003eb90       ?WelsMdIntraInit@WelsEnc@@YAXPEAUTagWelsEncCtx@1@PEAUTagMB@1@PEAUTagMbCache@1@H@Z 000000018003fb90 f   svc_base_layer_md.obj
 0001:0003ed50       ?WelsMdIntraMb@WelsEnc@@YAXPEAUTagWelsEncCtx@1@PEAUTagWelsMD@1@PEAUTagMB@1@PEAUTagMbCache@1@@Z 000000018003fd50 f   svc_base_layer_md.obj
 0001:0003edc0       ?WelsMdIntraSecondaryModesEnc@WelsEnc@@YAXPEAUTagWelsEncCtx@1@PEAUTagWelsMD@1@PEAUTagMB@1@PEAUTagMbCache@1@@Z 000000018003fdc0 f   svc_base_layer_md.obj
 0001:0003ee60       ?WelsMdP16x16@WelsEnc@@YAHPEAUTagWelsFuncPointerList@1@PEAUTagDqLayer@1@PEAUTagWelsMD@1@PEAUTagSlice@1@PEAUTagMB@1@@Z 000000018003fe60 f   svc_base_layer_md.obj
 0001:0003f0a0       ?WelsMdP16x8@WelsEnc@@YAHPEAUTagWelsFuncPointerList@1@PEAUTagDqLayer@1@PEAUTagWelsMD@1@PEAUTagSlice@1@@Z 00000001800400a0 f   svc_base_layer_md.obj
 0001:0003f260       ?WelsMdP8x16@WelsEnc@@YAHPEAUTagWelsFuncPointerList@1@PEAUTagDqLayer@1@PEAUTagWelsMD@1@PEAUTagSlice@1@@Z 0000000180040260 f   svc_base_layer_md.obj
 0001:0003f400       ?WelsMdP8x8@WelsEnc@@YAHPEAUTagWelsFuncPointerList@1@PEAUTagDqLayer@1@PEAUTagWelsMD@1@PEAUTagSlice@1@@Z 0000000180040400 f   svc_base_layer_md.obj
 0001:0003f590       ?WelsMdPSkipEnc@WelsEnc@@YA_NPEAUTagWelsEncCtx@1@PEAUTagWelsMD@1@PEAUTagMB@1@PEAUTagMbCache@1@@Z 0000000180040590 f   svc_base_layer_md.obj
 0001:0003fa70       ?AssignMbMapMultipleSlices@WelsEnc@@YAHPEAUTagDqLayer@1@PEBUSSliceArgument@@@Z 0000000180040a70 f   svc_enc_slice_segment.obj
 0001:0003fb90       ?AssignMbMapSingleSlice@WelsEnc@@YAHPEAXHH@Z 0000000180040b90 f   svc_enc_slice_segment.obj
 0001:0003fbc0       ?CheckFixedSliceNumMultiSliceSetting@WelsEnc@@YA_NHPEAUSSliceArgument@@@Z 0000000180040bc0 f   svc_enc_slice_segment.obj
 0001:0003fc20       ?CheckRasterMultiSliceSetting@WelsEnc@@YA_NHPEAUSSliceArgument@@@Z 0000000180040c20 f   svc_enc_slice_segment.obj
 0001:0003fcb0       ?CheckRowMbMultiSliceSetting@WelsEnc@@YA_NHPEAUSSliceArgument@@@Z 0000000180040cb0 f   svc_enc_slice_segment.obj
 0001:0003fce0       ?DynamicAdjustSlicePEncCtxAll@WelsEnc@@YAHPEAUTagDqLayer@1@PEAH@Z 0000000180040ce0 f   svc_enc_slice_segment.obj
 0001:0003fdf0       ?GetCurrentSliceNum@WelsEnc@@YAHPEBUTagDqLayer@1@@Z 0000000180040df0 f   svc_enc_slice_segment.obj
 0001:0003fe10       ?GetInitialSliceNum@WelsEnc@@YAHPEAUSSliceArgument@@@Z 0000000180040e10 f   svc_enc_slice_segment.obj
 0001:0003fe40       ?GomValidCheckSliceMbNum@WelsEnc@@YA_NHHPEAUSSliceArgument@@@Z 0000000180040e40 f   svc_enc_slice_segment.obj
 0001:0003ff30       ?GomValidCheckSliceNum@WelsEnc@@YA_NHHPEAI@Z 0000000180040f30 f   svc_enc_slice_segment.obj
 0001:0003ffa0       ?InitSlicePEncCtx@WelsEnc@@YAHPEAUTagDqLayer@1@PEAVCMemoryAlign@WelsCommon@@_NHHPEAUSSliceArgument@@PEAX@Z 0000000180040fa0 f   svc_enc_slice_segment.obj
 0001:0003ffd0       ?InitSliceSegment@WelsEnc@@YAHPEAUTagDqLayer@1@PEAVCMemoryAlign@WelsCommon@@PEAUSSliceArgument@@HH@Z 0000000180040fd0 f   svc_enc_slice_segment.obj
 0001:00040170       ?UninitSlicePEncCtx@WelsEnc@@YAXPEAUTagDqLayer@1@PEAVCMemoryAlign@WelsCommon@@@Z 0000000180041170 f   svc_enc_slice_segment.obj
 0001:00040180       ?UninitSliceSegment@WelsEnc@@YAXPEAUTagDqLayer@1@PEAVCMemoryAlign@WelsCommon@@@Z 0000000180041180 f   svc_enc_slice_segment.obj
 0001:000401d0       ?WelsGetNextMbOfSlice@WelsEnc@@YAHPEAUTagDqLayer@1@H@Z 00000001800411d0 f   svc_enc_slice_segment.obj
 0001:00040230       ?WelsMbToSliceIdc@WelsEnc@@YAGPEAUTagDqLayer@1@H@Z 0000000180041230 f   svc_enc_slice_segment.obj
 0001:00040260       ?WelsDctMb@WelsEnc@@YAXPEAFPEAEH1P6AX01H1H@Z@Z 0000000180041260 f   svc_encode_mb.obj
 0001:00040320       ?WelsEncInterY@WelsEnc@@YAXPEAUTagWelsFuncPointerList@1@PEAUTagMB@1@PEAUTagMbCache@1@@Z 0000000180041320 f   svc_encode_mb.obj
 0001:00040690       ?WelsEncRecI16x16Y@WelsEnc@@YAXPEAUTagWelsEncCtx@1@PEAUTagMB@1@PEAUTagMbCache@1@@Z 0000000180041690 f   svc_encode_mb.obj
 0001:00040ae0       ?WelsEncRecI4x4Y@WelsEnc@@YAXPEAUTagWelsEncCtx@1@PEAUTagMB@1@PEAUTagMbCache@1@E@Z 0000000180041ae0 f   svc_encode_mb.obj
 0001:00040cb0       ?WelsEncRecUV@WelsEnc@@YAXPEAUTagWelsFuncPointerList@1@PEAUTagMB@1@PEAUTagMbCache@1@PEAFH@Z 0000000180041cb0 f   svc_encode_mb.obj
 0001:00040fb0       ?WelsRecPskip@WelsEnc@@YAXPEAUTagDqLayer@1@PEAUTagWelsFuncPointerList@1@PEAUTagMB@1@PEAUTagMbCache@1@@Z 0000000180041fb0 f   svc_encode_mb.obj
 0001:00041060       ?WelsTryPUVskip@WelsEnc@@YA_NPEAUTagWelsEncCtx@1@PEAUTagMB@1@PEAUTagMbCache@1@H@Z 0000000180042060 f   svc_encode_mb.obj
 0001:000411c0       ?WelsTryPYskip@WelsEnc@@YA_NPEAUTagWelsEncCtx@1@PEAUTagMB@1@PEAUTagMbCache@1@@Z 00000001800421c0 f   svc_encode_mb.obj
 0001:000412c0       ?WelsISliceMdEnc@WelsEnc@@YAHPEAUTagWelsEncCtx@1@PEAUTagSlice@1@@Z 00000001800422c0 f   svc_encode_slice.obj
 0001:00041540       ?WelsISliceMdEncDynamic@WelsEnc@@YAHPEAUTagWelsEncCtx@1@PEAUTagSlice@1@@Z 0000000180042540 f   svc_encode_slice.obj
 0001:000418a0       ?WelsCodePSlice@WelsEnc@@YAHPEAUTagWelsEncCtx@1@PEAUTagSlice@1@@Z 00000001800428a0 f   svc_encode_slice.obj
 0001:000418f0       ?WelsCodePOverDynamicSlice@WelsEnc@@YAHPEAUTagWelsEncCtx@1@PEAUTagSlice@1@@Z 00000001800428f0 f   svc_encode_slice.obj
 0001:00041940       ?WelsSliceHeaderWrite@WelsEnc@@YAXPEAUTagWelsEncCtx@1@PEAUTagBitStringAux@WelsCommon@@PEAUTagDqLayer@1@PEAUTagSlice@1@PEAVIWelsParametersetStrategy@1@@Z 0000000180042940 f   svc_encode_slice.obj
 0001:00041bb0       ?WelsSliceHeaderExtWrite@WelsEnc@@YAXPEAUTagWelsEncCtx@1@PEAUTagBitStringAux@WelsCommon@@PEAUTagDqLayer@1@PEAUTagSlice@1@PEAVIWelsParametersetStrategy@1@@Z 0000000180042bb0 f   svc_encode_slice.obj
 0001:00041de0       ?AddSliceBoundary@WelsEnc@@YAXPEAUTagWelsEncCtx@1@PEAUTagSlice@1@PEAUSlicepEncCtx_s@1@PEAUTagMB@1@HH@Z 0000000180042de0 f   svc_encode_slice.obj
 0001:00041f70       ?AllocMbCacheAligned@WelsEnc@@YAHPEAUTagMbCache@1@PEAVCMemoryAlign@WelsCommon@@@Z 0000000180042f70 f   svc_encode_slice.obj
 0001:000420b0       ?AllocateSliceMBBuffer@WelsEnc@@YAHPEAUTagSlice@1@PEAVCMemoryAlign@WelsCommon@@@Z 00000001800430b0 f   svc_encode_slice.obj
 0001:000420d0       ?CalculateNewSliceNum@WelsEnc@@YAHPEAUTagWelsEncCtx@1@PEAUTagSlice@1@HAEAH@Z 00000001800430d0 f   svc_encode_slice.obj
 0001:000421a0       ?DynSlcJudgeSliceBoundaryStepBack@WelsEnc@@YA_NPEAX0PEAUSlicepEncCtx_s@1@PEAUTagMB@1@PEAUTagDynamicSlicingStack@1@@Z 00000001800431a0 f   svc_encode_slice.obj
 0001:000422f0       ?ExtendLayerBuffer@WelsEnc@@YAHPEAUTagWelsEncCtx@1@HH@Z 00000001800432f0 f   svc_encode_slice.obj
 0001:00042470       ?FrameBsRealloc@WelsEnc@@YAHPEAUTagWelsEncCtx@1@PEAUSFrameBSInfo@@PEAUSLayerBSInfo@@H@Z 0000000180043470 f   svc_encode_slice.obj
 0001:00042600       ?FreeMbCache@WelsEnc@@YAXPEAUTagMbCache@1@PEAVCMemoryAlign@WelsCommon@@@Z 0000000180043600 f   svc_encode_slice.obj
 0001:00042740       ?FreeSliceBuffer@WelsEnc@@YAXAEAPEAUTagSlice@1@HPEAVCMemoryAlign@WelsCommon@@PEBD@Z 0000000180043740 f   svc_encode_slice.obj
 0001:000427f0       ?GetCurLayerNalCount@WelsEnc@@YAHPEBUTagDqLayer@1@H@Z 00000001800437f0 f   svc_encode_slice.obj
 0001:00042830       ?GetTotalCodedNalCount@WelsEnc@@YAHPEAUSFrameBSInfo@@@Z 0000000180043830 f   svc_encode_slice.obj
 0001:000429d0       ?InitAllSlicesInThread@WelsEnc@@YAHPEAUTagWelsEncCtx@1@@Z 00000001800439d0 f   svc_encode_slice.obj
 0001:00042a60       ?InitOneSliceInThread@WelsEnc@@YAHPEAUTagWelsEncCtx@1@AEAPEAUTagSlice@1@HHH@Z 0000000180043a60 f   svc_encode_slice.obj
 0001:00042b00       ?InitSliceBoundaryInfo@WelsEnc@@YAHPEAUTagDqLayer@1@PEAUSSliceArgument@@H@Z 0000000180043b00 f   svc_encode_slice.obj
 0001:00042ca0       ?InitSliceBsBuffer@WelsEnc@@YAHPEAUTagSlice@1@PEAUTagBitStringAux@WelsCommon@@_NHPEAVCMemoryAlign@4@@Z 0000000180043ca0 f   svc_encode_slice.obj
 0001:00042d10       ?InitSliceHeadWithBase@WelsEnc@@YAXPEAUTagSlice@1@0@Z 0000000180043d10 f   svc_encode_slice.obj
 0001:00042d60       ?InitSliceInLayer@WelsEnc@@YAHPEAUTagWelsEncCtx@1@PEAUTagDqLayer@1@HPEAVCMemoryAlign@WelsCommon@@@Z 0000000180043d60 f   svc_encode_slice.obj
 0001:00042f60       ?InitSliceList@WelsEnc@@YAHAEAPEAUTagSlice@1@PEAUTagBitStringAux@WelsCommon@@HH_NPEAVCMemoryAlign@4@@Z 0000000180043f60 f   svc_encode_slice.obj
 0001:00043050       ?InitSliceRefInfoWithBase@WelsEnc@@YAXPEAUTagSlice@1@0E@Z 0000000180044050 f   svc_encode_slice.obj
 0001:000430d0       ?InitSliceThreadInfo@WelsEnc@@YAHPEAUTagWelsEncCtx@1@PEAUTagDqLayer@1@HPEAVCMemoryAlign@WelsCommon@@@Z 00000001800440d0 f   svc_encode_slice.obj
 0001:00043250       ?OutputPMbWithoutConstructCsRsNoCopy@WelsEnc@@YAXPEAUTagWelsEncCtx@1@PEAUTagDqLayer@1@PEAUTagSlice@1@PEAUTagMB@1@@Z 0000000180044250 f   svc_encode_slice.obj
 0001:00043330       ?ReOrderSliceInLayer@WelsEnc@@YAHPEAUTagWelsEncCtx@1@W4SliceModeEnum@@H@Z 0000000180044330 f   svc_encode_slice.obj
 0001:00043510       ?ReallocSliceBuffer@WelsEnc@@YAHPEAUTagWelsEncCtx@1@@Z 0000000180044510 f   svc_encode_slice.obj
 0001:00043670       ?ReallocateSliceInThread@WelsEnc@@YAHPEAUTagWelsEncCtx@1@PEAUTagDqLayer@1@HH@Z 0000000180044670 f   svc_encode_slice.obj
 0001:00043710       ?ReallocateSliceList@WelsEnc@@YAHPEAUTagWelsEncCtx@1@PEAUSSliceArgument@@AEAPEAUTagSlice@1@HH@Z 0000000180044710 f   svc_encode_slice.obj
 0001:000439f0       ?SetSliceBoundaryInfo@WelsEnc@@YAHPEAUTagDqLayer@1@PEAUTagSlice@1@H@Z 00000001800449f0 f   svc_encode_slice.obj
 0001:00043a50       ?SliceLayerInfoUpdate@WelsEnc@@YAHPEAUTagWelsEncCtx@1@PEAUSFrameBSInfo@@PEAUSLayerBSInfo@@W4SliceModeEnum@@@Z 0000000180044a50 f   svc_encode_slice.obj
 0001:00043bc0       ?UpdateMbNeighbor@WelsEnc@@YAXPEAUTagDqLayer@1@PEAUTagMB@1@HG@Z 0000000180044bc0 f   svc_encode_slice.obj
 0001:00043cd0       ?UpdateMbNeighbourInfoForNextSlice@WelsEnc@@YAXPEAUTagDqLayer@1@PEAUTagMB@1@HH@Z 0000000180044cd0 f   svc_encode_slice.obj
 0001:00043d70       ?UpdateNonZeroCountCache@WelsEnc@@YAXPEAUTagMB@1@PEAUTagMbCache@1@@Z 0000000180044d70 f   svc_encode_slice.obj
 0001:00043e00       ?UpdateQpForOverflow@WelsEnc@@YAXPEAUTagMB@1@E@Z 0000000180044e00 f   svc_encode_slice.obj
 0001:00043e30       ?WelsCodeOneSlice@WelsEnc@@YAHPEAUTagWelsEncCtx@1@PEAUTagSlice@1@H@Z 0000000180044e30 f   svc_encode_slice.obj
 0001:00043f90       ?WelsIMbChromaEncode@WelsEnc@@YAXPEAUTagWelsEncCtx@1@PEAUTagMB@1@PEAUTagMbCache@1@@Z 0000000180044f90 f   svc_encode_slice.obj
 0001:000440c0       ?WelsInterMbEncode@WelsEnc@@YAXPEAUTagWelsEncCtx@1@PEAUTagSlice@1@PEAUTagMB@1@@Z 00000001800450c0 f   svc_encode_slice.obj
 0001:00044130       ?WelsMdInterMbLoop@WelsEnc@@YAHPEAUTagWelsEncCtx@1@PEAUTagSlice@1@PEAXH@Z 0000000180045130 f   svc_encode_slice.obj
 0001:00044540       ?WelsMdInterMbLoopOverDynamicSlice@WelsEnc@@YAHPEAUTagWelsEncCtx@1@PEAUTagSlice@1@PEAXH@Z 0000000180045540 f   svc_encode_slice.obj
 0001:00044a30       ?WelsPMbChromaEncode@WelsEnc@@YAXPEAUTagWelsEncCtx@1@PEAUTagSlice@1@PEAUTagMB@1@@Z 0000000180045a30 f   svc_encode_slice.obj
 0001:00044b20       ?WelsPSliceMdEnc@WelsEnc@@YAHPEAUTagWelsEncCtx@1@PEAUTagSlice@1@_N@Z 0000000180045b20 f   svc_encode_slice.obj
 0001:00044bc0       ?WelsPSliceMdEncDynamic@WelsEnc@@YAHPEAUTagWelsEncCtx@1@PEAUTagSlice@1@_N@Z 0000000180045bc0 f   svc_encode_slice.obj
 0001:00044c60       ?WelsSliceHeaderExtInit@WelsEnc@@YAXPEAUTagWelsEncCtx@1@PEAUTagDqLayer@1@PEAUTagSlice@1@@Z 0000000180045c60 f   svc_encode_slice.obj
 0001:00044d80       ?WelsSliceHeaderScalExtInit@WelsEnc@@YAXPEAUTagDqLayer@1@PEAUTagSlice@1@@Z 0000000180045d80 f   svc_encode_slice.obj
 0001:00044db0       ?WriteRefPicMarking@WelsEnc@@YAXPEAUTagBitStringAux@WelsCommon@@PEAUTagSliceHeader@1@PEAUTagNalUnitHeaderExt@3@@Z 0000000180045db0 f   svc_encode_slice.obj
 0001:00045010       ?WriteReferenceReorder@WelsEnc@@YAXPEAUTagBitStringAux@WelsCommon@@PEAUTagSliceHeader@1@@Z 0000000180046010 f   svc_encode_slice.obj
 0001:000451a0       ?CheckChromaCost@WelsEnc@@YA_NPEAUTagWelsEncCtx@1@PEAUTagWelsMD@1@PEAUTagMbCache@1@H@Z 00000001800461a0 f   svc_mode_decision.obj
 0001:000452d0       ?GetRefMb@WelsEnc@@YAPEAUTagMB@1@PEAUTagDqLayer@1@PEAU21@@Z 00000001800462d0 f   svc_mode_decision.obj
 0001:00045310       ?JudgeScrollSkip@WelsEnc@@YA_NPEAUTagWelsEncCtx@1@PEAUTagMB@1@PEAUTagMbCache@1@PEAUTagWelsMD@1@@Z 0000000180046310 f   svc_mode_decision.obj
 0001:00045490       ?JudgeStaticSkip@WelsEnc@@YA_NPEAUTagWelsEncCtx@1@PEAUTagMB@1@PEAUTagMbCache@1@PEAUTagWelsMD@1@@Z 0000000180046490 f   svc_mode_decision.obj
 0001:00045590       ?MdInterSCDPskipProcess@WelsEnc@@YA_NPEAUTagWelsEncCtx@1@PEAUTagWelsMD@1@PEAUTagSlice@1@PEAUTagMB@1@PEAUTagMbCache@1@W4ESkipModes@1@@Z 0000000180046590 f   svc_mode_decision.obj
 0001:000456e0       ?SetBlockStaticIdcToMd@WelsEnc@@YAXPEAXPEAUTagWelsMD@1@PEAUTagMB@1@PEAUTagDqLayer@1@@Z 00000001800466e0 f   svc_mode_decision.obj
 0001:00045770       ?SetMvBaseEnhancelayer@WelsEnc@@YAXPEAUTagWelsMD@1@PEAUTagMB@1@PEBU31@@Z 0000000180046770 f   svc_mode_decision.obj
 0001:00045810       ?SetScrollingMvToMd@WelsEnc@@YAXPEAUTagVAAFrameInfo@1@PEAUTagWelsMD@1@@Z 0000000180046810 f   svc_mode_decision.obj
 0001:00045850       ?SvcMdSCDMbEnc@WelsEnc@@YAXPEAUTagWelsEncCtx@1@PEAUTagWelsMD@1@PEAUTagMB@1@PEAUTagMbCache@1@PEAUTagSlice@1@_N5QEAUSMVUnitXY@1@W4ESkipModes@1@@Z 0000000180046850 f   svc_mode_decision.obj
 0001:00045c50       ?TryModeMerge@WelsEnc@@YA_NPEAUTagMbCache@1@PEAUTagWelsMD@1@PEAUTagMB@1@@Z 0000000180046c50 f   svc_mode_decision.obj
 0001:00045f90       ?WelsInitSCDPskipFunc@WelsEnc@@YAXPEAUTagWelsFuncPointerList@1@_N@Z 0000000180046f90 f   svc_mode_decision.obj
 0001:00045fb0       ?WelsMdInterFinePartitionVaaOnScreen@WelsEnc@@YAXPEAUTagWelsEncCtx@1@PEAUTagWelsMD@1@PEAUTagSlice@1@PEAUTagMB@1@H@Z 0000000180046fb0 f   svc_mode_decision.obj
 0001:00046060       ?WelsMdInterJudgeBGDPskip@WelsEnc@@YA_NPEAUTagWelsEncCtx@1@PEAUTagWelsMD@1@PEAUTagSlice@1@PEAUTagMB@1@PEAUTagMbCache@1@PEA_N@Z 0000000180047060 f   svc_mode_decision.obj
 0001:00046190       ?WelsMdInterJudgeSCDPskip@WelsEnc@@YA_NPEAUTagWelsEncCtx@1@PEAUTagWelsMD@1@PEAUTagSlice@1@PEAUTagMB@1@PEAUTagMbCache@1@@Z 0000000180047190 f   svc_mode_decision.obj
 0001:00046240       ?WelsMdInterMbEnhancelayer@WelsEnc@@YAXPEAUTagWelsEncCtx@1@PEAUTagWelsMD@1@PEAUTagSlice@1@PEAUTagMB@1@PEAUTagMbCache@1@@Z 0000000180047240 f   svc_mode_decision.obj
 0001:000462c0       ?WelsMdSpatialelInterMbIlfmdNoilp@WelsEnc@@YAXPEAUTagWelsEncCtx@1@PEAUTagWelsMD@1@PEAUTagSlice@1@PEAUTagMB@1@I@Z 00000001800472c0 f   svc_mode_decision.obj
 0001:000464b0       ?WelsMdUpdateBGDInfo@WelsEnc@@YAXPEAUTagDqLayer@1@PEAUTagMB@1@_NH@Z 00000001800474b0 f   svc_mode_decision.obj
 0001:00046500       ?WelsMdUpdateBGDInfoNULL@WelsEnc@@YAXPEAUTagDqLayer@1@PEAUTagMB@1@_NH@Z 0000000180047500 f   svc_mode_decision.obj
 0001:00046510       ?CalcMvdCostx8_c@WelsEnc@@YAXPEAGH0G@Z 0000000180047510 f   svc_motion_estimate.obj
 0001:00046590       ?CalculateFeatureOfBlock@WelsEnc@@YA_NPEAUTagWelsFuncPointerList@1@PEAUTagPicture@1@PEAUTagScreenBlockFeatureStorage@1@@Z 0000000180047590 f   svc_motion_estimate.obj
 0001:000466e0       ?CalculateSatdCost@WelsEnc@@YAXP6AHPEAEH0H@ZPEAUTagWelsME@1@HH@Z 00000001800476e0 f   svc_motion_estimate.obj
 0001:00046740       ?CheckDirectionalMv@WelsEnc@@YA_NP6AHPEAEH0H@ZPEAUTagWelsME@1@USMVUnitXY@1@3HHAEAH@Z 0000000180047740 f   svc_motion_estimate.obj
 0001:00046900       ?FeatureSearchOne@WelsEnc@@YA_NAEAUTagFeatureSearchIn@1@HIPEAUTagFeatureSearchOut@1@@Z 0000000180047900 f   svc_motion_estimate.obj
 0001:00046ba0       ?FillQpelLocationByFeatureValue_c@WelsEnc@@YAXPEAGHHPEAPEAG@Z 0000000180047ba0 f   svc_motion_estimate.obj
 0001:00046c30       ?HorizontalFullSearchUsingSSE41@WelsEnc@@YAXPEAUTagWelsFuncPointerList@1@PEAUTagWelsME@1@PEAGHHFF_N@Z 0000000180047c30 f   svc_motion_estimate.obj
 0001:00046e70       ?InitializeHashforFeature_c@WelsEnc@@YAXPEAIPEAGHPEAPEAG2@Z 0000000180047e70 f   svc_motion_estimate.obj
 0001:00046eb0       ?LineFullSearch_c@WelsEnc@@YAXPEAUTagWelsFuncPointerList@1@PEAUTagWelsME@1@PEAGHHFF_N@Z 0000000180047eb0 f   svc_motion_estimate.obj
 0001:00047060       ?MotionEstimateFeatureFullSearch@WelsEnc@@YAXAEAUTagFeatureSearchIn@1@IPEAUTagWelsME@1@@Z 0000000180048060 f   svc_motion_estimate.obj
 0001:000470c0       ?PerformFMEPreprocess@WelsEnc@@YAXPEAUTagWelsFuncPointerList@1@PEAUTagPicture@1@PEAGPEAUTagScreenBlockFeatureStorage@1@@Z 00000001800480c0 f   svc_motion_estimate.obj
 0001:00047150       ?ReleaseFeatureSearchPreparation@WelsEnc@@YAHPEAVCMemoryAlign@WelsCommon@@AEAPEAG@Z 0000000180048150 f   svc_motion_estimate.obj
 0001:00047190       ?ReleaseScreenBlockFeatureStorage@WelsEnc@@YAHPEAVCMemoryAlign@WelsCommon@@PEAUTagScreenBlockFeatureStorage@1@@Z 0000000180048190 f   svc_motion_estimate.obj
 0001:00047250       ?RequestFeatureSearchPreparation@WelsEnc@@YAHPEAVCMemoryAlign@WelsCommon@@HHHPEAUTagFeatureSearchPreparation@1@@Z 0000000180048250 f   svc_motion_estimate.obj
 0001:000472d0       ?RequestScreenBlockFeatureStorage@WelsEnc@@YAHPEAVCMemoryAlign@WelsCommon@@HHHPEAUTagScreenBlockFeatureStorage@1@@Z 00000001800482d0 f   svc_motion_estimate.obj
 0001:00047430       ?SaveFeatureSearchOut@WelsEnc@@YAXUSMVUnitXY@1@IPEAEPEAUTagFeatureSearchOut@1@@Z 0000000180048430 f   svc_motion_estimate.obj
 0001:00047440       ?SetFeatureSearchIn@WelsEnc@@YA_NPEAUTagWelsFuncPointerList@1@AEBUTagWelsME@1@PEBUTagSlice@1@PEAUTagScreenBlockFeatureStorage@1@HHPEAUTagFeatureSearchIn@1@@Z 0000000180048440 f   svc_motion_estimate.obj
 0001:000475a0       ?SumOf16x16BlockOfFrame_c@WelsEnc@@YAXPEAEHHHPEAGQEAI@Z 00000001800485a0 f   svc_motion_estimate.obj
 0001:00047670       ?SumOf16x16SingleBlock_c@WelsEnc@@YAHPEAEH@Z 0000000180048670 f   svc_motion_estimate.obj
 0001:00047820       ?SumOf8x8BlockOfFrame_c@WelsEnc@@YAXPEAEHHHPEAGQEAI@Z 0000000180048820 f   svc_motion_estimate.obj
 0001:000478f0       ?SumOf8x8SingleBlock_c@WelsEnc@@YAHPEAEH@Z 00000001800488f0 f   svc_motion_estimate.obj
 0001:00047ae0       ?UpdateFMESwitch@WelsEnc@@YAXPEAUTagDqLayer@1@@Z 0000000180048ae0 f   svc_motion_estimate.obj
 0001:00047b20       ?VerticalFullSearchUsingSSE41@WelsEnc@@YAXPEAUTagWelsFuncPointerList@1@PEAUTagWelsME@1@PEAGHHFF_N@Z 0000000180048b20 f   svc_motion_estimate.obj
 0001:00047e30       ?WelsDiamondCrossFeatureSearch@WelsEnc@@YAXPEAUTagWelsFuncPointerList@1@PEAUTagWelsME@1@PEAUTagSlice@1@HH@Z 0000000180048e30 f   svc_motion_estimate.obj
 0001:00047f10       ?WelsDiamondCrossSearch@WelsEnc@@YAXPEAUTagWelsFuncPointerList@1@PEAUTagWelsME@1@PEAUTagSlice@1@HH@Z 0000000180048f10 f   svc_motion_estimate.obj
 0001:00047f90       ?WelsDiamondSearch@WelsEnc@@YAXPEAUTagWelsFuncPointerList@1@PEAUTagWelsME@1@PEAUTagSlice@1@HH@Z 0000000180048f90 f   svc_motion_estimate.obj
 0001:00048190       ?WelsInitMeFunc@WelsEnc@@YAXPEAUTagWelsFuncPointerList@1@I_N@Z 0000000180049190 f   svc_motion_estimate.obj
 0001:00048300       ?WelsMeSadCostSelect@WelsEnc@@YA_NPEAHPEBG0HH00@Z 0000000180049300 f   svc_motion_estimate.obj
 0001:000483d0       ?WelsMotionCrossSearch@WelsEnc@@YAXPEAUTagWelsFuncPointerList@1@PEAUTagWelsME@1@PEAUTagSlice@1@HH@Z 00000001800493d0 f   svc_motion_estimate.obj
 0001:00048490       ?WelsMotionEstimateInitialPoint@WelsEnc@@YA_NPEAUTagWelsFuncPointerList@1@PEAUTagWelsME@1@PEAUTagSlice@1@HH@Z 0000000180049490 f   svc_motion_estimate.obj
 0001:00048830       ?WelsMotionEstimateSearch@WelsEnc@@YAXPEAUTagWelsFuncPointerList@1@PEAUTagDqLayer@1@PEAUTagWelsME@1@PEAUTagSlice@1@@Z 0000000180049830 f   svc_motion_estimate.obj
 0001:000488f0       ?WelsMotionEstimateSearchScrolled@WelsEnc@@YAXPEAUTagWelsFuncPointerList@1@PEAUTagDqLayer@1@PEAUTagWelsME@1@PEAUTagSlice@1@@Z 00000001800498f0 f   svc_motion_estimate.obj
 0001:00048a00       ?WelsMotionEstimateSearchStatic@WelsEnc@@YAXPEAUTagWelsFuncPointerList@1@PEAUTagDqLayer@1@PEAUTagWelsME@1@PEAUTagSlice@1@@Z 0000000180049a00 f   svc_motion_estimate.obj
 0001:00048ad0       ?WelsCabacEncodeDecision@WelsEnc@@YAXPEAUTagCabacCtx@1@HI@Z 0000000180049ad0 f i svc_set_mb_syn_cabac.obj
 0001:0004a420       ?WelsInitSliceCabac@WelsEnc@@YAXPEAUTagWelsEncCtx@1@PEAUTagSlice@1@@Z 000000018004b420 f   svc_set_mb_syn_cabac.obj
 0001:0004a5a0       ?WelsSpatialWriteMbSynCabac@WelsEnc@@YAHPEAUTagWelsEncCtx@1@PEAUTagSlice@1@PEAUTagMB@1@@Z 000000018004b5a0 f   svc_set_mb_syn_cabac.obj
 0001:0004b4f0       ?CheckBitstreamBuffer@WelsEnc@@YAHIPEAUTagWelsEncCtx@1@PEAUTagBitStringAux@WelsCommon@@@Z 000000018004c4f0 f   svc_set_mb_syn_cavlc.obj
 0001:0004b510       ?WelsSpatialWriteMbPred@WelsEnc@@YAXPEAUTagWelsEncCtx@1@PEAUTagSlice@1@PEAUTagMB@1@@Z 000000018004c510 f   svc_set_mb_syn_cavlc.obj
 0001:0004b8d0       ?WelsSpatialWriteMbSyn@WelsEnc@@YAHPEAUTagWelsEncCtx@1@PEAUTagSlice@1@PEAUTagMB@1@@Z 000000018004c8d0 f   svc_set_mb_syn_cavlc.obj
 0001:0004ba80       ?WelsSpatialWriteSubMbPred@WelsEnc@@YAXPEAUTagWelsEncCtx@1@PEAUTagSlice@1@PEAUTagMB@1@@Z 000000018004ca80 f   svc_set_mb_syn_cavlc.obj
 0001:0004c120       ?WelsWriteMbResidual@WelsEnc@@YAHPEAUTagWelsFuncPointerList@1@PEAUTagMbCache@1@PEAUTagMB@1@PEAUTagBitStringAux@WelsCommon@@@Z 000000018004d120 f   svc_set_mb_syn_cavlc.obj
 0001:0004c710       ??0CWelsPreProcess@WelsEnc@@QEAA@PEAUTagWelsEncCtx@1@@Z 000000018004d710 f   wels_preprocess.obj
 0001:0004c770       ??1CWelsPreProcess@WelsEnc@@UEAA@XZ 000000018004d770 f   wels_preprocess.obj
 0001:0004c7b0       ??_ECWelsPreProcess@WelsEnc@@UEAAPEAXI@Z 000000018004d7b0 f i wels_preprocess.obj
 0001:0004c7b0       ??_ECWelsPreProcessScreen@WelsEnc@@UEAAPEAXI@Z 000000018004d7b0 f i wels_preprocess.obj
 0001:0004c7b0       ??_ECWelsPreProcessVideo@WelsEnc@@UEAAPEAXI@Z 000000018004d7b0 f i wels_preprocess.obj
 0001:0004c7b0       ??_GCWelsPreProcess@WelsEnc@@UEAAPEAXI@Z 000000018004d7b0 f i wels_preprocess.obj
 0001:0004c7b0       ??_GCWelsPreProcessScreen@WelsEnc@@UEAAPEAXI@Z 000000018004d7b0 f i wels_preprocess.obj
 0001:0004c7b0       ??_GCWelsPreProcessVideo@WelsEnc@@UEAAPEAXI@Z 000000018004d7b0 f i wels_preprocess.obj
 0001:0004c7f0       ?AdaptiveQuantCalculation@CWelsPreProcess@WelsEnc@@AEAAXPEAUTagVAAFrameInfo@2@PEAUTagPicture@2@1@Z 000000018004d7f0 f   wels_preprocess.obj
 0001:0004c900       ?AllocSpatialPictures@CWelsPreProcess@WelsEnc@@QEAAHPEAUTagWelsEncCtx@2@PEAUTagWelsSvcCodingParam@2@@Z 000000018004d900 f   wels_preprocess.obj
 0001:0004ca40       ?AnalyzePictureComplexity@CWelsPreProcess@WelsEnc@@QEAAXPEAUTagWelsEncCtx@2@PEAUTagPicture@2@1H_N@Z 000000018004da40 f   wels_preprocess.obj
 0001:0004cdb0       ?AnalyzeSpatialPic@CWelsPreProcess@WelsEnc@@QEAAHPEAUTagWelsEncCtx@2@H@Z 000000018004ddb0 f   wels_preprocess.obj
 0001:0004d020       ?BackgroundDetection@CWelsPreProcess@WelsEnc@@AEAAXPEAUTagVAAFrameInfo@2@PEAUTagPicture@2@1_N@Z 000000018004e020 f   wels_preprocess.obj
 0001:0004d1d0       ?BilateralDenoising@CWelsPreProcess@WelsEnc@@AEAAXPEAUTagPicture@2@HH@Z 000000018004e1d0 f   wels_preprocess.obj
 0001:0004d260       ?BuildSpatialPicList@CWelsPreProcess@WelsEnc@@QEAAHPEAUTagWelsEncCtx@2@PEBUSource_Picture_s@@@Z 000000018004e260 f   wels_preprocess.obj
 0001:0004d3c0       ?CreatePreProcess@CWelsPreProcess@WelsEnc@@SAPEAV12@PEAUTagWelsEncCtx@2@@Z 000000018004e3c0 f   wels_preprocess.obj
 0001:0004d460       ?DetectSceneChange@CWelsPreProcessScreen@WelsEnc@@UEAA?AW4ESceneChangeIdc@@PEAUTagPicture@2@0@Z 000000018004e460 f   wels_preprocess.obj
 0001:0004d930       ?DetectSceneChange@CWelsPreProcessVideo@WelsEnc@@UEAA?AW4ESceneChangeIdc@@PEAUTagPicture@2@0@Z 000000018004e930 f   wels_preprocess.obj
 0001:0004da30       ?DownsamplePadding@CWelsPreProcess@WelsEnc@@AEAAHPEAUTagPicture@2@0HHHHHH_N@Z 000000018004ea30 f   wels_preprocess.obj
 0001:0004dc30       ?FreeScaledPic@WelsEnc@@YAXPEAUScaled_Picture@1@PEAVCMemoryAlign@WelsCommon@@@Z 000000018004ec30 f   wels_preprocess.obj
 0001:0004dc60       ?FreeSpatialPictures@CWelsPreProcess@WelsEnc@@QEAAXPEAUTagWelsEncCtx@2@@Z 000000018004ec60 f   wels_preprocess.obj
 0001:0004dd40       ?GetAvailableRefList@CWelsPreProcessScreen@WelsEnc@@AEAAXPEAPEAUTagPicture@2@EHPEAUSRefInfoParam@2@AEAH2@Z 000000018004ed40 f   wels_preprocess.obj
 0001:0004ddd0       ?GetAvailableRefListLosslessScreenRefSelection@CWelsPreProcessScreen@WelsEnc@@AEAAXPEAPEAUTagPicture@2@EHPEAUSRefInfoParam@2@AEAH2@Z 000000018004edd0 f   wels_preprocess.obj
 0001:0004df30       ?GetBestRefPic@CWelsPreProcess@WelsEnc@@AEAAPEAUTagPicture@2@HH@Z 000000018004ef30 f   wels_preprocess.obj
 0001:0004df50       ?GetBestRefPic@CWelsPreProcess@WelsEnc@@AEAAPEAUTagPicture@2@W4EUsageType@@_NW4EWelsSliceType@WelsCommon@@HH@Z 000000018004ef50 f   wels_preprocess.obj
 0001:0004df80       ?GetCurPicPosition@CWelsPreProcess@WelsEnc@@IEAAHH@Z 000000018004ef80 f   wels_preprocess.obj
 0001:0004df90       ?GetCurrentOrigFrame@CWelsPreProcessScreen@WelsEnc@@UEAAPEAUTagPicture@2@H@Z 000000018004ef90 f   wels_preprocess.obj
 0001:0004dfb0       ?GetCurrentOrigFrame@CWelsPreProcessVideo@WelsEnc@@UEAAPEAUTagPicture@2@H@Z 000000018004efb0 f   wels_preprocess.obj
 0001:0004dff0       ?GetRefFrameInfo@CWelsPreProcess@WelsEnc@@QEAAHH_NAEAPEAUTagPicture@2@@Z 000000018004eff0 f   wels_preprocess.obj
 0001:0004e060       ?GetReferenceSrcPicList@CWelsPreProcessScreen@WelsEnc@@AEAAPEAPEAUTagPicture@2@H@Z 000000018004f060 f   wels_preprocess.obj
 0001:0004e080       ?GetSceneChangeFlag@CWelsPreProcess@WelsEnc@@IEAA_NW4ESceneChangeIdc@@@Z 000000018004f080 f   wels_preprocess.obj
 0001:0004e090       ?InitLastSpatialPictures@CWelsPreProcess@WelsEnc@@AEAAHPEAUTagWelsEncCtx@2@@Z 000000018004f090 f   wels_preprocess.obj
 0001:0004e160       ?InitPixMap@CWelsPreProcess@WelsEnc@@IEAAXPEBUTagPicture@2@PEAUSPixMap@@@Z 000000018004f160 f   wels_preprocess.obj
 0001:0004e1b0       ?InitRefJudgement@CWelsPreProcessScreen@WelsEnc@@AEAAXPEAUSRefJudgement@2@@Z 000000018004f1b0 f   wels_preprocess.obj
 0001:0004e1e0       ?JudgeBestRef@CWelsPreProcessScreen@WelsEnc@@AEAA_NPEAUTagPicture@2@AEBUSRefJudgement@2@_J_N@Z 000000018004f1e0 f   wels_preprocess.obj
 0001:0004e210       ?JudgeNeedOfScaling@WelsEnc@@YA_NPEAUTagWelsSvcCodingParam@1@PEAUScaled_Picture@1@@Z 000000018004f210 f   wels_preprocess.obj
 0001:0004e2f0       ?Padding@CWelsPreProcess@WelsEnc@@AEAAXPEAE00HHHHHH@Z 000000018004f2f0 f   wels_preprocess.obj
 0001:0004e480       ?SaveBestRefToJudgement@CWelsPreProcessScreen@WelsEnc@@AEAAXH_JPEAUSRefJudgement@2@@Z 000000018004f480 f   wels_preprocess.obj
 0001:0004e4c0       ?SaveBestRefToLocal@CWelsPreProcessScreen@WelsEnc@@AEAAXPEAUSRefInfoParam@2@AEBUSSceneChangeResult@@0@Z 000000018004f4c0 f   wels_preprocess.obj
 0001:0004e4e0       ?SaveBestRefToVaa@CWelsPreProcessScreen@WelsEnc@@AEAAXAEAUSRefInfoParam@2@PEAU32@@Z 000000018004f4e0 f   wels_preprocess.obj
 0001:0004e500       ?SetRefMbType@CWelsPreProcess@WelsEnc@@AEAAXPEAUTagWelsEncCtx@2@PEAPEAIH@Z 000000018004f500 f   wels_preprocess.obj
 0001:0004e5b0       ?SingleLayerPreprocess@CWelsPreProcess@WelsEnc@@AEAAHPEAUTagWelsEncCtx@2@PEBUSource_Picture_s@@PEAUScaled_Picture@2@@Z 000000018004f5b0 f   wels_preprocess.obj
 0001:0004ea80       ?UpdateBlockIdcForScreen@CWelsPreProcess@WelsEnc@@QEAAHPEAEPEBUTagPicture@2@1@Z 000000018004fa80 f   wels_preprocess.obj
 0001:0004eb90       ?UpdateSpatialPictures@CWelsPreProcess@WelsEnc@@QEAAHPEAUTagWelsEncCtx@2@PEAUTagWelsSvcCodingParam@2@CH@Z 000000018004fb90 f   wels_preprocess.obj
 0001:0004ecc0       ?UpdateSrcList@CWelsPreProcess@WelsEnc@@QEAAXPEAUTagPicture@2@HPEAPEAU32@I@Z 000000018004fcc0 f   wels_preprocess.obj
 0001:0004ee90       ?UpdateSrcListLosslessScreenRefSelectionWithLtr@CWelsPreProcess@WelsEnc@@QEAAXPEAUTagPicture@2@HHPEAPEAU32@@Z 000000018004fe90 f   wels_preprocess.obj
 0001:0004f210       ?VaaCalculation@CWelsPreProcess@WelsEnc@@AEAAXPEAUTagVAAFrameInfo@2@PEAUTagPicture@2@1_N22@Z 0000000180050210 f   wels_preprocess.obj
 0001:0004f320       ?WelsExchangeSpatialPictures@CWelsPreProcess@WelsEnc@@AEAAXPEAPEAUTagPicture@2@0@Z 0000000180050320 f   wels_preprocess.obj
 0001:0004f330       ?WelsInitScaledPic@WelsEnc@@YAHPEAUTagWelsSvcCodingParam@1@PEAUScaled_Picture@1@PEAVCMemoryAlign@WelsCommon@@@Z 0000000180050330 f   wels_preprocess.obj
 0001:0004f3f0       ?WelsMemcpy@WelsEnc@@YAPEAXPEAXPEBXI@Z 00000001800503f0 f   wels_preprocess.obj
 0001:0004f400       ?WelsMoveMemoryWrapper@CWelsPreProcess@WelsEnc@@AEAAXPEAUTagWelsSvcCodingParam@2@PEAUTagPicture@2@PEBUSource_Picture_s@@HH@Z 0000000180050400 f   wels_preprocess.obj
 0001:0004f660       ?WelsMoveMemory_c@WelsEnc@@YAXPEAE00HH000HHHH@Z 0000000180050660 f   wels_preprocess.obj
 0001:0004f770       ?WelsPreprocessCreate@CWelsPreProcess@WelsEnc@@AEAAHXZ 0000000180050770 f   wels_preprocess.obj
 0001:0004f7c0       ?WelsPreprocessDestroy@CWelsPreProcess@WelsEnc@@AEAAHXZ 00000001800507c0 f   wels_preprocess.obj
 0001:0004f7f0       ?WelsPreprocessReset@CWelsPreProcess@WelsEnc@@QEAAHPEAUTagWelsEncCtx@2@HH@Z 00000001800507f0 f   wels_preprocess.obj
 0001:0004f8a0       ??1CWelsBaseTask@WelsEnc@@UEAA@XZ 00000001800508a0 f   wels_task_base.obj
 0001:0004f8b0       ??_EIWelsTask@WelsCommon@@UEAAPEAXI@Z 00000001800508b0 f i wels_task_base.obj
 0001:0004f8b0       ??_GIWelsTask@WelsCommon@@UEAAPEAXI@Z 00000001800508b0 f i wels_task_base.obj
 0001:0004f8e0       ??0CWelsSliceEncodingTask@WelsEnc@@QEAA@PEAVIWelsTaskSink@WelsCommon@@PEAUTagWelsEncCtx@1@H@Z 00000001800508e0 f   wels_task_encoder.obj
 0001:0004f910       ??0CWelsUpdateMbMapTask@WelsEnc@@QEAA@PEAVIWelsTaskSink@WelsCommon@@PEAUTagWelsEncCtx@1@H@Z 0000000180050910 f   wels_task_encoder.obj
 0001:0004f930       ??1CWelsSliceEncodingTask@WelsEnc@@UEAA@XZ 0000000180050930 f   wels_task_encoder.obj
 0001:0004f940       ??1CWelsUpdateMbMapTask@WelsEnc@@UEAA@XZ 0000000180050940 f   wels_task_encoder.obj
 0001:0004f950       ??_ECWelsSliceEncodingTask@WelsEnc@@UEAAPEAXI@Z 0000000180050950 f i wels_task_encoder.obj
 0001:0004f950       ??_GCWelsSliceEncodingTask@WelsEnc@@UEAAPEAXI@Z 0000000180050950 f i wels_task_encoder.obj
 0001:0004f990       ??_ECWelsUpdateMbMapTask@WelsEnc@@UEAAPEAXI@Z 0000000180050990 f i wels_task_encoder.obj
 0001:0004f990       ??_GCWelsUpdateMbMapTask@WelsEnc@@UEAAPEAXI@Z 0000000180050990 f i wels_task_encoder.obj
 0001:0004f9d0       ?Execute@CWelsSliceEncodingTask@WelsEnc@@UEAAHXZ 00000001800509d0 f   wels_task_encoder.obj
 0001:0004fa10       ?Execute@CWelsUpdateMbMapTask@WelsEnc@@UEAAHXZ 0000000180050a10 f   wels_task_encoder.obj
 0001:0004fa40       ?ExecuteTask@CWelsConstrainedSizeSlicingEncodingTask@WelsEnc@@UEAAHXZ 0000000180050a40 f   wels_task_encoder.obj
 0001:0004fdd0       ?ExecuteTask@CWelsSliceEncodingTask@WelsEnc@@UEAAHXZ 0000000180050dd0 f   wels_task_encoder.obj
 0001:0004ff30       ?FinishTask@CWelsLoadBalancingSlicingEncodingTask@WelsEnc@@UEAAXXZ 0000000180050f30 f   wels_task_encoder.obj
 0001:0004ffe0       ?FinishTask@CWelsSliceEncodingTask@WelsEnc@@UEAAXXZ 0000000180050fe0 f   wels_task_encoder.obj
 0001:00050080       ?GetTaskType@CWelsUpdateMbMapTask@WelsEnc@@UEBAIXZ 0000000180051080 f i wels_task_encoder.obj
 0001:00050080       DllMain                    0000000180051080 f i LIBCMT:dll_dllmain_stub.obj
 0001:00050080       _get_startup_argv_mode     0000000180051080 f i LIBCMT:argv_mode.obj
 0001:00050090       ?InitTask@CWelsLoadBalancingSlicingEncodingTask@WelsEnc@@UEAAHXZ 0000000180051090 f   wels_task_encoder.obj
 0001:000500e0       ?InitTask@CWelsSliceEncodingTask@WelsEnc@@UEAAHXZ 00000001800510e0 f   wels_task_encoder.obj
 0001:00050230       ?QueryEmptyThread@CWelsSliceEncodingTask@WelsEnc@@IEAAHPEA_N@Z 0000000180051230 f   wels_task_encoder.obj
 0001:000502e0       ??0CWelsTaskManageBase@WelsEnc@@QEAA@XZ 00000001800512e0 f   wels_task_management.obj
 0001:00050420       ??1CWelsAutoLock@WelsCommon@@UEAA@XZ 0000000180051420 f i wels_task_management.obj
 0001:00050440       ??1CWelsLock@WelsCommon@@UEAA@XZ 0000000180051440 f i wels_task_management.obj
 0001:00050460       ??1CWelsTaskManageBase@WelsEnc@@UEAA@XZ 0000000180051460 f   wels_task_management.obj
 0001:000504b0       ??1IWelsTaskManage@WelsEnc@@UEAA@XZ 00000001800514b0 f i wels_task_management.obj
 0001:000504c0       ??_ECWelsAutoLock@WelsCommon@@UEAAPEAXI@Z 00000001800514c0 f i wels_task_management.obj
 0001:000504c0       ??_GCWelsAutoLock@WelsCommon@@UEAAPEAXI@Z 00000001800514c0 f i wels_task_management.obj
 0001:00050510       ??_ECWelsConstrainedSizeSlicingEncodingTask@WelsEnc@@UEAAPEAXI@Z 0000000180051510 f i wels_task_management.obj
 0001:00050510       ??_ECWelsLoadBalancingSlicingEncodingTask@WelsEnc@@UEAAPEAXI@Z 0000000180051510 f i wels_task_management.obj
 0001:00050510       ??_GCWelsConstrainedSizeSlicingEncodingTask@WelsEnc@@UEAAPEAXI@Z 0000000180051510 f i wels_task_management.obj
 0001:00050510       ??_GCWelsLoadBalancingSlicingEncodingTask@WelsEnc@@UEAAPEAXI@Z 0000000180051510 f i wels_task_management.obj
 0001:00050550       ??_ECWelsLock@WelsCommon@@UEAAPEAXI@Z 0000000180051550 f i wels_task_management.obj
 0001:00050550       ??_GCWelsLock@WelsCommon@@UEAAPEAXI@Z 0000000180051550 f i wels_task_management.obj
 0001:000505a0       ??_ECWelsTaskManageBase@WelsEnc@@UEAAPEAXI@Z 00000001800515a0 f i wels_task_management.obj
 0001:000505a0       ??_GCWelsTaskManageBase@WelsEnc@@UEAAPEAXI@Z 00000001800515a0 f i wels_task_management.obj
 0001:000505e0       ??_EIWelsTaskManage@WelsEnc@@UEAAPEAXI@Z 00000001800515e0 f i wels_task_management.obj
 0001:000505e0       ??_GIWelsTaskManage@WelsEnc@@UEAAPEAXI@Z 00000001800515e0 f i wels_task_management.obj
 0001:00050610       ?CreateTaskManage@IWelsTaskManage@WelsEnc@@SAPEAV12@PEAUTagWelsEncCtx@2@H_N@Z 0000000180051610 f   wels_task_management.obj
 0001:00050690       ?CreateTasks@CWelsTaskManageBase@WelsEnc@@MEAAHPEAUTagWelsEncCtx@2@H@Z 0000000180051690 f   wels_task_management.obj
 0001:000508b0       ?DestroyTaskList@CWelsTaskManageBase@WelsEnc@@AEAAXPEAV?$CWelsNonDuplicatedList@VCWelsBaseTask@WelsEnc@@@WelsCommon@@@Z 00000001800518b0 f   wels_task_management.obj
 0001:00050930       ?DestroyTasks@CWelsTaskManageBase@WelsEnc@@AEAAXXZ 0000000180051930 f   wels_task_management.obj
 0001:00050a10       ?ExecuteTaskList@CWelsTaskManageBase@WelsEnc@@IEAAHPEAPEAV?$CWelsNonDuplicatedList@VCWelsBaseTask@WelsEnc@@@WelsCommon@@@Z 0000000180051a10 f   wels_task_management.obj
 0001:00050ad0       ?ExecuteTasks@CWelsTaskManageBase@WelsEnc@@UEAAHW4ETaskType@CWelsBaseTask@2@@Z 0000000180051ad0 f   wels_task_management.obj
 0001:00050af0       ?GetThreadPoolThreadNum@CWelsTaskManageBase@WelsEnc@@UEAAHXZ 0000000180051af0 f   wels_task_management.obj
 0001:00050b00       ?Init@CWelsTaskManageBase@WelsEnc@@UEAAHPEAUTagWelsEncCtx@2@@Z 0000000180051b00 f   wels_task_management.obj
 0001:00050c50       ?InitFrame@CWelsTaskManageBase@WelsEnc@@UEAAXH@Z 0000000180051c50 f   wels_task_management.obj
 0001:00050c80       ?InitStorage@?$CWelsList@VCWelsBaseTask@WelsEnc@@@WelsCommon@@AEAAXPEAU?$SNode@VCWelsBaseTask@WelsEnc@@@2@H@Z 0000000180051c80 f i wels_task_management.obj
 0001:00050c80       ?InitStorage@?$CWelsList@VCWelsTaskThread@WelsCommon@@@WelsCommon@@AEAAXPEAU?$SNode@VCWelsTaskThread@WelsCommon@@@2@H@Z 0000000180051c80 f i WelsThreadPool.obj
 0001:00050c80       ?InitStorage@?$CWelsList@VIWelsTask@WelsCommon@@@WelsCommon@@AEAAXPEAU?$SNode@VIWelsTask@WelsCommon@@@2@H@Z 0000000180051c80 f i WelsThreadPool.obj
 0001:00050d20       ?OnTaskCancelled@CWelsTaskManageBase@WelsEnc@@UEAAHXZ 0000000180051d20 f   wels_task_management.obj
 0001:00050d20       ?OnTaskExecuted@CWelsTaskManageBase@WelsEnc@@UEAAHXZ 0000000180051d20 f   wels_task_management.obj
 0001:00050d40       ?OnTaskMinusOne@CWelsTaskManageBase@WelsEnc@@AEAAXXZ 0000000180051d40 f   wels_task_management.obj
 0001:00050d90       ?Uninit@CWelsTaskManageBase@WelsEnc@@EEAAXXZ 0000000180051d90 f   wels_task_management.obj
 0001:00050fe0       ?push_back@?$CWelsList@VCWelsBaseTask@WelsEnc@@@WelsCommon@@QEAA_NPEAVCWelsBaseTask@WelsEnc@@@Z 0000000180051fe0 f i wels_task_management.obj
 0001:00050fe0       ?push_back@?$CWelsList@VCWelsTaskThread@WelsCommon@@@WelsCommon@@QEAA_NPEAVCWelsTaskThread@2@@Z 0000000180051fe0 f i WelsThreadPool.obj
 0001:00050fe0       ?push_back@?$CWelsList@VIWelsTask@WelsCommon@@@WelsCommon@@QEAA_NPEAVIWelsTask@2@@Z 0000000180051fe0 f i WelsThreadPool.obj
 0001:00051140       ??0CWelsH264SVCEncoder@WelsEnc@@QEAA@XZ 0000000180052140 f   welsEncoderExt.obj
 0001:00051180       ??1CWelsH264SVCEncoder@WelsEnc@@UEAA@XZ 0000000180052180 f   welsEncoderExt.obj
 0001:00051200       ??1ISVCEncoder@@UEAA@XZ    0000000180052200 f i welsEncoderExt.obj
 0001:00051210       ??_ECWelsH264SVCEncoder@WelsEnc@@UEAAPEAXI@Z 0000000180052210 f i welsEncoderExt.obj
 0001:00051210       ??_GCWelsH264SVCEncoder@WelsEnc@@UEAAPEAXI@Z 0000000180052210 f i welsEncoderExt.obj
 0001:00051250       ??_EISVCEncoder@@UEAAPEAXI@Z 0000000180052250 f i welsEncoderExt.obj
 0001:00051250       ??_GISVCEncoder@@UEAAPEAXI@Z 0000000180052250 f i welsEncoderExt.obj
 0001:00051280       ?EncodeFrame@CWelsH264SVCEncoder@WelsEnc@@UEAAHPEBUSource_Picture_s@@PEAUSFrameBSInfo@@@Z 0000000180052280 f   welsEncoderExt.obj
 0001:00051340       ?EncodeFrameInternal@CWelsH264SVCEncoder@WelsEnc@@UEAAHPEBUSource_Picture_s@@PEAUSFrameBSInfo@@@Z 0000000180052340 f   welsEncoderExt.obj
 0001:00051480       ?EncodeParameterSets@CWelsH264SVCEncoder@WelsEnc@@UEAAHPEAUSFrameBSInfo@@@Z 0000000180052480 f   welsEncoderExt.obj
 0001:00051490       ?ForceIntraFrame@CWelsH264SVCEncoder@WelsEnc@@UEAAH_NH@Z 0000000180052490 f   welsEncoderExt.obj
 0001:000514f0       ?GetDefaultParams@CWelsH264SVCEncoder@WelsEnc@@UEAAHPEAUTagEncParamExt@@@Z 00000001800524f0 f   welsEncoderExt.obj
 0001:00051510       ?GetOption@CWelsH264SVCEncoder@WelsEnc@@UEAAHW4ENCODER_OPTION@@PEAX@Z 0000000180052510 f   welsEncoderExt.obj
 0001:00051900       ?InitEncoder@CWelsH264SVCEncoder@WelsEnc@@AEAAXXZ 0000000180052900 f   welsEncoderExt.obj
 0001:00051950       ?Initialize@CWelsH264SVCEncoder@WelsEnc@@UEAAHPEBUTagEncParamBase@@@Z 0000000180052950 f   welsEncoderExt.obj
 0001:00051aa0       ?InitializeExt@CWelsH264SVCEncoder@WelsEnc@@UEAAHPEBUTagEncParamExt@@@Z 0000000180052aa0 f   welsEncoderExt.obj
 0001:00051bf0       ?InitializeInternal@CWelsH264SVCEncoder@WelsEnc@@AEAAHPEAUTagWelsSvcCodingParam@2@@Z 0000000180052bf0 f   welsEncoderExt.obj
 0001:00051f00       ?LogStatistics@CWelsH264SVCEncoder@WelsEnc@@AEAAX_JH@Z 0000000180052f00 f   welsEncoderExt.obj
 0001:00052020       ?ParamBaseTranscode@TagWelsSvcCodingParam@WelsEnc@@QEAAHAEBUTagEncParamBase@@@Z 0000000180053020 f i welsEncoderExt.obj
 0001:00052180       ?ParamTranscode@TagWelsSvcCodingParam@WelsEnc@@QEAAHAEBUTagEncParamExt@@@Z 0000000180053180 f i welsEncoderExt.obj
 0001:000527f0       ?SetActualPicResolution@TagWelsSvcCodingParam@WelsEnc@@QEAAXXZ 00000001800537f0 f i welsEncoderExt.obj
 0001:00052860       ?SetOption@CWelsH264SVCEncoder@WelsEnc@@UEAAHW4ENCODER_OPTION@@PEAX@Z 0000000180053860 f   welsEncoderExt.obj
 0001:000535f0       ?TraceParamInfo@CWelsH264SVCEncoder@WelsEnc@@AEAAXPEAUTagEncParamExt@@@Z 00000001800545f0 f   welsEncoderExt.obj
 0001:000538c0       ?Uninitialize@CWelsH264SVCEncoder@WelsEnc@@UEAAHXZ 00000001800548c0 f   welsEncoderExt.obj
 0001:00053920       ?UpdateStatistics@CWelsH264SVCEncoder@WelsEnc@@AEAAXPEAUSFrameBSInfo@@_J@Z 0000000180054920 f   welsEncoderExt.obj
 0001:00053e40       WelsCreateSVCEncoder       0000000180054e40 f   welsEncoderExt.obj
 0001:00053e90       WelsDestroySVCEncoder      0000000180054e90 f   welsEncoderExt.obj
 0001:00053eb0       WelsGetCodecVersion        0000000180054eb0 f   welsEncoderExt.obj
 0001:00053ec0       WelsGetCodecVersionEx      0000000180054ec0 f   welsEncoderExt.obj
 0001:000544c0       ?CheckAccessUnitBoundary@WelsDec@@YA_NPEAUTagWelsDecoderContext@1@QEAUTagNalUnit@1@1QEAUTagSps@1@@Z 00000001800554c0 f   au_parser.obj
 0001:000545b0       ?CheckAccessUnitBoundaryExt@WelsDec@@YA_NPEAUTagNalUnitHeaderExt@WelsCommon@@0PEAUTagSliceHeaders@1@1@Z 00000001800555b0 f   au_parser.obj
 0001:00054710       ?CheckNextAuNewSeq@WelsDec@@YA_NPEAUTagWelsDecoderContext@1@QEAUTagNalUnit@1@QEAUTagSps@1@@Z 0000000180055710 f   au_parser.obj
 0001:00054740       ?CheckSpsActive@WelsDec@@YA_NPEAUTagWelsDecoderContext@1@PEAUTagSps@1@_N@Z 0000000180055740 f   au_parser.obj
 0001:00054850       ?DecodeSpsSvcExt@WelsDec@@YAHPEAUTagWelsDecoderContext@1@PEAUTagSubsetSps@1@PEAUTagBitStringAux@WelsCommon@@@Z 0000000180055850 f   au_parser.obj
 0001:00054e10       ?DetectStartCodePrefix@WelsDec@@YAPEAEPEBEPEAHH@Z 0000000180055e10 f   au_parser.obj
 0001:00054e50       ?GetLevelLimits@WelsDec@@YAPEBUTagLevelLimits@WelsCommon@@H_N@Z 0000000180055e50 f   au_parser.obj
 0001:00054f90       ?ParseNalHeader@WelsDec@@YAPEAEPEAUTagWelsDecoderContext@1@PEAUTagNalUnitHeader@WelsCommon@@PEAEH2HPEAH@Z 0000000180055f90 f   au_parser.obj
 0001:00055820       ?ParseNonVclNal@WelsDec@@YAHPEAUTagWelsDecoderContext@1@PEAEH1H@Z 0000000180056820 f   au_parser.obj
 0001:000559b0       ?ParsePps@WelsDec@@YAHPEAUTagWelsDecoderContext@1@PEAUTagPps@1@PEAUTagBitStringAux@WelsCommon@@PEAEH@Z 00000001800569b0 f   au_parser.obj
 0001:00056430       ?ParsePrefixNalUnit@WelsDec@@YAHPEAUTagWelsDecoderContext@1@PEAUTagBitStringAux@WelsCommon@@@Z 0000000180057430 f   au_parser.obj
 0001:000565f0       ?ParseRefBasePicMarking@WelsDec@@YAHPEAUTagBitStringAux@WelsCommon@@PEAUTagRefBasePicMarkingSyn@1@@Z 00000001800575f0 f   au_parser.obj
 0001:00056d50       ?ParseScalingList@WelsDec@@YAHPEAUTagSps@1@PEAUTagBitStringAux@WelsCommon@@_N_NPEA_NPEAY0BA@EPEAY0EA@E@Z 0000000180057d50 f   au_parser.obj
 0001:00057090       ?ParseSps@WelsDec@@YAHPEAUTagWelsDecoderContext@1@PEAUTagBitStringAux@WelsCommon@@PEAH2PEAEH@Z 0000000180058090 f   au_parser.obj
 0001:00058da0       ?ParseVui@WelsDec@@YAHPEAUTagWelsDecoderContext@1@PEAUTagSps@1@PEAUTagBitStringAux@WelsCommon@@@Z 0000000180059da0 f   au_parser.obj
 0001:00059e40       ?ResetFmoList@WelsDec@@YAHPEAUTagWelsDecoderContext@1@@Z 000000018005ae40 f   au_parser.obj
 0001:00059e90       ?SetScalingListValue@WelsDec@@YAHPEAEHPEA_NPEAUTagBitStringAux@WelsCommon@@@Z 000000018005ae90 f   au_parser.obj
 0001:00059f90       ?DecInitBits@WelsDec@@YAHPEAUTagBitStringAux@WelsCommon@@PEBEH@Z 000000018005af90 f   bit_stream.obj
 0001:00059fd0       ?InitReadBits@WelsDec@@YAHPEAUTagBitStringAux@WelsCommon@@_J@Z 000000018005afd0 f   bit_stream.obj
 0001:0005a030       ?RBSP2EBSP@WelsDec@@YAXPEAE0H@Z 000000018005b030 f   bit_stream.obj
 0001:0005a070       ?DecodeBinCabac@WelsDec@@YAHPEAUSWelsCabacDecEngine@1@PEAUSWels_Cabac_Element@1@AEAI@Z 000000018005b070 f   cabac_decoder.obj
 0001:0005a1a0       ?DecodeBypassCabac@WelsDec@@YAHPEAUSWelsCabacDecEngine@1@AEAI@Z 000000018005b1a0 f   cabac_decoder.obj
 0001:0005a260       ?DecodeExpBypassCabac@WelsDec@@YAHPEAUSWelsCabacDecEngine@1@HAEAI@Z 000000018005b260 f   cabac_decoder.obj
 0001:0005a310       ?DecodeTerminateCabac@WelsDec@@YAHPEAUSWelsCabacDecEngine@1@AEAI@Z 000000018005b310 f   cabac_decoder.obj
 0001:0005a3d0       ?DecodeUEGLevelCabac@WelsDec@@YAIPEAUSWelsCabacDecEngine@1@PEAUSWels_Cabac_Element@1@AEAI@Z 000000018005b3d0 f   cabac_decoder.obj
 0001:0005a470       ?DecodeUEGMvCabac@WelsDec@@YAHPEAUSWelsCabacDecEngine@1@PEAUSWels_Cabac_Element@1@IAEAI@Z 000000018005b470 f   cabac_decoder.obj
 0001:0005a510       ?DecodeUnaryBinCabac@WelsDec@@YAHPEAUSWelsCabacDecEngine@1@PEAUSWels_Cabac_Element@1@HAEAI@Z 000000018005b510 f   cabac_decoder.obj
 0001:0005a590       ?InitCabacDecEngineFromBS@WelsDec@@YAHPEAUSWelsCabacDecEngine@1@PEAUTagBitStringAux@WelsCommon@@@Z 000000018005b590 f   cabac_decoder.obj
 0001:0005a630       ?Read32BitsCabac@WelsDec@@YAHPEAUSWelsCabacDecEngine@1@AEAIAEAH@Z 000000018005b630 f   cabac_decoder.obj
 0001:0005a6f0       ?RestoreCabacDecEngineToBS@WelsDec@@YAXPEAUSWelsCabacDecEngine@1@PEAUTagBitStringAux@WelsCommon@@@Z 000000018005b6f0 f   cabac_decoder.obj
 0001:0005a720       ?WelsCabacContextInit@WelsDec@@YAXPEAUTagWelsDecoderContext@1@EHH@Z 000000018005b720 f   cabac_decoder.obj
 0001:0005a800       ?WelsCabacGlobalInit@WelsDec@@YAXPEAUTagWelsDecoderContext@1@@Z 000000018005b800 f   cabac_decoder.obj
 0001:0005a8e0       ?DeblockingAvailableNoInterlayer@WelsDec@@YAHPEAUTagDqLayer@1@H@Z 000000018005b8e0 f   deblocking.obj
 0001:000612e0       ?DeblockingBSliceBsMarginalMBAvcbase@WelsDec@@YAIPEAUtagDeblockingFilter@1@PEAUTagDqLayer@1@HHH@Z 00000001800622e0 f   deblocking.obj
 0001:00062490       ?DeblockingBsMarginalMBAvcbase@WelsDec@@YAIPEAUtagDeblockingFilter@1@PEAUTagDqLayer@1@HHH@Z 0000000180063490 f   deblocking.obj
 0001:00062d90       ?DeblockingInit@WelsDec@@YAXPEAUTagDeblockingFunc@1@H@Z 0000000180063d90 f   deblocking.obj
 0001:00063270       ?FilteringEdgeChromaH@WelsDec@@YAXPEAUtagDeblockingFilter@1@PEAE1H1@Z 0000000180064270 f   deblocking.obj
 0001:000634e0       ?FilteringEdgeChromaHV@WelsDec@@YAXPEAUTagDqLayer@1@PEAUtagDeblockingFilter@1@H@Z 00000001800644e0 f   deblocking.obj
 0001:00063c80       ?FilteringEdgeChromaIntraH@WelsDec@@YAXPEAUtagDeblockingFilter@1@PEAE1H1@Z 0000000180064c80 f   deblocking.obj
 0001:00063d90       ?FilteringEdgeChromaIntraV@WelsDec@@YAXPEAUtagDeblockingFilter@1@PEAE1H1@Z 0000000180064d90 f   deblocking.obj
 0001:00063ea0       ?FilteringEdgeChromaV@WelsDec@@YAXPEAUtagDeblockingFilter@1@PEAE1H1@Z 0000000180064ea0 f   deblocking.obj
 0001:00064110       ?FilteringEdgeLumaH@WelsDec@@YAXPEAUtagDeblockingFilter@1@PEAEH1@Z 0000000180065110 f   deblocking.obj
 0001:00064200       ?FilteringEdgeLumaHV@WelsDec@@YAXPEAUTagDqLayer@1@PEAUtagDeblockingFilter@1@H@Z 0000000180065200 f   deblocking.obj
 0001:00064470       ?FilteringEdgeLumaIntraH@WelsDec@@YAXPEAUtagDeblockingFilter@1@PEAEH1@Z 0000000180065470 f   deblocking.obj
 0001:000644d0       ?FilteringEdgeLumaIntraV@WelsDec@@YAXPEAUtagDeblockingFilter@1@PEAEH1@Z 00000001800654d0 f   deblocking.obj
 0001:00064530       ?FilteringEdgeLumaV@WelsDec@@YAXPEAUtagDeblockingFilter@1@PEAEH1@Z 0000000180065530 f   deblocking.obj
 0001:00064630       ?GetPNzc@WelsDec@@YAPEACPEAUTagDqLayer@1@H@Z 0000000180065630 f i deblocking.obj
 0001:00064670       ?WelsDeblockingFilterMB@WelsDec@@YAXPEAUTagDqLayer@1@AEAUtagDeblockingFilter@1@AEAHP6AX0PEAU31@H@Z@Z 0000000180065670 f   deblocking.obj
 0001:000646c0       ?WelsDeblockingFilterSlice@WelsDec@@YAXPEAUTagWelsDecoderContext@1@P6AXPEAUTagDqLayer@1@PEAUtagDeblockingFilter@1@H@Z@Z 00000001800656c0 f   deblocking.obj
 0001:00064870       ?WelsDeblockingInitFilter@WelsDec@@YAXPEAUTagWelsDecoderContext@1@AEAUtagDeblockingFilter@1@AEAH@Z 0000000180065870 f   deblocking.obj
 0001:00064920       ?WelsDeblockingMb@WelsDec@@YAXPEAUTagDqLayer@1@PEAUtagDeblockingFilter@1@H@Z 0000000180065920 f   deblocking.obj
 0001:00064d90       ?GetI4LumaIChromaAddrTable@WelsDec@@YAXPEAHHH@Z 0000000180065d90 f   decode_mb_aux.obj
 0001:00064f80       ?IdctResAddPred8x8_c@WelsDec@@YAXPEAEHPEAF@Z 0000000180065f80 f   decode_mb_aux.obj
 0001:00065490       ?IdctResAddPred_c@WelsDec@@YAXPEAEHPEAF@Z 0000000180066490 f   decode_mb_aux.obj
 0001:00065890       ?ComputeColocatedTemporalScaling@WelsDec@@YA_NPEAUTagWelsDecoderContext@1@@Z 0000000180066890 f   decode_slice.obj
 0001:000659c0       ?ParseIntra16x16Mode@WelsDec@@YAHPEAUTagWelsDecoderContext@1@PEAUTagNeighborAvail@1@PEAUTagBitStringAux@WelsCommon@@PEAUTagDqLayer@1@@Z 00000001800669c0 f   decode_slice.obj
 0001:00065ae0       ?ParseIntra4x4Mode@WelsDec@@YAHPEAUTagWelsDecoderContext@1@PEAUTagNeighborAvail@1@PEACPEAUTagBitStringAux@WelsCommon@@PEAUTagDqLayer@1@@Z 0000000180066ae0 f   decode_slice.obj
 0001:00065e60       ?ParseIntra8x8Mode@WelsDec@@YAHPEAUTagWelsDecoderContext@1@PEAUTagNeighborAvail@1@PEACPEAUTagBitStringAux@WelsCommon@@PEAUTagDqLayer@1@@Z 0000000180066e60 f   decode_slice.obj
 0001:000662a0       ?WelsActualDecodeMbCavlcBSlice@WelsDec@@YAHPEAUTagWelsDecoderContext@1@@Z 00000001800672a0 f   decode_slice.obj
 0001:00067530       ?WelsActualDecodeMbCavlcISlice@WelsDec@@YAHPEAUTagWelsDecoderContext@1@@Z 0000000180068530 f   decode_slice.obj
 0001:00068400       ?WelsActualDecodeMbCavlcPSlice@WelsDec@@YAHPEAUTagWelsDecoderContext@1@@Z 0000000180069400 f   decode_slice.obj
 0001:00069690       ?WelsBlockFuncInit@WelsDec@@YAXPEAUTagBlockFunc@1@H@Z 000000018006a690 f   decode_slice.obj
 0001:000696e0       ?WelsBlockInit@WelsDec@@YAXPEAFHHHE@Z 000000018006a6e0 f   decode_slice.obj
 0001:00069760       ?WelsBlockZero16x16_c@WelsDec@@YAXPEAFH@Z 000000018006a760 f   decode_slice.obj
 0001:00069780       ?WelsBlockZero8x8_c@WelsDec@@YAXPEAFH@Z 000000018006a780 f   decode_slice.obj
 0001:000697a0       ?WelsCalcDeqCoeffScalingList@WelsDec@@YAHPEAUTagWelsDecoderContext@1@@Z 000000018006a7a0 f   decode_slice.obj
 0001:00069fc0       ?WelsChromaDcIdct@WelsDec@@YAXPEAF@Z 000000018006afc0 f   decode_slice.obj
 0001:0006a010       ?WelsDecodeAndConstructSlice@WelsDec@@YAHPEAUTagWelsDecoderContext@1@@Z 000000018006b010 f   decode_slice.obj
 0001:0006a620       ?WelsDecodeMbCabacBSlice@WelsDec@@YAHPEAUTagWelsDecoderContext@1@PEAUTagNalUnit@1@AEAI@Z 000000018006b620 f   decode_slice.obj
 0001:0006a920       ?WelsDecodeMbCabacBSliceBaseMode0@WelsDec@@YAHPEAUTagWelsDecoderContext@1@PEAUTagNeighborAvail@1@AEAI@Z 000000018006b920 f   decode_slice.obj
 0001:0006b820       ?WelsDecodeMbCabacISlice@WelsDec@@YAHPEAUTagWelsDecoderContext@1@PEAUTagNalUnit@1@AEAI@Z 000000018006c820 f   decode_slice.obj
 0001:0006b830       ?WelsDecodeMbCabacISliceBaseMode0@WelsDec@@YAHPEAUTagWelsDecoderContext@1@AEAI@Z 000000018006c830 f   decode_slice.obj
 0001:0006c520       ?WelsDecodeMbCabacPSlice@WelsDec@@YAHPEAUTagWelsDecoderContext@1@PEAUTagNalUnit@1@AEAI@Z 000000018006d520 f   decode_slice.obj
 0001:0006c9a0       ?WelsDecodeMbCabacPSliceBaseMode0@WelsDec@@YAHPEAUTagWelsDecoderContext@1@PEAUTagNeighborAvail@1@AEAI@Z 000000018006d9a0 f   decode_slice.obj
 0001:0006d880       ?WelsDecodeMbCavlcBSlice@WelsDec@@YAHPEAUTagWelsDecoderContext@1@PEAUTagNalUnit@1@AEAI@Z 000000018006e880 f   decode_slice.obj
 0001:0006dc40       ?WelsDecodeMbCavlcISlice@WelsDec@@YAHPEAUTagWelsDecoderContext@1@PEAUTagNalUnit@1@AEAI@Z 000000018006ec40 f   decode_slice.obj
 0001:0006dda0       ?WelsDecodeMbCavlcPSlice@WelsDec@@YAHPEAUTagWelsDecoderContext@1@PEAUTagNalUnit@1@AEAI@Z 000000018006eda0 f   decode_slice.obj
 0001:0006e240       ?WelsDecodeSlice@WelsDec@@YAHPEAUTagWelsDecoderContext@1@_NPEAUTagNalUnit@1@@Z 000000018006f240 f   decode_slice.obj
 0001:0006e4e0       ?WelsLumaDcDequantIdct@WelsDec@@YAXPEAFHPEAUTagWelsDecoderContext@1@@Z 000000018006f4e0 f   decode_slice.obj
 0001:0006e800       ?WelsMap16x16NeighToSampleConstrain1@WelsDec@@YAXPEAUTagNeighborAvail@1@PEAE@Z 000000018006f800 f   decode_slice.obj
 0001:0006e840       ?WelsMap16x16NeighToSampleNormal@WelsDec@@YAXPEAUTagNeighborAvail@1@PEAE@Z 000000018006f840 f   decode_slice.obj
 0001:0006e860       ?WelsMapNxNNeighToSampleConstrain1@WelsDec@@YAXPEAUTagNeighborAvail@1@PEAH@Z 000000018006f860 f   decode_slice.obj
 0001:0006e8f0       ?WelsMapNxNNeighToSampleNormal@WelsDec@@YAXPEAUTagNeighborAvail@1@PEAH@Z 000000018006f8f0 f   decode_slice.obj
 0001:0006e950       ?WelsMbInterConstruction@WelsDec@@YAHPEAUTagWelsDecoderContext@1@PEAUTagDqLayer@1@@Z 000000018006f950 f   decode_slice.obj
 0001:0006eb00       ?WelsMbInterPrediction@WelsDec@@YAHPEAUTagWelsDecoderContext@1@PEAUTagDqLayer@1@@Z 000000018006fb00 f   decode_slice.obj
 0001:0006ec30       ?WelsMbInterSampleConstruction@WelsDec@@YAHPEAUTagWelsDecoderContext@1@PEAUTagDqLayer@1@PEAE22HH@Z 000000018006fc30 f   decode_slice.obj
 0001:0006ef00       ?WelsMbIntraPredictionConstruction@WelsDec@@YAHPEAUTagWelsDecoderContext@1@PEAUTagDqLayer@1@_N@Z 000000018006ff00 f   decode_slice.obj
 0001:0006efe0       ?WelsTargetMbConstruction@WelsDec@@YAHPEAUTagWelsDecoderContext@1@@Z 000000018006ffe0 f   decode_slice.obj
 0001:0006f0c0       ?WelsTargetSliceConstruction@WelsDec@@YAHPEAUTagWelsDecoderContext@1@@Z 00000001800700c0 f   decode_slice.obj
 0001:0006fbc0       ?WelsCloseDecoder@WelsDec@@YAXPEAUTagWelsDecoderContext@1@@Z 0000000180070bc0 f   decoder.obj
 0001:0006fc00       ?WelsOpenDecoder@WelsDec@@YAHPEAUTagWelsDecoderContext@1@PEAUTagLogContext@@@Z 0000000180070c00 f   decoder.obj
 0001:0006ff10       CopySpsPps                 0000000180070f10 f   decoder.obj
 0001:000700a0       DecoderConfigParam         00000001800710a0 f   decoder.obj
 0001:00070170       DestroyPicBuff             0000000180071170 f   decoder.obj
 0001:00070250       GetVclNalTemporalId        0000000180071250 f   decoder.obj
 0001:00070290       InitDecFuncs               0000000180071290 f   decoder.obj
 0001:000702f0       InitPredFunc               00000001800712f0 f   decoder.obj
 0001:000706f0       ResetDecStatNums           00000001800716f0 f   decoder.obj
 0001:00070750       ResetReorderingPictureBuffers 0000000180071750 f   decoder.obj
 0001:000707c0       SyncPictureResolutionExt   00000001800717c0 f   decoder.obj
 0001:000708e0       UpdateDecStat              00000001800718e0 f   decoder.obj
 0001:00070910       UpdateDecStatFreezingInfo  0000000180071910 f   decoder.obj
 0001:00070920       UpdateDecStatNoFreezingInfo 0000000180071920 f   decoder.obj
 0001:00070c30       WelsDecodeBs               0000000180071c30 f   decoder.obj
 0001:000710a0       WelsDecoderDefaults        00000001800720a0 f   decoder.obj
 0001:000711a0       WelsDecoderLastDecPicInfoDefaults 00000001800721a0 f   decoder.obj
 0001:000711d0       WelsDecoderSpsPpsDefaults  00000001800721d0 f   decoder.obj
 0001:00071240       WelsEndDecoder             0000000180072240 f   decoder.obj
 0001:00071250       WelsFreeDynamicMemory      0000000180072250 f   decoder.obj
 0001:00071350       WelsInitDecoder            0000000180072350 f   decoder.obj
 0001:00071360       WelsRequestMem             0000000180072360 f   decoder.obj
 0001:000715e0       ?AllocPicBuffOnNewSeqBegin@WelsDec@@YAHPEAUTagWelsDecoderContext@1@@Z 00000001800725e0 f   decoder_core.obj
 0001:00071660       ?CheckAndFinishLastPic@WelsDec@@YA_NPEAUTagWelsDecoderContext@1@PEAPEAEPEAUTagBufferInfo@@@Z 0000000180072660 f   decoder_core.obj
 0001:000718a0       ?CheckAvailNalUnitsListContinuity@WelsDec@@YAXPEAUTagWelsDecoderContext@1@HH@Z 00000001800728a0 f   decoder_core.obj
 0001:00071940       ?CheckBsBuffer@WelsDec@@YAHPEAUTagWelsDecoderContext@1@H@Z 0000000180072940 f   decoder_core.obj
 0001:000719c0       ?CheckIntegrityNalUnitsList@WelsDec@@YA_NPEAUTagWelsDecoderContext@1@@Z 00000001800729c0 f   decoder_core.obj
 0001:00071e30       ?CheckOnlyOneLayerInAu@WelsDec@@YAXPEAUTagWelsDecoderContext@1@@Z 0000000180072e30 f   decoder_core.obj
 0001:00071ed0       ?CheckPocOfCurValidNalUnits@WelsDec@@YA_NPEAUTagAccessUnits@1@H@Z 0000000180072ed0 f   decoder_core.obj
 0001:00071f10       ?CheckRefPicturesComplete@WelsDec@@YA_NPEAUTagWelsDecoderContext@1@@Z 0000000180072f10 f   decoder_core.obj
 0001:000721d0       ?ConstructAccessUnit@WelsDec@@YAHPEAUTagWelsDecoderContext@1@PEAPEAEPEAUTagBufferInfo@@@Z 00000001800731d0 f   decoder_core.obj
 0001:000722b0       ?CreateImplicitWeightTable@WelsDec@@YAXPEAUTagWelsDecoderContext@1@@Z 00000001800732b0 f   decoder_core.obj
 0001:000724d0       ?DecodeCurrentAccessUnit@WelsDec@@YAHPEAUTagWelsDecoderContext@1@PEAPEAEPEAUTagBufferInfo@@@Z 00000001800734d0 f   decoder_core.obj
 0001:00073660       ?DecodeFinishUpdate@WelsDec@@YAXPEAUTagWelsDecoderContext@1@@Z 0000000180074660 f   decoder_core.obj
 0001:00073fd0       ?DecodeNalHeaderExt@WelsDec@@YAXPEAUTagNalUnit@1@PEAE@Z 0000000180074fd0 f   decoder_core.obj
 0001:00074060       ?ExpandBsBuffer@WelsDec@@YAHPEAUTagWelsDecoderContext@1@H@Z 0000000180075060 f   decoder_core.obj
 0001:00074230       ?ExpandBsLenBuffer@WelsDec@@YAHPEAUTagWelsDecoderContext@1@H@Z 0000000180075230 f   decoder_core.obj
 0001:00074340       ?FillDefaultSliceHeaderExt@WelsDec@@YA_NPEAUTagSliceHeaderExt@1@PEAUTagNalUnitHeaderExt@WelsCommon@@@Z 0000000180075340 f   decoder_core.obj
 0001:000743b0       ?ForceClearCurrentNal@WelsDec@@YAXPEAUTagAccessUnits@1@@Z 00000001800753b0 f   decoder_core.obj
 0001:000743c0       ?ForceResetCurrentAccessUnit@WelsDec@@YAXPEAUTagAccessUnits@1@@Z 00000001800753c0 f   decoder_core.obj
 0001:00074520       ?InitBsBuffer@WelsDec@@YAHPEAUTagWelsDecoderContext@1@@Z 0000000180075520 f   decoder_core.obj
 0001:000746a0       ?InitConstructAccessUnit@WelsDec@@YAHPEAUTagWelsDecoderContext@1@PEAUTagBufferInfo@@@Z 00000001800756a0 f   decoder_core.obj
 0001:000746d0       ?InitCurDqLayerData@WelsDec@@YAXPEAUTagWelsDecoderContext@1@PEAUTagDqLayer@1@@Z 00000001800756d0 f   decoder_core.obj
 0001:00074860       ?InitRefPicList@WelsDec@@YAHPEAUTagWelsDecoderContext@1@EH@Z 0000000180075860 f   decoder_core.obj
 0001:000748c0       ?InitialDqLayersContext@WelsDec@@YAHPEAUTagWelsDecoderContext@1@HH@Z 00000001800758c0 f   decoder_core.obj
 0001:00074f00       ?ParseDecRefPicMarking@WelsDec@@YAHPEAUTagWelsDecoderContext@1@PEAUTagBitStringAux@WelsCommon@@PEAUTagSliceHeaders@1@PEAUTagSps@1@_N@Z 0000000180075f00 f   decoder_core.obj
 0001:000758c0       ?ParsePredWeightedTable@WelsDec@@YAHPEAUTagBitStringAux@WelsCommon@@PEAUTagSliceHeaders@1@@Z 00000001800768c0 f   decoder_core.obj
 0001:00075ca0       ?ParseRefPicListReordering@WelsDec@@YAHPEAUTagBitStringAux@WelsCommon@@PEAUTagSliceHeaders@1@@Z 0000000180076ca0 f   decoder_core.obj
 0001:000764b0       ?ParseSliceHeaderSyntaxs@WelsDec@@YAHPEAUTagWelsDecoderContext@1@PEAUTagBitStringAux@WelsCommon@@_N@Z 00000001800774b0 f   decoder_core.obj
 0001:000778d0       ?PrefetchNalHeaderExtSyntax@WelsDec@@YA_NPEAUTagWelsDecoderContext@1@QEAUTagNalUnit@1@1@Z 00000001800788d0 f   decoder_core.obj
 0001:00077a30       ?RefineIdxNoInterLayerPred@WelsDec@@YAXPEAUTagAccessUnits@1@PEAH@Z 0000000180078a30 f   decoder_core.obj
 0001:00077af0       ?ResetCurrentAccessUnit@WelsDec@@YAXPEAUTagWelsDecoderContext@1@@Z 0000000180078af0 f   decoder_core.obj
 0001:00077b60       ?UninitialDqLayersContext@WelsDec@@YAXPEAUTagWelsDecoderContext@1@@Z 0000000180078b60 f   decoder_core.obj
 0001:00077f60       ?UpdateAccessUnit@WelsDec@@YAHPEAUTagWelsDecoderContext@1@@Z 0000000180078f60 f   decoder_core.obj
 0001:00078030       ?UpdateDecoderStatisticsForActiveParaset@WelsDec@@YAXPEAUTagVideoDecoderStatistics@@PEAUTagSps@1@PEAUTagPps@1@@Z 0000000180079030 f   decoder_core.obj
 0001:00078060       ?WelsDecodeAccessUnitEnd@WelsDec@@YAXPEAUTagWelsDecoderContext@1@@Z 0000000180079060 f   decoder_core.obj
 0001:000780c0       ?WelsDecodeAccessUnitStart@WelsDec@@YAHPEAUTagWelsDecoderContext@1@@Z 00000001800790c0 f   decoder_core.obj
 0001:00078120       ?WelsDecodeInitAccessUnitStart@WelsDec@@YAHPEAUTagWelsDecoderContext@1@PEAUTagBufferInfo@@@Z 0000000180079120 f   decoder_core.obj
 0001:00078250       ?WelsDqLayerDecodeStart@WelsDec@@YAXPEAUTagWelsDecoderContext@1@PEAUTagNalUnit@1@PEAUTagSps@1@PEAUTagPps@1@@Z 0000000180079250 f   decoder_core.obj
 0001:00078290       ?WelsFreeStaticMemory@WelsDec@@YAXPEAUTagWelsDecoderContext@1@@Z 0000000180079290 f   decoder_core.obj
 0001:000783d0       ?WelsInitStaticMemory@WelsDec@@YAHPEAUTagWelsDecoderContext@1@@Z 00000001800793d0 f   decoder_core.obj
 0001:00078640       ?DoErrorConFrameCopy@WelsDec@@YAXPEAUTagWelsDecoderContext@1@@Z 0000000180079640 f   error_concealment.obj
 0001:00078750       ?DoErrorConSliceCopy@WelsDec@@YAXPEAUTagWelsDecoderContext@1@@Z 0000000180079750 f   error_concealment.obj
 0001:00078a30       ?DoErrorConSliceMVCopy@WelsDec@@YAXPEAUTagWelsDecoderContext@1@@Z 0000000180079a30 f   error_concealment.obj
 0001:00078cc0       ?DoMbECMvCopy@WelsDec@@YAXPEAUTagWelsDecoderContext@1@PEAUSPicture@1@1HHHPEAUTagMCRefMember@1@@Z 0000000180079cc0 f   error_concealment.obj
 0001:00078fe0       ?GetAvilInfoFromCorrectMb@WelsDec@@YAXPEAUTagWelsDecoderContext@1@@Z 0000000180079fe0 f   error_concealment.obj
 0001:00079a30       ?ImplementErrorCon@WelsDec@@YAXPEAUTagWelsDecoderContext@1@@Z 000000018007aa30 f   error_concealment.obj
 0001:00079ab0       ?InitErrorCon@WelsDec@@YAXPEAUTagWelsDecoderContext@1@@Z 000000018007aab0 f   error_concealment.obj
 0001:00079b20       ?MarkECFrameAsRef@WelsDec@@YAHPEAUTagWelsDecoderContext@1@@Z 000000018007ab20 f   error_concealment.obj
 0001:00079b70       ?NeedErrorCon@WelsDec@@YA_NPEAUTagWelsDecoderContext@1@@Z 000000018007ab70 f   error_concealment.obj
 0001:00079bb0       ?FmoMbToSliceGroup@WelsDec@@YAHPEAUTagFmo@1@H@Z 000000018007abb0 f   fmo.obj
 0001:00079bd0       ?FmoNextMb@WelsDec@@YAHPEAUTagFmo@1@H@Z 000000018007abd0 f   fmo.obj
 0001:00079c40       ?FmoParamSetsChanged@WelsDec@@YA_NPEAUTagFmo@1@HHH@Z 000000018007ac40 f   fmo.obj
 0001:00079c70       ?FmoParamUpdate@WelsDec@@YAHPEAUTagFmo@1@PEAUTagSps@1@PEAUTagPps@1@PEAHPEAVCMemoryAlign@WelsCommon@@@Z 000000018007ac70 f   fmo.obj
 0001:00079d10       ?InitFmo@WelsDec@@YAHPEAUTagFmo@1@PEAUTagPps@1@HHPEAVCMemoryAlign@WelsCommon@@@Z 000000018007ad10 f   fmo.obj
 0001:00079f60       ?UninitFmoList@WelsDec@@YAXPEAUTagFmo@1@HHPEAVCMemoryAlign@WelsCommon@@@Z 000000018007af60 f   fmo.obj
 0001:0007a020       ?WelsI16x16LumaPredDcLeft_c@WelsDec@@YAXPEAEH@Z 000000018007b020 f   get_intra_predictor.obj
 0001:0007a090       ?WelsI16x16LumaPredDcNA_c@WelsDec@@YAXPEAEH@Z 000000018007b090 f   get_intra_predictor.obj
 0001:0007a0d0       ?WelsI16x16LumaPredDcTop_c@WelsDec@@YAXPEAEH@Z 000000018007b0d0 f   get_intra_predictor.obj
 0001:0007a170       ?WelsI16x16LumaPredDc_c@WelsDec@@YAXPEAEH@Z 000000018007b170 f   get_intra_predictor.obj
 0001:0007a220       ?WelsI16x16LumaPredH_c@WelsDec@@YAXPEAEH@Z 000000018007b220 f   get_intra_predictor.obj
 0001:0007a260       ?WelsI16x16LumaPredPlane_c@WelsDec@@YAXPEAEH@Z 000000018007b260 f   get_intra_predictor.obj
 0001:0007a640       ?WelsI16x16LumaPredV_c@WelsDec@@YAXPEAEH@Z 000000018007b640 f   get_intra_predictor.obj
 0001:0007a680       ?WelsI4x4LumaPredDDLTop_c@WelsDec@@YAXPEAEH@Z 000000018007b680 f   get_intra_predictor.obj
 0001:0007a740       ?WelsI4x4LumaPredDDL_c@WelsDec@@YAXPEAEH@Z 000000018007b740 f   get_intra_predictor.obj
 0001:0007a840       ?WelsI4x4LumaPredDDR_c@WelsDec@@YAXPEAEH@Z 000000018007b840 f   get_intra_predictor.obj
 0001:0007a970       ?WelsI4x4LumaPredDcLeft_c@WelsDec@@YAXPEAEH@Z 000000018007b970 f   get_intra_predictor.obj
 0001:0007a9c0       ?WelsI4x4LumaPredDcNA_c@WelsDec@@YAXPEAEH@Z 000000018007b9c0 f   get_intra_predictor.obj
 0001:0007a9f0       ?WelsI4x4LumaPredDcTop_c@WelsDec@@YAXPEAEH@Z 000000018007b9f0 f   get_intra_predictor.obj
 0001:0007aa70       ?WelsI4x4LumaPredDc_c@WelsDec@@YAXPEAEH@Z 000000018007ba70 f   get_intra_predictor.obj
 0001:0007ab10       ?WelsI4x4LumaPredHD_c@WelsDec@@YAXPEAEH@Z 000000018007bb10 f   get_intra_predictor.obj
 0001:0007ac70       ?WelsI4x4LumaPredHU_c@WelsDec@@YAXPEAEH@Z 000000018007bc70 f   get_intra_predictor.obj
 0001:0007ad50       ?WelsI4x4LumaPredH_c@WelsDec@@YAXPEAEH@Z 000000018007bd50 f   get_intra_predictor.obj
 0001:0007adc0       ?WelsI4x4LumaPredVLTop_c@WelsDec@@YAXPEAEH@Z 000000018007bdc0 f   get_intra_predictor.obj
 0001:0007aea0       ?WelsI4x4LumaPredVL_c@WelsDec@@YAXPEAEH@Z 000000018007bea0 f   get_intra_predictor.obj
 0001:0007afd0       ?WelsI4x4LumaPredVR_c@WelsDec@@YAXPEAEH@Z 000000018007bfd0 f   get_intra_predictor.obj
 0001:0007b120       ?WelsI4x4LumaPredV_c@WelsDec@@YAXPEAEH@Z 000000018007c120 f   get_intra_predictor.obj
 0001:0007b150       ?WelsI8x8LumaPredDDLTop_c@WelsDec@@YAXPEAEH_N1@Z 000000018007c150 f   get_intra_predictor.obj
 0001:0007b640       ?WelsI8x8LumaPredDDL_c@WelsDec@@YAXPEAEH_N1@Z 000000018007c640 f   get_intra_predictor.obj
 0001:0007bc10       ?WelsI8x8LumaPredDDR_c@WelsDec@@YAXPEAEH_N1@Z 000000018007cc10 f   get_intra_predictor.obj
 0001:0007bff0       ?WelsI8x8LumaPredDcLeft_c@WelsDec@@YAXPEAEH_N1@Z 000000018007cff0 f   get_intra_predictor.obj
 0001:0007c1e0       ?WelsI8x8LumaPredDcNA_c@WelsDec@@YAXPEAEH_N1@Z 000000018007d1e0 f   get_intra_predictor.obj
 0001:0007c240       ?WelsI8x8LumaPredDcTop_c@WelsDec@@YAXPEAEH_N1@Z 000000018007d240 f   get_intra_predictor.obj
 0001:0007c460       ?WelsI8x8LumaPredDc_c@WelsDec@@YAXPEAEH_N1@Z 000000018007d460 f   get_intra_predictor.obj
 0001:0007c790       ?WelsI8x8LumaPredHD_c@WelsDec@@YAXPEAEH_N1@Z 000000018007d790 f   get_intra_predictor.obj
 0001:0007cd30       ?WelsI8x8LumaPredHU_c@WelsDec@@YAXPEAEH_N1@Z 000000018007dd30 f   get_intra_predictor.obj
 0001:0007d130       ?WelsI8x8LumaPredH_c@WelsDec@@YAXPEAEH_N1@Z 000000018007e130 f   get_intra_predictor.obj
 0001:0007d320       ?WelsI8x8LumaPredVLTop_c@WelsDec@@YAXPEAEH_N1@Z 000000018007e320 f   get_intra_predictor.obj
 0001:0007d640       ?WelsI8x8LumaPredVL_c@WelsDec@@YAXPEAEH_N1@Z 000000018007e640 f   get_intra_predictor.obj
 0001:0007da10       ?WelsI8x8LumaPredVR_c@WelsDec@@YAXPEAEH_N1@Z 000000018007ea10 f   get_intra_predictor.obj
 0001:0007df80       ?WelsI8x8LumaPredV_c@WelsDec@@YAXPEAEH_N1@Z 000000018007ef80 f   get_intra_predictor.obj
 0001:0007e160       ?WelsIChromaPredDcLeft_c@WelsDec@@YAXPEAEH@Z 000000018007f160 f   get_intra_predictor.obj
 0001:0007e250       ?WelsIChromaPredDcNA_c@WelsDec@@YAXPEAEH@Z 000000018007f250 f   get_intra_predictor.obj
 0001:0007e290       ?WelsIChromaPredDcTop_c@WelsDec@@YAXPEAEH@Z 000000018007f290 f   get_intra_predictor.obj
 0001:0007e380       ?WelsIChromaPredDc_c@WelsDec@@YAXPEAEH@Z 000000018007f380 f   get_intra_predictor.obj
 0001:0007e560       ?WelsIChromaPredH_c@WelsDec@@YAXPEAEH@Z 000000018007f560 f   get_intra_predictor.obj
 0001:0007e5a0       ?WelsIChromaPredPlane_c@WelsDec@@YAXPEAEH@Z 000000018007f5a0 f   get_intra_predictor.obj
 0001:0007e7b0       ?WelsIChromaPredV_c@WelsDec@@YAXPEAEH@Z 000000018007f7b0 f   get_intra_predictor.obj
 0001:0007e9f0       ?GetLTRFrameIndex@WelsDec@@YAHPEAUTagRefPic@1@H@Z 000000018007f9f0 f   manage_dec_ref.obj
 0001:0007f4c0       ?WelsInitBSliceRefList@WelsDec@@YAHPEAUTagWelsDecoderContext@1@H@Z 00000001800804c0 f   manage_dec_ref.obj
 0001:0007f9a0       ?WelsInitRefList@WelsDec@@YAHPEAUTagWelsDecoderContext@1@H@Z 00000001800809a0 f   manage_dec_ref.obj
 0001:0007fa90       ?WelsMarkAsRef@WelsDec@@YAHPEAUTagWelsDecoderContext@1@PEAUSPicture@1@@Z 0000000180080a90 f   manage_dec_ref.obj
 0001:0007fc70       ?WelsReorderRefList@WelsDec@@YAHPEAUTagWelsDecoderContext@1@@Z 0000000180080c70 f   manage_dec_ref.obj
 0001:0007ff80       ?WelsResetRefPic@WelsDec@@YAXPEAUTagWelsDecoderContext@1@@Z 0000000180080f80 f   manage_dec_ref.obj
 0001:00080030       ?WelsResetRefPicWithoutUnRef@WelsDec@@YAXPEAUTagWelsDecoderContext@1@@Z 0000000180081030 f   manage_dec_ref.obj
 0001:000801b0       ?ExpandNalUnitList@WelsDec@@YAHPEAPEAUTagAccessUnits@1@HHPEAVCMemoryAlign@WelsCommon@@@Z 00000001800811b0 f   memmgr_nal_unit.obj
 0001:00080290       ?MemFreeNalList@WelsDec@@YAHPEAPEAUTagAccessUnits@1@PEAVCMemoryAlign@WelsCommon@@@Z 0000000180081290 f   memmgr_nal_unit.obj
 0001:000802d0       ?MemGetNextNal@WelsDec@@YAPEAUTagNalUnit@1@PEAPEAUTagAccessUnits@1@PEAVCMemoryAlign@WelsCommon@@@Z 00000001800812d0 f   memmgr_nal_unit.obj
 0001:00080330       ?MemInitNalList@WelsDec@@YAHPEAPEAUTagAccessUnits@1@IPEAVCMemoryAlign@WelsCommon@@@Z 0000000180081330 f   memmgr_nal_unit.obj
 0001:00080430       ?CopyRectBlock4Cols@WelsDec@@YAXPEAX0HHHH@Z 0000000180081430 f   mv_pred.obj
 0001:00080570       ?FillSpatialDirect8x8Mv@WelsDec@@YAXPEAUTagDqLayer@1@AEBFAEBC2AEBIAEB_NQEAY01FQEACQEAY1BO@1F7@Z 0000000180081570 f   mv_pred.obj
 0001:00080a30       ?FillTemporalDirect8x8Mv@WelsDec@@YAXPEAUTagDqLayer@1@AEBFAEBC2AEBIQEACPEAY01FQEAY1BO@1F6@Z 0000000180081a30 f   mv_pred.obj
 0001:00080dd0       ?GetColocatedMb@WelsDec@@YAHPEAUTagWelsDecoderContext@1@AEAI1@Z 0000000180081dd0 f   mv_pred.obj
 0001:00081240       ?MapColToList0@WelsDec@@YACAEAPEAUTagWelsDecoderContext@1@AEBCAEBH@Z 0000000180082240 f   mv_pred.obj
 0001:000812a0       ?PredBDirectTemporal@WelsDec@@YAHPEAUTagWelsDecoderContext@1@QEAY01FQEACAEAI@Z 00000001800822a0 f   mv_pred.obj
 0001:00081690       ?PredInter16x8Mv@WelsDec@@YAXQEAY1BO@1FQEAY0BO@CHHCQEAF@Z 0000000180082690 f   mv_pred.obj
 0001:00081700       ?PredInter8x16Mv@WelsDec@@YAXQEAY1BO@1FQEAY0BO@CHHCQEAF@Z 0000000180082700 f   mv_pred.obj
 0001:000817c0       ?PredMv@WelsDec@@YAXQEAY1BO@1FQEAY0BO@CHHHCQEAF@Z 00000001800827c0 f   mv_pred.obj
 0001:00081950       ?PredMvBDirectSpatial@WelsDec@@YAHPEAUTagWelsDecoderContext@1@QEAY01FQEACAEAI@Z 0000000180082950 f   mv_pred.obj
 0001:00082290       ?PredPSkipMvFromNeighbor@WelsDec@@YAXPEAUTagDqLayer@1@QEAF@Z 0000000180083290 f   mv_pred.obj
 0001:000826f0       ?Update8x8RefIdx@WelsDec@@YAXAEAPEAUTagDqLayer@1@AEBFAEBHAEBC@Z 00000001800836f0 f   mv_pred.obj
 0001:000827d0       ?UpdateP16x16MotionInfo@WelsDec@@YAXPEAUTagDqLayer@1@HCQEAF@Z 00000001800837d0 f   mv_pred.obj
 0001:00082930       ?UpdateP16x16MotionOnly@WelsDec@@YAXPEAUTagDqLayer@1@HQEAF@Z 0000000180083930 f   mv_pred.obj
 0001:00082a40       ?UpdateP16x16RefIdx@WelsDec@@YAXPEAUTagDqLayer@1@HC@Z 0000000180083a40 f   mv_pred.obj
 0001:00082ad0       ?UpdateP16x8MotionInfo@WelsDec@@YAXPEAUTagDqLayer@1@QEAY1BO@1FQEAY0BO@CHHCQEAF@Z 0000000180083ad0 f   mv_pred.obj
 0001:00082dd0       ?UpdateP8x16MotionInfo@WelsDec@@YAXPEAUTagDqLayer@1@QEAY1BO@1FQEAY0BO@CHHCQEAF@Z 0000000180083dd0 f   mv_pred.obj
 0001:00083240       ?ParseBSubMBTypeCabac@WelsDec@@YAHPEAUTagWelsDecoderContext@1@PEAUTagNeighborAvail@1@AEAI@Z 0000000180084240 f   parse_mb_syn_cabac.obj
 0001:000833a0       ?ParseCbfInfoCabac@WelsDec@@YAHPEAUTagNeighborAvail@1@PEAEHHPEAUTagWelsDecoderContext@1@AEAI@Z 00000001800843a0 f   parse_mb_syn_cabac.obj
 0001:000835b0       ?ParseCbpInfoCabac@WelsDec@@YAHPEAUTagWelsDecoderContext@1@PEAUTagNeighborAvail@1@AEAI@Z 00000001800845b0 f   parse_mb_syn_cabac.obj
 0001:000838c0       ?ParseDeltaQpCabac@WelsDec@@YAHPEAUTagWelsDecoderContext@1@AEAH@Z 00000001800848c0 f   parse_mb_syn_cabac.obj
 0001:00083970       ?ParseEndOfSliceCabac@WelsDec@@YAHPEAUTagWelsDecoderContext@1@AEAI@Z 0000000180084970 f   parse_mb_syn_cabac.obj
 0001:00083990       ?ParseIPCMInfoCabac@WelsDec@@YAHPEAUTagWelsDecoderContext@1@@Z 0000000180084990 f   parse_mb_syn_cabac.obj
 0001:00083c60       ?ParseInterBMotionInfoCabac@WelsDec@@YAHPEAUTagWelsDecoderContext@1@PEAUTagNeighborAvail@1@PEAEQEAY1BO@1F3QEAY0BO@CQEAC@Z 0000000180084c60 f   parse_mb_syn_cabac.obj
 0001:000850e0       ?ParseInterPMotionInfoCabac@WelsDec@@YAHPEAUTagWelsDecoderContext@1@PEAUTagNeighborAvail@1@PEAEQEAY1BO@1F3QEAY0BO@C@Z 00000001800860e0 f   parse_mb_syn_cabac.obj
 0001:00085cb0       ?ParseIntraPredModeChromaCabac@WelsDec@@YAHPEAUTagWelsDecoderContext@1@EAEAH@Z 0000000180086cb0 f   parse_mb_syn_cabac.obj
 0001:00085e20       ?ParseIntraPredModeLumaCabac@WelsDec@@YAHPEAUTagWelsDecoderContext@1@AEAH@Z 0000000180086e20 f   parse_mb_syn_cabac.obj
 0001:00085f00       ?ParseMBTypeBSliceCabac@WelsDec@@YAHPEAUTagWelsDecoderContext@1@PEAUTagNeighborAvail@1@AEAI@Z 0000000180086f00 f   parse_mb_syn_cabac.obj
 0001:000860d0       ?ParseMBTypeISliceCabac@WelsDec@@YAHPEAUTagWelsDecoderContext@1@PEAUTagNeighborAvail@1@AEAI@Z 00000001800870d0 f   parse_mb_syn_cabac.obj
 0001:00086250       ?ParseMBTypePSliceCabac@WelsDec@@YAHPEAUTagWelsDecoderContext@1@PEAUTagNeighborAvail@1@AEAI@Z 0000000180087250 f   parse_mb_syn_cabac.obj
 0001:00086420       ?ParseMvdInfoCabac@WelsDec@@YAHPEAUTagWelsDecoderContext@1@PEAUTagNeighborAvail@1@QEAY0BO@CQEAY1BO@1FHCCAEAF@Z 0000000180087420 f   parse_mb_syn_cabac.obj
 0001:00086560       ?ParseRefIdxCabac@WelsDec@@YAHPEAUTagWelsDecoderContext@1@PEAUTagNeighborAvail@1@PEAEQEAY0BO@CQEACHHHHAEAC@Z 0000000180087560 f   parse_mb_syn_cabac.obj
 0001:000868e0       ?ParseResidualBlockCabac8x8@WelsDec@@YAHPEAUTagNeighborAvail@1@PEAEPEAUTagBitStringAux@WelsCommon@@HHPEBEHPEAFEPEAUTagWelsDecoderContext@1@@Z 00000001800878e0 f   parse_mb_syn_cabac.obj
 0001:00086b70       ?ParseResidualBlockCabac@WelsDec@@YAHPEAUTagNeighborAvail@1@PEAEPEAUTagBitStringAux@WelsCommon@@HHPEBEHPEAFEPEAUTagWelsDecoderContext@1@@Z 0000000180087b70 f   parse_mb_syn_cabac.obj
 0001:00086f80       ?ParseSignificantCoeffCabac@WelsDec@@YAHPEAHHPEAUTagWelsDecoderContext@1@@Z 0000000180087f80 f   parse_mb_syn_cabac.obj
 0001:00087100       ?ParseSignificantMapCabac@WelsDec@@YAHPEAHHPEAUTagWelsDecoderContext@1@AEAI@Z 0000000180088100 f   parse_mb_syn_cabac.obj
 0001:000872a0       ?ParseSkipFlagCabac@WelsDec@@YAHPEAUTagWelsDecoderContext@1@PEAUTagNeighborAvail@1@AEAI@Z 00000001800882a0 f   parse_mb_syn_cabac.obj
 0001:00087300       ?ParseSubMBTypeCabac@WelsDec@@YAHPEAUTagWelsDecoderContext@1@PEAUTagNeighborAvail@1@AEAI@Z 0000000180088300 f   parse_mb_syn_cabac.obj
 0001:00087390       ?ParseTransformSize8x8FlagCabac@WelsDec@@YAHPEAUTagWelsDecoderContext@1@PEAUTagNeighborAvail@1@AEA_N@Z 0000000180088390 f   parse_mb_syn_cabac.obj
 0001:00087430       ?UpdateP16x16DirectCabac@WelsDec@@YAXPEAUTagDqLayer@1@@Z 0000000180088430 f   parse_mb_syn_cabac.obj
 0001:000874a0       ?UpdateP16x16MvdCabac@WelsDec@@YAXPEAUTagDqLayer@1@QEAFC@Z 00000001800884a0 f   parse_mb_syn_cabac.obj
 0001:000874f0       ?UpdateP16x8MvdCabac@WelsDec@@YAXPEAUTagDqLayer@1@QEAY1BO@1FHQEAFC@Z 00000001800884f0 f   parse_mb_syn_cabac.obj
 0001:000875f0       ?UpdateP16x8RefIdxCabac@WelsDec@@YAXPEAUTagDqLayer@1@QEAY0BO@CHCC@Z 00000001800885f0 f   parse_mb_syn_cabac.obj
 0001:000876a0       ?UpdateP8x16MvdCabac@WelsDec@@YAXPEAUTagDqLayer@1@QEAY1BO@1FHQEAFC@Z 00000001800886a0 f   parse_mb_syn_cabac.obj
 0001:000877a0       ?UpdateP8x16RefIdxCabac@WelsDec@@YAXPEAUTagDqLayer@1@QEAY0BO@CHCC@Z 00000001800887a0 f   parse_mb_syn_cabac.obj
 0001:000878b0       ?UpdateP8x8DirectCabac@WelsDec@@YAXPEAUTagDqLayer@1@H@Z 00000001800888b0 f   parse_mb_syn_cabac.obj
 0001:00087910       ?UpdateP8x8RefCacheIdxCabac@WelsDec@@YAXQEAY0BO@CAEBFAEBHAEBC@Z 0000000180088910 f   parse_mb_syn_cabac.obj
 0001:00087990       ?UpdateP8x8RefIdxCabac@WelsDec@@YAXPEAUTagDqLayer@1@QEAY0BO@CHCC@Z 0000000180088990 f   parse_mb_syn_cabac.obj
 0001:00087a10       ?BsEndCavlc@WelsDec@@YAXPEAUTagBitStringAux@WelsCommon@@@Z 0000000180088a10 f   parse_mb_syn_cavlc.obj
 0001:00087b40       ?BsStartCavlc@WelsDec@@YAXPEAUTagBitStringAux@WelsCommon@@@Z 0000000180088b40 f   parse_mb_syn_cavlc.obj
 0001:00088250       ?CheckIntra16x16PredMode@WelsDec@@YAHEPEAC@Z 0000000180089250 f   parse_mb_syn_cavlc.obj
 0001:000882d0       ?CheckIntraChromaPredMode@WelsDec@@YAHEPEAC@Z 00000001800892d0 f   parse_mb_syn_cavlc.obj
 0001:00088350       ?CheckIntraNxNPredMode@WelsDec@@YAHPEAHPEACH_N@Z 0000000180089350 f   parse_mb_syn_cavlc.obj
 0001:00088460       ?GetNeighborAvailMbType@WelsDec@@YAXPEAUTagNeighborAvail@1@PEAUTagDqLayer@1@@Z 0000000180089460 f   parse_mb_syn_cavlc.obj
 0001:000886a0       ?ParseInterBInfo@WelsDec@@YAHPEAUTagWelsDecoderContext@1@QEAY1BO@1FQEAY0BO@CPEAUTagBitStringAux@WelsCommon@@@Z 00000001800896a0 f   parse_mb_syn_cavlc.obj
 0001:00089d60       ?ParseInterInfo@WelsDec@@YAHPEAUTagWelsDecoderContext@1@QEAY1BO@1FQEAY0BO@CPEAUTagBitStringAux@WelsCommon@@@Z 000000018008ad60 f   parse_mb_syn_cavlc.obj
 0001:0008ae20       ?PredIntra4x4Mode@WelsDec@@YAHPEACH@Z 000000018008be20 f   parse_mb_syn_cavlc.obj
 0001:0008ae60       ?WelsFillCacheConstrain0IntraNxN@WelsDec@@YAXPEAUTagNeighborAvail@1@PEAEPEACPEAUTagDqLayer@1@@Z 000000018008be60 f   parse_mb_syn_cavlc.obj
 0001:0008af70       ?WelsFillCacheConstrain1IntraNxN@WelsDec@@YAXPEAUTagNeighborAvail@1@PEAEPEACPEAUTagDqLayer@1@@Z 000000018008bf70 f   parse_mb_syn_cavlc.obj
 0001:0008b090       ?WelsFillCacheInter@WelsDec@@YAXPEAUTagNeighborAvail@1@PEAEQEAY1BO@1FQEAY0BO@CPEAUTagDqLayer@1@@Z 000000018008c090 f   parse_mb_syn_cavlc.obj
 0001:0008b3d0       ?WelsFillCacheInterCabac@WelsDec@@YAXPEAUTagNeighborAvail@1@PEAEQEAY1BO@1F2QEAY0BO@CPEAUTagDqLayer@1@@Z 000000018008c3d0 f   parse_mb_syn_cavlc.obj
 0001:0008b7f0       ?WelsFillCacheNonZeroCount@WelsDec@@YAXPEAUTagNeighborAvail@1@PEAEPEAUTagDqLayer@1@@Z 000000018008c7f0 f   parse_mb_syn_cavlc.obj
 0001:0008b960       ?WelsFillDirectCacheCabac@WelsDec@@YAXPEAUTagNeighborAvail@1@QEACPEAUTagDqLayer@1@@Z 000000018008c960 f   parse_mb_syn_cavlc.obj
 0001:0008bab0       ?WelsResidualBlockCavlc8x8@WelsDec@@YAHPEAUTagVlcTable@1@PEAEPEAUTagBitStringAux@WelsCommon@@HHPEBEHPEAFHEPEAUTagWelsDecoderContext@1@@Z 000000018008cab0 f   parse_mb_syn_cavlc.obj
 0001:0008bf20       ?WelsResidualBlockCavlc@WelsDec@@YAHPEAUTagVlcTable@1@PEAEPEAUTagBitStringAux@WelsCommon@@HHPEBEHPEAFEPEAUTagWelsDecoderContext@1@@Z 000000018008cf20 f   parse_mb_syn_cavlc.obj
 0001:0008c460       ?AllocPicture@WelsDec@@YAPEAUSPicture@1@PEAUTagWelsDecoderContext@1@HH@Z 000000018008d460 f   pic_queue.obj
 0001:0008c720       ?FreePicture@WelsDec@@YAXPEAUSPicture@1@PEAVCMemoryAlign@WelsCommon@@@Z 000000018008d720 f   pic_queue.obj
 0001:0008c8e0       ?PrefetchLastPicForThread@WelsDec@@YAPEAUSPicture@1@PEAUTagPicBuff@1@AEBH@Z 000000018008d8e0 f   pic_queue.obj
 0001:0008c910       ?PrefetchPic@WelsDec@@YAPEAUSPicture@1@PEAUTagPicBuff@1@@Z 000000018008d910 f   pic_queue.obj
 0001:0008ca00       ?BaseMC@WelsDec@@YAXPEAUTagWelsDecoderContext@1@PEAUTagMCRefMember@1@AEBHAEBCHHPEAUTagMcFunc@@HHQEAF@Z 000000018008da00 f   rec_mb.obj
 0001:0008d140       ?GetInterBPred@WelsDec@@YAHQEAPEAE0PEAUTagWelsDecoderContext@1@@Z 000000018008e140 f   rec_mb.obj
 0001:0008ef80       ?GetInterPred@WelsDec@@YAHPEAE00PEAUTagWelsDecoderContext@1@@Z 000000018008ff80 f   rec_mb.obj
 0001:0008fcb0       ?RecChroma@WelsDec@@YAHHPEAUTagWelsDecoderContext@1@PEAFPEAUTagDqLayer@1@@Z 0000000180090cb0 f   rec_mb.obj
 0001:0008fd70       ?RecI16x16Mb@WelsDec@@YAHHPEAUTagWelsDecoderContext@1@PEAFPEAUTagDqLayer@1@@Z 0000000180090d70 f   rec_mb.obj
 0001:0008feb0       ?RecI4x4Chroma@WelsDec@@YAHHPEAUTagWelsDecoderContext@1@PEAFPEAUTagDqLayer@1@@Z 0000000180090eb0 f   rec_mb.obj
 0001:0008ff40       ?RecI4x4Luma@WelsDec@@YAHHPEAUTagWelsDecoderContext@1@PEAFPEAUTagDqLayer@1@@Z 0000000180090f40 f   rec_mb.obj
 0001:00090050       ?RecI4x4Mb@WelsDec@@YAHHPEAUTagWelsDecoderContext@1@PEAFPEAUTagDqLayer@1@@Z 0000000180091050 f   rec_mb.obj
 0001:000900a0       ?RecI8x8Luma@WelsDec@@YAHHPEAUTagWelsDecoderContext@1@PEAFPEAUTagDqLayer@1@@Z 00000001800910a0 f   rec_mb.obj
 0001:00090250       ?RecI8x8Mb@WelsDec@@YAHHPEAUTagWelsDecoderContext@1@PEAFPEAUTagDqLayer@1@@Z 0000000180091250 f   rec_mb.obj
 0001:00090540       ?WelsFillRecNeededMbInfo@WelsDec@@YAXPEAUTagWelsDecoderContext@1@_NPEAUTagDqLayer@1@@Z 0000000180091540 f   rec_mb.obj
 0001:000905c0       EventCreate                00000001800915c0 f   wels_decoder_thread.obj
 0001:00090600       EventDestroy               0000000180091600 f   wels_decoder_thread.obj
 0001:00090600       SemDestroy                 0000000180091600 f   wels_decoder_thread.obj
 0001:00090620       EventPost                  0000000180091620 f   wels_decoder_thread.obj
 0001:00090640       EventReset                 0000000180091640 f   wels_decoder_thread.obj
 0001:00090660       EventWait                  0000000180091660 f   wels_decoder_thread.obj
 0001:00090660       SemWait                    0000000180091660 f   wels_decoder_thread.obj
 0001:00090690       GetCPUCount                0000000180091690 f   wels_decoder_thread.obj
 0001:000906b0       SemCreate                  00000001800916b0 f   wels_decoder_thread.obj
 0001:000906e0       SemRelease                 00000001800916e0 f   wels_decoder_thread.obj
 0001:00090700       ThreadCreate               0000000180091700 f   wels_decoder_thread.obj
 0001:00090710       ThreadWait                 0000000180091710 f   wels_decoder_thread.obj
 0001:00090720       ??0CWelsDecoder@WelsDec@@QEAA@XZ 0000000180091720 f   welsDecoderExt.obj
 0001:000908b0       ??1CWelsDecoder@WelsDec@@UEAA@XZ 00000001800918b0 f   welsDecoderExt.obj
 0001:00090950       ??1ISVCDecoder@@UEAA@XZ    0000000180091950 f i welsDecoderExt.obj
 0001:00090960       ??_ECWelsDecoder@WelsDec@@UEAAPEAXI@Z 0000000180091960 f i welsDecoderExt.obj
 0001:00090960       ??_GCWelsDecoder@WelsDec@@UEAAPEAXI@Z 0000000180091960 f i welsDecoderExt.obj
 0001:000909a0       ??_EISVCDecoder@@UEAAPEAXI@Z 00000001800919a0 f i welsDecoderExt.obj
 0001:000909a0       ??_GISVCDecoder@@UEAAPEAXI@Z 00000001800919a0 f i welsDecoderExt.obj
 0001:000909d0       ?BufferingReadyPicture@CWelsDecoder@WelsDec@@AEAAXPEAUTagWelsDecoderContext@2@PEAPEAEPEAUTagBufferInfo@@@Z 00000001800919d0 f   welsDecoderExt.obj
 0001:00090bf0       ?CloseDecoderThreads@CWelsDecoder@WelsDec@@AEAAXXZ 0000000180091bf0 f   welsDecoderExt.obj
 0001:00090dd0       ?DecodeFrame2@CWelsDecoder@WelsDec@@UEAA?AW4DECODING_STATE@@PEBEHPEAPEAEPEAUTagBufferInfo@@@Z 0000000180091dd0 f   welsDecoderExt.obj
 0001:00090e00       ?DecodeFrame2WithCtx@CWelsDecoder@WelsDec@@QEAA?AW4DECODING_STATE@@PEAUTagWelsDecoderContext@2@PEBEHPEAPEAEPEAUTagBufferInfo@@@Z 0000000180091e00 f   welsDecoderExt.obj
 0001:00091350       ?DecodeFrame@CWelsDecoder@WelsDec@@UEAA?AW4DECODING_STATE@@PEBEHPEAPEAEPEAHAEAH3@Z 0000000180092350 f   welsDecoderExt.obj
 0001:00091410       ?DecodeFrameNoDelay@CWelsDecoder@WelsDec@@UEAA?AW4DECODING_STATE@@PEBEHPEAPEAEPEAUTagBufferInfo@@@Z 0000000180092410 f   welsDecoderExt.obj
 0001:000914f0       ?DecodeParser@CWelsDecoder@WelsDec@@UEAA?AW4DECODING_STATE@@PEBEHPEAUTagParserBsInfo@@@Z 00000001800924f0 f   welsDecoderExt.obj
 0001:00091770       ?FlushFrame@CWelsDecoder@WelsDec@@UEAA?AW4DECODING_STATE@@PEAPEAEPEAUTagBufferInfo@@@Z 0000000180092770 f   welsDecoderExt.obj
 0001:00091810       ?GetOption@CWelsDecoder@WelsDec@@UEAAJW4DECODER_OPTION@@PEAX@Z 0000000180092810 f   welsDecoderExt.obj
 0001:00091b60       ?InitDecoder@CWelsDecoder@WelsDec@@AEAAHPEBUTagSVCDecodingParam@@@Z 0000000180092b60 f   welsDecoderExt.obj
 0001:00091cb0       ?InitDecoderCtx@CWelsDecoder@WelsDec@@AEAAHAEAPEAUTagWelsDecoderContext@2@PEBUTagSVCDecodingParam@@@Z 0000000180092cb0 f   welsDecoderExt.obj
 0001:00091e80       ?Initialize@CWelsDecoder@WelsDec@@UEAAJPEBUTagSVCDecodingParam@@@Z 0000000180092e80 f   welsDecoderExt.obj
 0001:00091ed0       ?OpenDecoderThreads@CWelsDecoder@WelsDec@@AEAAXXZ 0000000180092ed0 f   welsDecoderExt.obj
 0001:000920c0       ?OutputStatisticsLog@CWelsDecoder@WelsDec@@AEAAXAEAUTagVideoDecoderStatistics@@@Z 00000001800930c0 f   welsDecoderExt.obj
 0001:000921f0       ?ParseAccessUnit@CWelsDecoder@WelsDec@@QEAA?AW4DECODING_STATE@@AEAUtagSWelsDecThreadCtx@2@@Z 00000001800931f0 f   welsDecoderExt.obj
 0001:00092410       ?ReleaseBufferedReadyPictureNoReorder@CWelsDecoder@WelsDec@@AEAAXPEAUTagWelsDecoderContext@2@PEAPEAEPEAUTagBufferInfo@@@Z 0000000180093410 f   welsDecoderExt.obj
 0001:000925c0       ?ReleaseBufferedReadyPictureReorder@CWelsDecoder@WelsDec@@AEAAXPEAUTagWelsDecoderContext@2@PEAPEAEPEAUTagBufferInfo@@_N@Z 00000001800935c0 f   welsDecoderExt.obj
 0001:00092990       ?ReorderPicturesInDisplay@CWelsDecoder@WelsDec@@AEAA?AW4DECODING_STATE@@PEAUTagWelsDecoderContext@2@PEAPEAEPEAUTagBufferInfo@@@Z 0000000180093990 f   welsDecoderExt.obj
 0001:00092a90       ?ResetDecoder@CWelsDecoder@WelsDec@@AEAAHAEAPEAUTagWelsDecoderContext@2@@Z 0000000180093a90 f   welsDecoderExt.obj
 0001:00092b80       ?SetOption@CWelsDecoder@WelsDec@@UEAAJW4DECODER_OPTION@@PEAX@Z 0000000180093b80 f   welsDecoderExt.obj
 0001:00092e70       ?ThreadDecodeFrameInternal@CWelsDecoder@WelsDec@@AEAAHPEBEHPEAPEAEPEAUTagBufferInfo@@@Z 0000000180093e70 f   welsDecoderExt.obj
 0001:00093060       ?ThreadResetDecoder@CWelsDecoder@WelsDec@@AEAAHAEAPEAUTagWelsDecoderContext@2@@Z 0000000180094060 f   welsDecoderExt.obj
 0001:00093140       ?UninitDecoder@CWelsDecoder@WelsDec@@AEAAXXZ 0000000180094140 f   welsDecoderExt.obj
 0001:000931c0       ?UninitDecoderCtx@CWelsDecoder@WelsDec@@AEAAXAEAPEAUTagWelsDecoderContext@2@@Z 00000001800941c0 f   welsDecoderExt.obj
 0001:000932a0       ?Uninitialize@CWelsDecoder@WelsDec@@UEAAJXZ 00000001800942a0 f   welsDecoderExt.obj
 0001:000932b0       ?pThrProcFrame@WelsDec@@YAKPEAX@Z 00000001800942b0 f   welsDecoderExt.obj
 0001:00093320       ?pThrProcInit@WelsDec@@YAKPEAX@Z 0000000180094320 f   welsDecoderExt.obj
 0001:00093380       WelsCreateDecoder          0000000180094380 f   welsDecoderExt.obj
 0001:000933e0       WelsDestroyDecoder         00000001800943e0 f   welsDecoderExt.obj
 0001:00093480       ??0CAdaptiveQuantization@WelsVP@@QEAA@H@Z 0000000180094480 f   AdaptiveQuantization.obj
 0001:000934e0       ??1CAdaptiveQuantization@WelsVP@@UEAA@XZ 00000001800944e0 f   AdaptiveQuantization.obj
 0001:000934e0       ??1CComplexityAnalysis@WelsVP@@UEAA@XZ 00000001800944e0 f   ComplexityAnalysis.obj
 0001:000934e0       ??1CComplexityAnalysisScreen@WelsVP@@UEAA@XZ 00000001800944e0 f   ComplexityAnalysis.obj
 0001:000934e0       ??1CDenoiser@WelsVP@@UEAA@XZ 00000001800944e0 f   denoise.obj
 0001:000934e0       ??1CImageRotating@WelsVP@@UEAA@XZ 00000001800944e0 f   imagerotate.obj
 0001:000934e0       ??1CVAACalculation@WelsVP@@UEAA@XZ 00000001800944e0 f   vaacalculation.obj
 0001:000934e0       ??1IStrategy@WelsVP@@UEAA@XZ 00000001800944e0 f   AdaptiveQuantization.obj
 0001:000934e0       ??1IWelsVP@@UEAA@XZ        00000001800944e0 f   AdaptiveQuantization.obj
 0001:000934f0       ??_ECAdaptiveQuantization@WelsVP@@UEAAPEAXI@Z 00000001800944f0 f i AdaptiveQuantization.obj
 0001:000934f0       ??_GCAdaptiveQuantization@WelsVP@@UEAAPEAXI@Z 00000001800944f0 f i AdaptiveQuantization.obj
 0001:00093530       ??_EIWelsVP@@UEAAPEAXI@Z   0000000180094530 f i AdaptiveQuantization.obj
 0001:00093530       ??_GIWelsVP@@UEAAPEAXI@Z   0000000180094530 f i AdaptiveQuantization.obj
 0001:00093560       ?Get@CAdaptiveQuantization@WelsVP@@UEAA?AW4EResult@@HPEAX@Z 0000000180094560 f   AdaptiveQuantization.obj
 0001:00093580       ?Process@CAdaptiveQuantization@WelsVP@@UEAA?AW4EResult@@HPEAUSPixMap@@0@Z 0000000180094580 f   AdaptiveQuantization.obj
 0001:00093bc0       ?SampleVariance16x16_c@WelsVP@@YAXPEAEH0HPEAUSMotionTextureUnit@@@Z 0000000180094bc0 f   AdaptiveQuantization.obj
 0001:00093e50       ?Set@CAdaptiveQuantization@WelsVP@@UEAA?AW4EResult@@HPEAX@Z 0000000180094e50 f   AdaptiveQuantization.obj
 0001:00093e80       ?WelsInitVarFunc@CAdaptiveQuantization@WelsVP@@AEAAXAEAP6AXPEAEH0HPEAUSMotionTextureUnit@@@ZH@Z 0000000180094e80 f   AdaptiveQuantization.obj
 0001:00093ea0       ??0CBackgroundDetection@WelsVP@@QEAA@H@Z 0000000180094ea0 f   BackgroundDetection.obj
 0001:00093ee0       ??1CBackgroundDetection@WelsVP@@UEAA@XZ 0000000180094ee0 f   BackgroundDetection.obj
 0001:00093f10       ??_ECBackgroundDetection@WelsVP@@UEAAPEAXI@Z 0000000180094f10 f i BackgroundDetection.obj
 0001:00093f10       ??_GCBackgroundDetection@WelsVP@@UEAAPEAXI@Z 0000000180094f10 f i BackgroundDetection.obj
 0001:00093f50       ?BackgroundDetection@CBackgroundDetection@WelsVP@@AEAAXPEAUvBGDParam@12@@Z 0000000180094f50 f   BackgroundDetection.obj
 0001:00093f80       ?ForegroundBackgroundDivision@CBackgroundDetection@WelsVP@@AEAAXPEAUvBGDParam@12@@Z 0000000180094f80 f   BackgroundDetection.obj
 0001:00094090       ?ForegroundDilation23Chroma@CBackgroundDetection@WelsVP@@AEAA_NCHHPEAUvBGDParam@12@@Z 0000000180095090 f i BackgroundDetection.obj
 0001:000942f0       ?ForegroundDilation23Luma@CBackgroundDetection@WelsVP@@AEAA_NPEAUSBackgroundOU@2@QEAPEAU32@@Z 00000001800952f0 f i BackgroundDetection.obj
 0001:00094400       ?ForegroundDilationAndBackgroundErosion@CBackgroundDetection@WelsVP@@AEAAXPEAUvBGDParam@12@@Z 0000000180095400 f   BackgroundDetection.obj
 0001:000947c0       ?GetOUParameters@CBackgroundDetection@WelsVP@@AEAAXPEAUSVAACalcResult@@HHPEAUSBackgroundOU@2@@Z 00000001800957c0 f   BackgroundDetection.obj
 0001:00094930       ?Process@CBackgroundDetection@WelsVP@@UEAA?AW4EResult@@HPEAUSPixMap@@0@Z 0000000180095930 f   BackgroundDetection.obj
 0001:00094a20       ?Set@CBackgroundDetection@WelsVP@@UEAA?AW4EResult@@HPEAX@Z 0000000180095a20 f   BackgroundDetection.obj
 0001:00094a40       ?WelsFree@WelsCommon@@YAXPEAXPEBD@Z 0000000180095a40 f   memory_align.obj
 0001:00094a40       ?WelsFree@WelsVP@@YAXPEAXPEAD@Z 0000000180095a40 f   memory.obj
 0001:00094a50       ?WelsMalloc@WelsVP@@YAPEAXIPEAD@Z 0000000180095a50 f   memory.obj
 0001:00094ac0       ??0CVpFrameWork@WelsVP@@QEAA@IAEAW4EResult@@@Z 0000000180095ac0 f   WelsFrameWork.obj
 0001:00094b40       ??1CVpFrameWork@WelsVP@@UEAA@XZ 0000000180095b40 f   WelsFrameWork.obj
 0001:00094bc0       ??_ECScrollDetection@WelsVP@@UEAAPEAXI@Z 0000000180095bc0 f i WelsFrameWork.obj
 0001:00094bc0       ??_GCScrollDetection@WelsVP@@UEAAPEAXI@Z 0000000180095bc0 f i WelsFrameWork.obj
 0001:00094bf0       ??_ECVpFrameWork@WelsVP@@UEAAPEAXI@Z 0000000180095bf0 f i WelsFrameWork.obj
 0001:00094bf0       ??_GCVpFrameWork@WelsVP@@UEAAPEAXI@Z 0000000180095bf0 f i WelsFrameWork.obj
 0001:00094c30       ?CheckValid@CVpFrameWork@WelsVP@@AEAA_NW4EMethods@@AEAUSPixMap@@1@Z 0000000180095c30 f   WelsFrameWork.obj
 0001:00094cd0       ?CreateSpecificVpInterface@WelsVP@@YA?AW4EResult@@PEAPEAVIWelsVP@@@Z 0000000180095cd0 f   WelsFrameWork.obj
 0001:00094d30       ?CreateStrategy@CVpFrameWork@WelsVP@@AEAAPEAVIStrategy@2@W4EMethods@@H@Z 0000000180095d30 f   WelsFrameWork.obj
 0001:00094f70       ?DestroySpecificVpInterface@WelsVP@@YA?AW4EResult@@PEAVIWelsVP@@@Z 0000000180095f70 f   WelsFrameWork.obj
 0001:00094f90       ?Get@CVpFrameWork@WelsVP@@UEAA?AW4EResult@@HPEAX@Z 0000000180095f90 f   WelsFrameWork.obj
 0001:00095020       ?Init@CVpFrameWork@WelsVP@@UEAA?AW4EResult@@HPEAX@Z 0000000180096020 f   WelsFrameWork.obj
 0001:000950b0       ?Process@CVpFrameWork@WelsVP@@UEAA?AW4EResult@@HPEAUSPixMap@@0@Z 00000001800960b0 f   WelsFrameWork.obj
 0001:000951f0       ?Set@CVpFrameWork@WelsVP@@UEAA?AW4EResult@@HPEAX@Z 00000001800961f0 f   WelsFrameWork.obj
 0001:00095280       ?Uninit@CVpFrameWork@WelsVP@@UEAA?AW4EResult@@H@Z 0000000180096280 f   WelsFrameWork.obj
 0001:000952f0       WelsCreateVpInterface      00000001800962f0 f   WelsFrameWork.obj
 0001:00095310       WelsDestroyVpInterface     0000000180096310 f   WelsFrameWork.obj
 0001:00095330       ?CreateSpecificVpInterface@WelsVP@@YA?AW4EResult@@PEAPEAUIWelsVPc@@@Z 0000000180096330 f   WelsFrameWorkEx.obj
 0001:000953e0       ?DestroySpecificVpInterface@WelsVP@@YA?AW4EResult@@PEAUIWelsVPc@@@Z 00000001800963e0 f   WelsFrameWorkEx.obj
 0001:00095410       ?Flush@WelsVP@@YA?AW4EResult@@PEAXH@Z 0000000180096410 f   WelsFrameWorkEx.obj
 0001:00095430       ?Get@WelsVP@@YA?AW4EResult@@PEAXH0@Z 0000000180096430 f   WelsFrameWorkEx.obj
 0001:00095450       ?Init@WelsVP@@YA?AW4EResult@@PEAXH0@Z 0000000180096450 f   WelsFrameWorkEx.obj
 0001:00095470       ?Process@WelsVP@@YA?AW4EResult@@PEAXHPEAUSPixMap@@1@Z 0000000180096470 f   WelsFrameWorkEx.obj
 0001:00095490       ?Set@WelsVP@@YA?AW4EResult@@PEAXH0@Z 0000000180096490 f   WelsFrameWorkEx.obj
 0001:000954b0       ?SpecialFeature@WelsVP@@YA?AW4EResult@@PEAXH00@Z 00000001800964b0 f   WelsFrameWorkEx.obj
 0001:000954d0       ?Uninit@WelsVP@@YA?AW4EResult@@PEAXH@Z 00000001800964d0 f   WelsFrameWorkEx.obj
 0001:000954f0       ??0CComplexityAnalysis@WelsVP@@QEAA@H@Z 00000001800964f0 f   ComplexityAnalysis.obj
 0001:00095530       ??0CComplexityAnalysisScreen@WelsVP@@QEAA@H@Z 0000000180096530 f   ComplexityAnalysis.obj
 0001:000955c0       ??_ECComplexityAnalysis@WelsVP@@UEAAPEAXI@Z 00000001800965c0 f i ComplexityAnalysis.obj
 0001:000955c0       ??_ECVAACalculation@WelsVP@@UEAAPEAXI@Z 00000001800965c0 f i vaacalculation.obj
 0001:000955c0       ??_GCComplexityAnalysis@WelsVP@@UEAAPEAXI@Z 00000001800965c0 f i ComplexityAnalysis.obj
 0001:000955c0       ??_GCVAACalculation@WelsVP@@UEAAPEAXI@Z 00000001800965c0 f i vaacalculation.obj
 0001:00095600       ??_ECComplexityAnalysisScreen@WelsVP@@UEAAPEAXI@Z 0000000180096600 f i ComplexityAnalysis.obj
 0001:00095600       ??_GCComplexityAnalysisScreen@WelsVP@@UEAAPEAXI@Z 0000000180096600 f i ComplexityAnalysis.obj
 0001:00095640       ?AnalyzeFrameComplexityViaSad@CComplexityAnalysis@WelsVP@@AEAAXPEAUSPixMap@@0@Z 0000000180096640 f   ComplexityAnalysis.obj
 0001:00095670       ?AnalyzeGomComplexityViaSad@CComplexityAnalysis@WelsVP@@AEAAXPEAUSPixMap@@0@Z 0000000180096670 f   ComplexityAnalysis.obj
 0001:000958a0       ?AnalyzeGomComplexityViaVar@CComplexityAnalysis@WelsVP@@AEAAXPEAUSPixMap@@0@Z 00000001800968a0 f   ComplexityAnalysis.obj
 0001:00095b60       ?Get@CComplexityAnalysis@WelsVP@@UEAA?AW4EResult@@HPEAX@Z 0000000180096b60 f   ComplexityAnalysis.obj
 0001:00095b80       ?Get@CComplexityAnalysisScreen@WelsVP@@UEAA?AW4EResult@@HPEAX@Z 0000000180096b80 f   ComplexityAnalysis.obj
 0001:00095bc0       ?GetFrameSadExcludeBackground@CComplexityAnalysis@WelsVP@@AEAAHPEAUSPixMap@@0@Z 0000000180096bc0 f   ComplexityAnalysis.obj
 0001:00095ca0       ?GomComplexityAnalysisInter@CComplexityAnalysisScreen@WelsVP@@AEAAXPEAUSPixMap@@0_N@Z 0000000180096ca0 f   ComplexityAnalysis.obj
 0001:00095fa0       ?GomComplexityAnalysisIntra@CComplexityAnalysisScreen@WelsVP@@AEAAXPEAUSPixMap@@@Z 0000000180096fa0 f   ComplexityAnalysis.obj
 0001:00096240       ?GomSampleSad@WelsVP@@YAXPEAIPEAH1E@Z 0000000180097240 f   ComplexityAnalysis.obj
 0001:00096270       ?GomSampleSadExceptBackground@WelsVP@@YAXPEAIPEAH1E@Z 0000000180097270 f   ComplexityAnalysis.obj
 0001:000962a0       ?InitGomSadFunc@WelsVP@@YAXAEAP6AXPEAIPEAH1E@ZE@Z 00000001800972a0 f   ComplexityAnalysis.obj
 0001:000962c0       ?Process@CComplexityAnalysis@WelsVP@@UEAA?AW4EResult@@HPEAUSPixMap@@0@Z 00000001800972c0 f   ComplexityAnalysis.obj
 0001:00096320       ?Process@CComplexityAnalysisScreen@WelsVP@@UEAA?AW4EResult@@HPEAUSPixMap@@0@Z 0000000180097320 f   ComplexityAnalysis.obj
 0001:00096390       ?Set@CComplexityAnalysis@WelsVP@@UEAA?AW4EResult@@HPEAX@Z 0000000180097390 f   ComplexityAnalysis.obj
 0001:000963c0       ?Set@CComplexityAnalysisScreen@WelsVP@@UEAA?AW4EResult@@HPEAX@Z 00000001800973c0 f   ComplexityAnalysis.obj
 0001:00096400       ??0CDenoiser@WelsVP@@QEAA@H@Z 0000000180097400 f   denoise.obj
 0001:00096460       ??_ECDenoiser@WelsVP@@UEAAPEAXI@Z 0000000180097460 f i denoise.obj
 0001:00096460       ??_ECImageRotating@WelsVP@@UEAAPEAXI@Z 0000000180097460 f i imagerotate.obj
 0001:00096460       ??_GCDenoiser@WelsVP@@UEAAPEAXI@Z 0000000180097460 f i denoise.obj
 0001:00096460       ??_GCImageRotating@WelsVP@@UEAAPEAXI@Z 0000000180097460 f i imagerotate.obj
 0001:000964a0       ?BilateralDenoiseLuma@CDenoiser@WelsVP@@AEAAXPEAEHHH@Z 00000001800974a0 f   denoise.obj
 0001:00096580       ?InitDenoiseFunc@CDenoiser@WelsVP@@AEAAXAEAUTagDenoiseFuncs@2@H@Z 0000000180097580 f   denoise.obj
 0001:000965c0       ?Process@CDenoiser@WelsVP@@UEAA?AW4EResult@@HPEAUSPixMap@@0@Z 00000001800975c0 f   denoise.obj
 0001:00096690       ?WaverageDenoiseChroma@CDenoiser@WelsVP@@AEAAXPEAEHHH@Z 0000000180097690 f   denoise.obj
 0001:00096780       ?BilateralLumaFilter8_c@WelsVP@@YAXPEAEH@Z 0000000180097780 f   denoise_filter.obj
 0001:000968f0       ?Gauss3x3Filter@WelsVP@@YAXPEAEH@Z 00000001800978f0 f   denoise_filter.obj
 0001:00096960       ?WaverageChromaFilter8_c@WelsVP@@YAXPEAEH@Z 0000000180097960 f   denoise_filter.obj
 0001:00096d50       ??0CDownsampling@WelsVP@@QEAA@H@Z 0000000180097d50 f   downsample.obj
 0001:00096dc0       ??1CDownsampling@WelsVP@@UEAA@XZ 0000000180097dc0 f   downsample.obj
 0001:00096df0       ??_ECDownsampling@WelsVP@@UEAAPEAXI@Z 0000000180097df0 f i downsample.obj
 0001:00096df0       ??_GCDownsampling@WelsVP@@UEAAPEAXI@Z 0000000180097df0 f i downsample.obj
 0001:00096e30       ?AllocateSampleBuffer@CDownsampling@WelsVP@@AEAA_NXZ 0000000180097e30 f   downsample.obj
 0001:00096ed0       ?DownsampleHalfAverage@CDownsampling@WelsVP@@AEAAXPEAEH0HHH@Z 0000000180097ed0 f   downsample.obj
 0001:00096f50       ?FreeSampleBuffer@CDownsampling@WelsVP@@AEAAXXZ 0000000180097f50 f   downsample.obj
 0001:00096fd0       ?InitDownsampleFuncs@CDownsampling@WelsVP@@AEAAXAEAUSDownsampleFuncs@2@H@Z 0000000180097fd0 f   downsample.obj
 0001:000970d0       ?Process@CDownsampling@WelsVP@@UEAA?AW4EResult@@HPEAUSPixMap@@0@Z 00000001800980d0 f   downsample.obj
 0001:00097640       ?DyadicBilinearDownsampler_c@WelsVP@@YAXPEAEH0HHH@Z 0000000180098640 f   downsamplefuncs.obj
 0001:00097700       ?DyadicBilinearOneThirdDownsampler_c@WelsVP@@YAXPEAEH0HHH@Z 0000000180098700 f   downsamplefuncs.obj
 0001:000977d0       ?DyadicBilinearQuarterDownsampler_c@WelsVP@@YAXPEAEH0HHH@Z 00000001800987d0 f   downsamplefuncs.obj
 0001:000978a0       ?GeneralBilinearAccurateDownsampler_c@WelsVP@@YAXPEAEHHH0HHH@Z 00000001800988a0 f   downsamplefuncs.obj
 0001:00097b80       ?GeneralBilinearFastDownsampler_c@WelsVP@@YAXPEAEHHH0HHH@Z 0000000180098b80 f   downsamplefuncs.obj
 0001:00097df0       GeneralBilinearAccurateDownsamplerWrap_avx2 0000000180098df0 f   downsamplefuncs.obj
 0001:00097e50       GeneralBilinearAccurateDownsamplerWrap_sse2 0000000180098e50 f   downsamplefuncs.obj
 0001:00097eb0       GeneralBilinearAccurateDownsamplerWrap_sse41 0000000180098eb0 f   downsamplefuncs.obj
 0001:00097f10       GeneralBilinearFastDownsamplerWrap_avx2 0000000180098f10 f   downsamplefuncs.obj
 0001:00097f70       GeneralBilinearFastDownsamplerWrap_sse2 0000000180098f70 f   downsamplefuncs.obj
 0001:00097fd0       GeneralBilinearFastDownsamplerWrap_ssse3 0000000180098fd0 f   downsamplefuncs.obj
 0001:00098030       ??0CImageRotating@WelsVP@@QEAA@H@Z 0000000180099030 f   imagerotate.obj
 0001:00098080       ?InitImageRotateFuncs@CImageRotating@WelsVP@@AEAAXAEAUSImageRotateFuncs@2@H@Z 0000000180099080 f   imagerotate.obj
 0001:000980b0       ?Process@CImageRotating@WelsVP@@UEAA?AW4EResult@@HPEAUSPixMap@@0@Z 00000001800990b0 f   imagerotate.obj
 0001:000981b0       ?ProcessImageRotate@CImageRotating@WelsVP@@AEAA?AW4EResult@@HPEAEIII0@Z 00000001800991b0 f   imagerotate.obj
 0001:00098250       ?ImageRotate180D_c@WelsVP@@YAXPEAEIII0@Z 0000000180099250 f   imagerotatefuncs.obj
 0001:00098300       ?ImageRotate270D_c@WelsVP@@YAXPEAEIII0@Z 0000000180099300 f   imagerotatefuncs.obj
 0001:000983a0       ?ImageRotate90D_c@WelsVP@@YAXPEAEIII0@Z 00000001800993a0 f   imagerotatefuncs.obj
 0001:00098450       ??RCSceneChangeDetectorScreen@WelsVP@@QEAAXAEAUSLocalParam@1@@Z 0000000180099450 f i SceneChangeDetection.obj
 0001:00098660       ??_E?$CSceneChangeDetection@VCSceneChangeDetectorScreen@WelsVP@@@WelsVP@@UEAAPEAXI@Z 0000000180099660 f i SceneChangeDetection.obj
 0001:00098660       ??_E?$CSceneChangeDetection@VCSceneChangeDetectorVideo@WelsVP@@@WelsVP@@UEAAPEAXI@Z 0000000180099660 f i SceneChangeDetection.obj
 0001:00098660       ??_G?$CSceneChangeDetection@VCSceneChangeDetectorScreen@WelsVP@@@WelsVP@@UEAAPEAXI@Z 0000000180099660 f i SceneChangeDetection.obj
 0001:00098660       ??_G?$CSceneChangeDetection@VCSceneChangeDetectorVideo@WelsVP@@@WelsVP@@UEAAPEAXI@Z 0000000180099660 f i SceneChangeDetection.obj
 0001:000986a0       ??_ECSceneChangeDetectorScreen@WelsVP@@UEAAPEAXI@Z 00000001800996a0 f i SceneChangeDetection.obj
 0001:000986a0       ??_ECSceneChangeDetectorVideo@WelsVP@@UEAAPEAXI@Z 00000001800996a0 f i SceneChangeDetection.obj
 0001:000986a0       ??_GCSceneChangeDetectorScreen@WelsVP@@UEAAPEAXI@Z 00000001800996a0 f i SceneChangeDetection.obj
 0001:000986a0       ??_GCSceneChangeDetectorVideo@WelsVP@@UEAAPEAXI@Z 00000001800996a0 f i SceneChangeDetection.obj
 0001:000986d0       ?BuildSceneChangeDetection@WelsVP@@YAPEAVIStrategy@1@W4EMethods@@H@Z 00000001800996d0 f   SceneChangeDetection.obj
 0001:00098840       ?Get@?$CSceneChangeDetection@VCSceneChangeDetectorScreen@WelsVP@@@WelsVP@@UEAA?AW4EResult@@HPEAX@Z 0000000180099840 f i SceneChangeDetection.obj
 0001:00098840       ?Get@?$CSceneChangeDetection@VCSceneChangeDetectorVideo@WelsVP@@@WelsVP@@UEAA?AW4EResult@@HPEAX@Z 0000000180099840 f i SceneChangeDetection.obj
 0001:00098880       ?Process@?$CSceneChangeDetection@VCSceneChangeDetectorScreen@WelsVP@@@WelsVP@@UEAA?AW4EResult@@HPEAUSPixMap@@0@Z 0000000180099880 f i SceneChangeDetection.obj
 0001:00098980       ?Process@?$CSceneChangeDetection@VCSceneChangeDetectorVideo@WelsVP@@@WelsVP@@UEAA?AW4EResult@@HPEAUSPixMap@@0@Z 0000000180099980 f i SceneChangeDetection.obj
 0001:00098b30       ?Set@?$CSceneChangeDetection@VCSceneChangeDetectorScreen@WelsVP@@@WelsVP@@UEAA?AW4EResult@@HPEAX@Z 0000000180099b30 f i SceneChangeDetection.obj
 0001:00098b30       ?Set@?$CSceneChangeDetection@VCSceneChangeDetectorVideo@WelsVP@@@WelsVP@@UEAA?AW4EResult@@HPEAX@Z 0000000180099b30 f i SceneChangeDetection.obj
 0001:00098b70       ?Get@CScrollDetection@WelsVP@@UEAA?AW4EResult@@HPEAX@Z 0000000180099b70 f   ScrollDetection.obj
 0001:00098b90       ?Process@CScrollDetection@WelsVP@@UEAA?AW4EResult@@HPEAUSPixMap@@0@Z 0000000180099b90 f   ScrollDetection.obj
 0001:00098bf0       ?ScrollDetectionWithMask@CScrollDetection@WelsVP@@AEAAXPEAUSPixMap@@0@Z 0000000180099bf0 f   ScrollDetection.obj
 0001:00098c60       ?ScrollDetectionWithoutMask@CScrollDetection@WelsVP@@AEAAXPEAUSPixMap@@0@Z 0000000180099c60 f   ScrollDetection.obj
 0001:00098d90       ?Set@CScrollDetection@WelsVP@@UEAA?AW4EResult@@HPEAX@Z 0000000180099d90 f   ScrollDetection.obj
 0001:00098db0       ?CheckLine@WelsVP@@YAHPEAEH@Z 0000000180099db0 f   ScrollDetectionFuncs.obj
 0001:00098f10       ?CompareLine@WelsVP@@YAHPEAE0H@Z 0000000180099f10 f   ScrollDetectionFuncs.obj
 0001:00098f60       ?ScrollDetectionCore@WelsVP@@YAXPEAUSPixMap@@0HHHHAEAUSScrollDetectionParam@@@Z 0000000180099f60 f   ScrollDetectionFuncs.obj
 0001:000992c0       ?SelectTestLine@WelsVP@@YAHPEAEHHHHHH@Z 000000018009a2c0 f   ScrollDetectionFuncs.obj
 0001:000993d0       ?VAACalcSadBgd_c@WelsVP@@YAXPEBE0HHHPEAH11PEAE@Z 000000018009a3d0 f   vaacalcfuncs.obj
 0001:00099c60       ?VAACalcSadSsdBgd_c@WelsVP@@YAXPEBE0HHHPEAH11111PEAE@Z 000000018009ac60 f   vaacalcfuncs.obj
 0001:0009aa80       ?VAACalcSadSsd_c@WelsVP@@YAXPEBE0HHHPEAH1111@Z 000000018009ba80 f   vaacalcfuncs.obj
 0001:0009b520       ?VAACalcSadVar_c@WelsVP@@YAXPEBE0HHHPEAH111@Z 000000018009c520 f   vaacalcfuncs.obj
 0001:0009bdc0       ?VAACalcSad_c@WelsVP@@YAXPEBE0HHHPEAH1@Z 000000018009cdc0 f   vaacalcfuncs.obj
 0001:0009c1d0       ??0CVAACalculation@WelsVP@@QEAA@H@Z 000000018009d1d0 f   vaacalculation.obj
 0001:0009c230       ?InitVaaFuncs@CVAACalculation@WelsVP@@AEAAXAEAUTagVaaFuncs@2@H@Z 000000018009d230 f   vaacalculation.obj
 0001:0009c2e0       ?Process@CVAACalculation@WelsVP@@UEAA?AW4EResult@@HPEAUSPixMap@@0@Z 000000018009d2e0 f   vaacalculation.obj
 0001:0009c470       ?Set@CVAACalculation@WelsVP@@UEAA?AW4EResult@@HPEAX@Z 000000018009d470 f   vaacalculation.obj
 0001:0009c4a0       ?WelsCopy16x16_c@@YAXPEAEH0H@Z 000000018009d4a0 f   copy_mb.obj
 0001:0009c6b0       ?WelsCopy16x8_c@@YAXPEAEH0H@Z 000000018009d6b0 f   copy_mb.obj
 0001:0009c7c0       ?WelsCopy4x4_c@@YAXPEAEH0H@Z 000000018009d7c0 f   copy_mb.obj
 0001:0009c820       ?WelsCopy4x8_c@@YAXPEAEH0H@Z 000000018009d820 f   copy_mb.obj
 0001:0009c880       ?WelsCopy8x16_c@@YAXPEAEH0H@Z 000000018009d880 f   copy_mb.obj
 0001:0009c9b0       ?WelsCopy8x4_c@@YAXPEAEH0H@Z 000000018009d9b0 f   copy_mb.obj
 0001:0009ca00       ?WelsCopy8x8_c@@YAXPEAEH0H@Z 000000018009da00 f   copy_mb.obj
 0001:0009caa0       WelsCPUFeatureDetect       000000018009daa0 f   cpu.obj
 0001:0009cef0       WelsSnprintf               000000018009def0 f   crt_util_safe_x.obj
 0001:0009cf60       WelsStrcat                 000000018009df60 f   crt_util_safe_x.obj
 0001:0009cf90       WelsStrncpy                000000018009df90 f   crt_util_safe_x.obj
 0001:0009cfc0       WelsVsnprintf              000000018009dfc0 f   crt_util_safe_x.obj
 0001:0009d040       __local_stdio_printf_options 000000018009e040 f i crt_util_safe_x.obj
 0001:0009d050       ?DeblockChromaEq42_c@@YAXPEAEHHHH@Z 000000018009e050 f   deblocking_common.obj
 0001:0009d3d0       ?DeblockChromaEq4H2_c@@YAXPEAEHHH@Z 000000018009e3d0 f   deblocking_common.obj
 0001:0009d3f0       ?DeblockChromaEq4H_c@@YAXPEAE0HHH@Z 000000018009e3f0 f   deblocking_common.obj
 0001:0009d420       ?DeblockChromaEq4V2_c@@YAXPEAEHHH@Z 000000018009e420 f   deblocking_common.obj
 0001:0009d440       ?DeblockChromaEq4V_c@@YAXPEAE0HHH@Z 000000018009e440 f   deblocking_common.obj
 0001:0009d470       ?DeblockChromaEq4_c@@YAXPEAE0HHHH@Z 000000018009e470 f   deblocking_common.obj
 0001:0009d810       ?DeblockChromaLt42_c@@YAXPEAEHHHHPEAC@Z 000000018009e810 f   deblocking_common.obj
 0001:0009db60       ?DeblockChromaLt4H2_c@@YAXPEAEHHHPEAC@Z 000000018009eb60 f   deblocking_common.obj
 0001:0009db90       ?DeblockChromaLt4H_c@@YAXPEAE0HHHPEAC@Z 000000018009eb90 f   deblocking_common.obj
 0001:0009dbc0       ?DeblockChromaLt4V2_c@@YAXPEAEHHHPEAC@Z 000000018009ebc0 f   deblocking_common.obj
 0001:0009dbf0       ?DeblockChromaLt4V_c@@YAXPEAE0HHHPEAC@Z 000000018009ebf0 f   deblocking_common.obj
 0001:0009dc20       ?DeblockChromaLt4_c@@YAXPEAE0HHHHPEAC@Z 000000018009ec20 f   deblocking_common.obj
 0001:0009df40       ?DeblockLumaEq4H_c@@YAXPEAEHHH@Z 000000018009ef40 f   deblocking_common.obj
 0001:0009df60       ?DeblockLumaEq4V_c@@YAXPEAEHHH@Z 000000018009ef60 f   deblocking_common.obj
 0001:0009df80       ?DeblockLumaEq4_c@@YAXPEAEHHHH@Z 000000018009ef80 f   deblocking_common.obj
 0001:0009e300       ?DeblockLumaLt4H_c@@YAXPEAEHHHPEAC@Z 000000018009f300 f   deblocking_common.obj
 0001:0009e330       ?DeblockLumaLt4V_c@@YAXPEAEHHHPEAC@Z 000000018009f330 f   deblocking_common.obj
 0001:0009e360       ?DeblockLumaLt4_c@@YAXPEAEHHHHPEAC@Z 000000018009f360 f   deblocking_common.obj
 0001:0009e710       ?WelsNonZeroCount_c@@YAXPEAC@Z 000000018009f710 f   deblocking_common.obj
 0001:0009e760       DeblockLumaEq4H_ssse3      000000018009f760 f   deblocking_common.obj
 0001:0009e7f0       DeblockLumaLt4H_ssse3      000000018009f7f0 f   deblocking_common.obj
 0001:0009f990       ExpandReferencingPicture   00000001800a0990 f   expand_pic.obj
 0001:0009fa40       InitExpandPictureFunc      00000001800a0a40 f   expand_pic.obj
 0001:0009fa80       PadMBChroma_c              00000001800a0a80 f   expand_pic.obj
 0001:0009fd00       PadMBLuma_c                00000001800a0d00 f   expand_pic.obj
 0001:0009ff70       ?WelsI16x16LumaPredH_c@@YAXPEAE0H@Z 00000001800a0f70 f   intra_pred_common.obj
 0001:0009ffd0       ?WelsI16x16LumaPredV_c@@YAXPEAE0H@Z 00000001800a0fd0 f   intra_pred_common.obj
 0001:000a0010       ?InitMcFunc@WelsCommon@@YAXPEAUTagMcFunc@@I@Z 00000001800a1010 f   mc.obj
 0001:000a42b0       ??0CMemoryAlign@WelsCommon@@QEAA@I@Z 00000001800a52b0 f   memory_align.obj
 0001:000a42e0       ??1CMemoryAlign@WelsCommon@@UEAA@XZ 00000001800a52e0 f   memory_align.obj
 0001:000a42f0       ??_ECMemoryAlign@WelsCommon@@UEAAPEAXI@Z 00000001800a52f0 f i memory_align.obj
 0001:000a42f0       ??_GCMemoryAlign@WelsCommon@@UEAAPEAXI@Z 00000001800a52f0 f i memory_align.obj
 0001:000a4330       ?WelsFree@CMemoryAlign@WelsCommon@@QEAAXPEAXPEBD@Z 00000001800a5330 f   memory_align.obj
 0001:000a4360       ?WelsGetMemoryUsage@CMemoryAlign@WelsCommon@@QEBA?BIXZ 00000001800a5360 f   memory_align.obj
 0001:000a4370       ?WelsMalloc@CMemoryAlign@WelsCommon@@QEAAPEAXIPEBD@Z 00000001800a5370 f   memory_align.obj
 0001:000a43b0       ?WelsMalloc@WelsCommon@@YAPEAXIPEBDI@Z 00000001800a53b0 f   memory_align.obj
 0001:000a4400       ?WelsMallocz@CMemoryAlign@WelsCommon@@QEAAPEAXIPEBD@Z 00000001800a5400 f   memory_align.obj
 0001:000a4440       ?WelsMallocz@WelsCommon@@YAPEAXIPEBD@Z 00000001800a5440 f   memory_align.obj
 0001:000a4490       ?WelsSampleSad16x16_c@@YAHPEAEH0H@Z 00000001800a5490 f   sad_common.obj
 0001:000a4530       ?WelsSampleSad16x8_c@@YAHPEAEH0H@Z 00000001800a5530 f   sad_common.obj
 0001:000a4590       ?WelsSampleSad4x4_c@@YAHPEAEH0H@Z 00000001800a5590 f   sad_common.obj
 0001:000a4760       ?WelsSampleSad4x8_c@@YAHPEAEH0H@Z 00000001800a5760 f   sad_common.obj
 0001:000a47e0       ?WelsSampleSad8x16_c@@YAHPEAEH0H@Z 00000001800a57e0 f   sad_common.obj
 0001:000a4860       ?WelsSampleSad8x4_c@@YAHPEAEH0H@Z 00000001800a5860 f   sad_common.obj
 0001:000a48c0       ?WelsSampleSad8x8_c@@YAHPEAEH0H@Z 00000001800a58c0 f   sad_common.obj
 0001:000a4ac0       ?WelsSampleSadFour16x16_c@@YAXPEAEH0HPEAH@Z 00000001800a5ac0 f   sad_common.obj
 0001:000a4b50       ?WelsSampleSadFour16x8_c@@YAXPEAEH0HPEAH@Z 00000001800a5b50 f   sad_common.obj
 0001:000a4be0       ?WelsSampleSadFour4x4_c@@YAXPEAEH0HPEAH@Z 00000001800a5be0 f   sad_common.obj
 0001:000a4c70       ?WelsSampleSadFour4x8_c@@YAXPEAEH0HPEAH@Z 00000001800a5c70 f   sad_common.obj
 0001:000a4d00       ?WelsSampleSadFour8x16_c@@YAXPEAEH0HPEAH@Z 00000001800a5d00 f   sad_common.obj
 0001:000a4d90       ?WelsSampleSadFour8x4_c@@YAXPEAEH0HPEAH@Z 00000001800a5d90 f   sad_common.obj
 0001:000a4e20       ?WelsSampleSadFour8x8_c@@YAXPEAEH0HPEAH@Z 00000001800a5e20 f   sad_common.obj
 0001:000a4eb0       ?WelsLog@@YAXPEAUTagLogContext@@HPEBDZZ 00000001800a5eb0 f   utils.obj
 0001:000a4f90       ??0welsCodecTrace@@QEAA@XZ 00000001800a5f90 f   welsCodecTrace.obj
 0001:000a4fc0       ??1welsCodecTrace@@QEAA@XZ 00000001800a5fc0 f   welsCodecTrace.obj
 0001:000a4fd0       ?CodecTrace@welsCodecTrace@@AEAAXHPEBDPEAD@Z 00000001800a5fd0 f   welsCodecTrace.obj
 0001:000a5060       ?SetCodecInstance@welsCodecTrace@@QEAAXPEAX@Z 00000001800a6060 f   welsCodecTrace.obj
 0001:000a5070       ?SetTraceCallbackContext@welsCodecTrace@@QEAAXPEAX@Z 00000001800a6070 f   welsCodecTrace.obj
 0001:000a5080       ?SetTraceLevel@welsCodecTrace@@QEAAXH@Z 00000001800a6080 f   welsCodecTrace.obj
 0001:000a5090       ?StaticCodecTrace@welsCodecTrace@@CAXPEAXHPEBDPEAD@Z 00000001800a6090 f   welsCodecTrace.obj
 0001:000a50d0       fprintf                    00000001800a60d0 f i welsCodecTrace.obj
 0001:000a5120       ??0CWelsTaskThread@WelsCommon@@QEAA@PEAVIWelsTaskThreadSink@1@@Z 00000001800a6120 f   WelsTaskThread.obj
 0001:000a5190       ??1CWelsTaskThread@WelsCommon@@UEAA@XZ 00000001800a6190 f   WelsTaskThread.obj
 0001:000a51d0       ??_ECWelsTaskThread@WelsCommon@@UEAAPEAXI@Z 00000001800a61d0 f i WelsTaskThread.obj
 0001:000a51d0       ??_GCWelsTaskThread@WelsCommon@@UEAAPEAXI@Z 00000001800a61d0 f i WelsTaskThread.obj
 0001:000a5210       ?ExecuteTask@CWelsTaskThread@WelsCommon@@UEAAXXZ 00000001800a6210 f   WelsTaskThread.obj
 0001:000a52b0       ?SetTask@CWelsTaskThread@WelsCommon@@QEAAHPEAVIWelsTask@2@@Z 00000001800a62b0 f   WelsTaskThread.obj
 0001:000a5330       ??0CWelsThread@WelsCommon@@QEAA@XZ 00000001800a6330 f   WelsThread.obj
 0001:000a5390       ??1CWelsThread@WelsCommon@@UEAA@XZ 00000001800a6390 f   WelsThread.obj
 0001:000a53e0       ??_ECWelsThread@WelsCommon@@UEAAPEAXI@Z 00000001800a63e0 f i WelsThread.obj
 0001:000a53e0       ??_GCWelsThread@WelsCommon@@UEAAPEAXI@Z 00000001800a63e0 f i WelsThread.obj
 0001:000a5420       ?Kill@CWelsThread@WelsCommon@@UEAAXXZ 00000001800a6420 f   WelsThread.obj
 0001:000a5470       ?Start@CWelsThread@WelsCommon@@UEAAHXZ 00000001800a6470 f   WelsThread.obj
 0001:000a54f0       ?TheThread@CWelsThread@WelsCommon@@KAKPEAX@Z 00000001800a64f0 f   WelsThread.obj
 0001:000a5530       ?Thread@CWelsThread@WelsCommon@@UEAAXXZ 00000001800a6530 f   WelsThread.obj
 0001:000a55c0       WelsEventClose             00000001800a65c0 f   WelsThreadLib.obj
 0001:000a55f0       WelsEventOpen              00000001800a65f0 f   WelsThreadLib.obj
 0001:000a5620       WelsEventSignal            00000001800a6620 f   WelsThreadLib.obj
 0001:000a5650       WelsEventWait              00000001800a6650 f   WelsThreadLib.obj
 0001:000a5660       WelsMutexDestroy           00000001800a6660 f   WelsThreadLib.obj
 0001:000a5680       WelsMutexInit              00000001800a6680 f   WelsThreadLib.obj
 0001:000a56a0       WelsMutexLock              00000001800a66a0 f   WelsThreadLib.obj
 0001:000a56c0       WelsMutexUnlock            00000001800a66c0 f   WelsThreadLib.obj
 0001:000a56e0       WelsQueryLogicalProcessInfo 00000001800a66e0 f   WelsThreadLib.obj
 0001:000a5710       WelsSleep                  00000001800a6710 f   WelsThreadLib.obj
 0001:000a5720       WelsThreadCreate           00000001800a6720 f   WelsThreadLib.obj
 0001:000a5760       WelsThreadJoin             00000001800a6760 f   WelsThreadLib.obj
 0001:000a5790       ??0CWelsThreadPool@WelsCommon@@AEAA@XZ 00000001800a6790 f   WelsThreadPool.obj
 0001:000a5830       ??1CWelsThreadPool@WelsCommon@@EEAA@XZ 00000001800a6830 f   WelsThreadPool.obj
 0001:000a58d0       ??_ECWelsThreadPool@WelsCommon@@EEAAPEAXI@Z 00000001800a68d0 f i WelsThreadPool.obj
 0001:000a58d0       ??_GCWelsThreadPool@WelsCommon@@EEAAPEAXI@Z 00000001800a68d0 f i WelsThreadPool.obj
 0001:000a5910       ?AddReference@CWelsThreadPool@WelsCommon@@SAPEAV12@XZ 00000001800a6910 f   WelsThreadPool.obj
 0001:000a59f0       ?AddTaskToWaitedList@CWelsThreadPool@WelsCommon@@IEAA_NPEAVIWelsTask@2@@Z 00000001800a69f0 f   WelsThreadPool.obj
 0001:000a5a70       ?AddThreadToBusyList@CWelsThreadPool@WelsCommon@@IEAAHPEAVCWelsTaskThread@2@@Z 00000001800a6a70 f   WelsThreadPool.obj
 0001:000a5ac0       ?AddThreadToIdleQueue@CWelsThreadPool@WelsCommon@@IEAAHPEAVCWelsTaskThread@2@@Z 00000001800a6ac0 f   WelsThreadPool.obj
 0001:000a5b40       ?ClearWaitedTasks@CWelsThreadPool@WelsCommon@@IEAAXXZ 00000001800a6b40 f   WelsThreadPool.obj
 0001:000a5c20       ?CreateIdleThread@CWelsThreadPool@WelsCommon@@IEAAHXZ 00000001800a6c20 f   WelsThreadPool.obj
 0001:000a5ca0       ?DestroyThread@CWelsThreadPool@WelsCommon@@IEAAXPEAVCWelsTaskThread@2@@Z 00000001800a6ca0 f   WelsThreadPool.obj
 0001:000a5cd0       ?ExecuteTask@CWelsThreadPool@WelsCommon@@UEAAXXZ 00000001800a6cd0 f   WelsThreadPool.obj
 0001:000a5d40       ?GetBusyThreadNum@CWelsThreadPool@WelsCommon@@IEAAHXZ 00000001800a6d40 f   WelsThreadPool.obj
 0001:000a5d50       ?GetIdleThread@CWelsThreadPool@WelsCommon@@IEAAPEAVCWelsTaskThread@2@XZ 00000001800a6d50 f   WelsThreadPool.obj
 0001:000a5df0       ?GetIdleThreadNum@CWelsThreadPool@WelsCommon@@IEAAHXZ 00000001800a6df0 f   WelsThreadPool.obj
 0001:000a5ea0       ?GetWaitedTask@CWelsThreadPool@WelsCommon@@IEAAPEAVIWelsTask@2@XZ 00000001800a6ea0 f   WelsThreadPool.obj
 0001:000a5f40       ?GetWaitedTaskNum@CWelsThreadPool@WelsCommon@@IEAAHXZ 00000001800a6f40 f   WelsThreadPool.obj
 0001:000a5f50       ?Init@CWelsThreadPool@WelsCommon@@IEAAHXZ 00000001800a6f50 f   WelsThreadPool.obj
 0001:000a60c0       ?OnTaskStart@CWelsThreadPool@WelsCommon@@UEAAHPEAVCWelsTaskThread@2@PEAVIWelsTask@2@@Z 00000001800a70c0 f   WelsThreadPool.obj
 0001:000a60e0       ?OnTaskStop@CWelsThreadPool@WelsCommon@@UEAAHPEAVCWelsTaskThread@2@PEAVIWelsTask@2@@Z 00000001800a70e0 f   WelsThreadPool.obj
 0001:000a6150       ?QueueTask@CWelsThreadPool@WelsCommon@@QEAAHPEAVIWelsTask@2@@Z 00000001800a7150 f   WelsThreadPool.obj
 0001:000a6200       ?RemoveInstance@CWelsThreadPool@WelsCommon@@QEAAXXZ 00000001800a7200 f   WelsThreadPool.obj
 0001:000a6280       ?RemoveThreadFromBusyList@CWelsThreadPool@WelsCommon@@IEAAHPEAVCWelsTaskThread@2@@Z 00000001800a7280 f   WelsThreadPool.obj
 0001:000a6350       ?SetThreadNum@CWelsThreadPool@WelsCommon@@SAHH@Z 00000001800a7350 f   WelsThreadPool.obj
 0001:000a63b0       ?StopAllRunning@CWelsThreadPool@WelsCommon@@AEAAHXZ 00000001800a73b0 f   WelsThreadPool.obj
 0001:000a6410       ?Uninit@CWelsThreadPool@WelsCommon@@IEAAHXZ 00000001800a7410 f   WelsThreadPool.obj
 0001:000a65d8       __GSHandlerCheck           00000001800a75d8 f   LIBCMT:gshandler.obj
 0001:000a65f8       __GSHandlerCheckCommon     00000001800a75f8 f   LIBCMT:gshandler.obj
 0001:000a6670       __security_check_cookie    00000001800a7670 f   LIBCMT:amdsecgs.obj
 0001:000a6690       ??2@YAPEAX_K@Z             00000001800a7690 f   LIBCMT:new_scalar.obj
 0001:000a66cc       ??3@YAXPEAX_K@Z            00000001800a76cc f   LIBCMT:delete_scalar_size.obj
 0001:000a66cc       ??_V@YAXPEAX@Z             00000001800a76cc f   LIBCMT:delete_array.obj
 0001:000a66f0       __chkstk                   00000001800a76f0 f   LIBCMT:chkstk.obj
 0001:000a66f0       _alloca_probe              00000001800a76f0 f   LIBCMT:chkstk.obj
 0001:000a6740       __isa_available_init       00000001800a7740 f   LIBCMT:cpu_disp.obj
 0001:000a68ec       ??_Etype_info@@UEAAPEAXI@Z 00000001800a78ec f i LIBCMT:std_type_info_static.obj
 0001:000a68ec       ??_Gtype_info@@UEAAPEAXI@Z 00000001800a78ec f i LIBCMT:std_type_info_static.obj
 0001:000a6918       __raise_securityfailure    00000001800a7918 f   LIBCMT:gs_report.obj
 0001:000a694c       __report_gsfailure         00000001800a794c f   LIBCMT:gs_report.obj
 0001:000a6a20       __report_rangecheckfailure 00000001800a7a20 f   LIBCMT:gs_report.obj
 0001:000a6a34       __report_securityfailure   00000001800a7a34 f   LIBCMT:gs_report.obj
 0001:000a6bb4       ??_U@YAPEAX_K@Z            00000001800a7bb4 f   LIBCMT:new_array.obj
 0001:000a6bbc       _Init_thread_abort         00000001800a7bbc f   LIBCMT:thread_safe_statics.obj
 0001:000a6bf8       _Init_thread_footer        00000001800a7bf8 f   LIBCMT:thread_safe_statics.obj
 0001:000a6c64       _Init_thread_header        00000001800a7c64 f   LIBCMT:thread_safe_statics.obj
 0001:000a6ffc       _DllMainCRTStartup         00000001800a7ffc f   LIBCMT:dll_dllmain.obj
 0001:000a703c       ??0bad_alloc@std@@QEAA@AEBV01@@Z 00000001800a803c f i LIBCMT:throw_bad_alloc.obj
 0001:000a7078       ??0bad_alloc@std@@QEAA@XZ  00000001800a8078 f i LIBCMT:throw_bad_alloc.obj
 0001:000a7098       ??0bad_array_new_length@std@@QEAA@AEBV01@@Z 00000001800a8098 f i LIBCMT:throw_bad_alloc.obj
 0001:000a70d4       ??0bad_array_new_length@std@@QEAA@XZ 00000001800a80d4 f i LIBCMT:throw_bad_alloc.obj
 0001:000a70f4       ??0exception@std@@QEAA@AEBV01@@Z 00000001800a80f4 f i LIBCMT:throw_bad_alloc.obj
 0001:000a7128       ??1bad_alloc@std@@UEAA@XZ  00000001800a8128 f i LIBCMT:throw_bad_alloc.obj
 0001:000a7128       ??1bad_array_new_length@std@@UEAA@XZ 00000001800a8128 f i LIBCMT:throw_bad_alloc.obj
 0001:000a7128       ??1bad_exception@std@@UEAA@XZ 00000001800a8128 f i libvcruntime:frame.obj
 0001:000a713c       ??_Ebad_alloc@std@@UEAAPEAXI@Z 00000001800a813c f i LIBCMT:throw_bad_alloc.obj
 0001:000a713c       ??_Ebad_array_new_length@std@@UEAAPEAXI@Z 00000001800a813c f i LIBCMT:throw_bad_alloc.obj
 0001:000a713c       ??_Ebad_exception@std@@UEAAPEAXI@Z 00000001800a813c f i libvcruntime:frame.obj
 0001:000a713c       ??_Eexception@std@@UEAAPEAXI@Z 00000001800a813c f i LIBCMT:throw_bad_alloc.obj
 0001:000a713c       ??_Gbad_alloc@std@@UEAAPEAXI@Z 00000001800a813c f i LIBCMT:throw_bad_alloc.obj
 0001:000a713c       ??_Gbad_array_new_length@std@@UEAAPEAXI@Z 00000001800a813c f i LIBCMT:throw_bad_alloc.obj
 0001:000a713c       ??_Gbad_exception@std@@UEAAPEAXI@Z 00000001800a813c f i libvcruntime:frame.obj
 0001:000a713c       ??_Gexception@std@@UEAAPEAXI@Z 00000001800a813c f i LIBCMT:throw_bad_alloc.obj
 0001:000a7180       ?__scrt_throw_std_bad_alloc@@YAXXZ 00000001800a8180 f   LIBCMT:throw_bad_alloc.obj
 0001:000a71a0       ?__scrt_throw_std_bad_array_new_length@@YAXXZ 00000001800a81a0 f   LIBCMT:throw_bad_alloc.obj
 0001:000a71c0       ?what@exception@std@@UEBAPEBDXZ 00000001800a81c0 f i LIBCMT:throw_bad_alloc.obj
 0001:000a71d4       ??3@YAXPEAX@Z              00000001800a81d4 f   LIBCMT:delete_scalar.obj
 0001:000a71dc       __security_init_cookie     00000001800a81dc f   LIBCMT:gs_support.obj
 0001:000a7288       ?__scrt_initialize_type_info@@YAXXZ 00000001800a8288 f   LIBCMT:tncleanup.obj
 0001:000a7298       ?__scrt_uninitialize_type_info@@YAXXZ 00000001800a8298 f   LIBCMT:tncleanup.obj
 0001:000a72a4       __local_stdio_scanf_options 00000001800a82a4 f i LIBCMT:default_local_stdio_options.obj
 0001:000a72ac       __scrt_initialize_default_local_stdio_options 00000001800a82ac f   LIBCMT:default_local_stdio_options.obj
 0001:000a72c8       __scrt_acquire_startup_lock 00000001800a82c8 f   LIBCMT:utility.obj
 0001:000a7304       __scrt_dllmain_after_initialize_c 00000001800a8304 f   LIBCMT:utility.obj
 0001:000a7338       __scrt_dllmain_before_initialize_c 00000001800a8338 f   LIBCMT:utility.obj
 0001:000a7350       __scrt_dllmain_crt_thread_attach 00000001800a8350 f   LIBCMT:utility.obj
 0001:000a7378       __scrt_dllmain_crt_thread_detach 00000001800a8378 f   LIBCMT:utility.obj
 0001:000a7390       __scrt_dllmain_exception_filter 00000001800a8390 f   LIBCMT:utility.obj
 0001:000a73f0       __scrt_dllmain_uninitialize_c 00000001800a83f0 f   LIBCMT:utility.obj
 0001:000a7420       __scrt_dllmain_uninitialize_critical 00000001800a8420 f   LIBCMT:utility.obj
 0001:000a7434       __scrt_initialize_crt      00000001800a8434 f   LIBCMT:utility.obj
 0001:000a7480       __scrt_initialize_onexit_tables 00000001800a8480 f   LIBCMT:utility.obj
 0001:000a750c       __scrt_is_nonwritable_in_current_image 00000001800a850c f   LIBCMT:utility.obj
 0001:000a75a4       __scrt_release_startup_lock 00000001800a85a4 f   LIBCMT:utility.obj
 0001:000a75c8       __scrt_uninitialize_crt    00000001800a85c8 f   LIBCMT:utility.obj
 0001:000a75f4       __scrt_get_dyn_tls_init_callback 00000001800a85f4 f   LIBCMT:dyn_tls_init.obj
 0001:000a75fc       __crt_debugger_hook        00000001800a85fc f   LIBCMT:utility_desktop.obj
 0001:000a7604       __scrt_fastfail            00000001800a8604 f   LIBCMT:utility_desktop.obj
 0001:000a7750       _RTC_Initialize            00000001800a8750 f   LIBCMT:initsect.obj
 0001:000a778c       _RTC_Terminate             00000001800a878c f   LIBCMT:initsect.obj
 0001:000a77c8       __scrt_is_ucrt_dll_in_use  00000001800a87c8 f   LIBCMT:ucrt_detection.obj
 0001:000a77f0       memset_repstos             00000001800a87f0 f   libvcruntime:memset.obj
 0001:000a7810       memset                     00000001800a8810 f   libvcruntime:memset.obj
 0001:000a7b98       ??$_CallSETranslator@V__FrameHandler3@@@@YAHPEAUEHExceptionRecord@@PEA_KPEAU_CONTEXT@@PEAU_xDISPATCHER_CONTEXT@@PEBU_s_FuncInfo@@K1H@Z 00000001800a8b98 f i libvcruntime:risctrnsctrl.obj
 0001:000a7bec       ??$_CallSETranslator@V__FrameHandler4@@@@YAHPEAUEHExceptionRecord@@PEA_KPEAU_CONTEXT@@PEAU_xDISPATCHER_CONTEXT@@PEAUFuncInfo4@FH4@@K1H@Z 00000001800a8bec f i libvcruntime:risctrnsctrl.obj
 0001:000a7c40       ?CatchTryBlock@__FrameHandler3@@SAPEBU_s_TryBlockMapEntry@@PEBU_s_FuncInfo@@H@Z 00000001800a8c40 f   libvcruntime:risctrnsctrl.obj
 0001:000a7ca4       ?DecompFuncInfo@FH4@@YA_JPEAEAEAUFuncInfo4@1@_KH_N@Z 00000001800a8ca4 f i libvcruntime:risctrnsctrl.obj
 0001:000a7dd8       ?ExecutionInCatch@__FrameHandler3@@SA_NPEAU_xDISPATCHER_CONTEXT@@PEBU_s_FuncInfo@@@Z 00000001800a8dd8 f   libvcruntime:risctrnsctrl.obj
 0001:000a7e04       ?ExecutionInCatch@__FrameHandler4@@SA_NPEAU_xDISPATCHER_CONTEXT@@PEAUFuncInfo4@FH4@@@Z 00000001800a8e04 f   libvcruntime:risctrnsctrl.obj
 0001:000a7e0c       ?FrameUnwindToEmptyState@__FrameHandler3@@SAXPEA_KPEAU_xDISPATCHER_CONTEXT@@PEBU_s_FuncInfo@@@Z 00000001800a8e0c f   libvcruntime:risctrnsctrl.obj
 0001:000a7e70       ?FrameUnwindToEmptyState@__FrameHandler4@@SAXPEA_KPEAU_xDISPATCHER_CONTEXT@@PEAUFuncInfo4@FH4@@@Z 00000001800a8e70 f   libvcruntime:risctrnsctrl.obj
 0001:000a7ea4       ?GetEstablisherFrame@__FrameHandler3@@SAPEA_KPEA_KPEAU_xDISPATCHER_CONTEXT@@PEBU_s_FuncInfo@@0@Z 00000001800a8ea4 f   libvcruntime:risctrnsctrl.obj
 0001:000a7f70       ?GetEstablisherFrame@__FrameHandler4@@SAPEA_KPEA_KPEAU_xDISPATCHER_CONTEXT@@PEAUFuncInfo4@FH4@@0@Z 00000001800a8f70 f   libvcruntime:risctrnsctrl.obj
 0001:000a7f94       ?GetRangeOfTrysToCheck@__FrameHandler3@@SA?AU?$pair@Viterator@TryBlockMap@__FrameHandler3@@V123@@std@@AEAVTryBlockMap@1@HPEAU_xDISPATCHER_CONTEXT@@PEBU_s_FuncInfo@@H@Z 00000001800a8f94 f   libvcruntime:risctrnsctrl.obj
 0001:000a80d4       ?GetRangeOfTrysToCheck@__FrameHandler4@@SA?AU?$pair@Viterator@TryBlockMap4@FH4@@V123@@std@@AEAVTryBlockMap4@FH4@@HPEAU_xDISPATCHER_CONTEXT@@PEAUFuncInfo4@5@H@Z 00000001800a90d4 f   libvcruntime:risctrnsctrl.obj
 0001:000a8240       ?UnwindNestedFrames@__FrameHandler3@@SAXPEA_KPEAUEHExceptionRecord@@PEAU_CONTEXT@@0PEAXPEBU_s_FuncInfo@@HHPEBU_s_HandlerType@@PEAU_xDISPATCHER_CONTEXT@@E@Z 00000001800a9240 f   libvcruntime:risctrnsctrl.obj
 0001:000a8344       ?UnwindNestedFrames@__FrameHandler4@@SAXPEA_KPEAUEHExceptionRecord@@PEAU_CONTEXT@@0PEAXPEAUFuncInfo4@FH4@@HHPEAUHandlerType4@5@PEAU_xDISPATCHER_CONTEXT@@E@Z 00000001800a9344 f   libvcruntime:risctrnsctrl.obj
 0001:000a8464       ?setBuffer@TryBlockMap4@FH4@@QEAAXViterator@12@@Z 00000001800a9464 f i libvcruntime:risctrnsctrl.obj
 0001:000a8628       _CreateFrameInfo           00000001800a9628 f   libvcruntime:risctrnsctrl.obj
 0001:000a8664       _FindAndUnlinkFrame        00000001800a9664 f   libvcruntime:risctrnsctrl.obj
 0001:000a86b8       _GetImageBase              00000001800a96b8 f   libvcruntime:risctrnsctrl.obj
 0001:000a86cc       _GetThrowImageBase         00000001800a96cc f   libvcruntime:risctrnsctrl.obj
 0001:000a86e0       _SetImageBase              00000001800a96e0 f   libvcruntime:risctrnsctrl.obj
 0001:000a86f8       _SetThrowImageBase         00000001800a96f8 f   libvcruntime:risctrnsctrl.obj
 0001:000a8710       __CxxFrameHandler3         00000001800a9710 f   libvcruntime:risctrnsctrl.obj
 0001:000a8798       __CxxFrameHandler4         00000001800a9798 f   libvcruntime:risctrnsctrl.obj
 0001:000a8870       memcpy_repmovs             00000001800a9870 f   libvcruntime:memcpy.obj
 0001:000a8890       memcpy                     00000001800a9890 f   libvcruntime:memcpy.obj
 0001:000a8890       memmove                    00000001800a9890 f   libvcruntime:memcpy.obj
 0001:000a8f00       _get_purecall_handler      00000001800a9f00 f   libvcruntime:purevirt.obj
 0001:000a8f0c       _purecall                  00000001800a9f0c f   libvcruntime:purevirt.obj
 0001:000a8f40       memcmp                     00000001800a9f40 f   libvcruntime:memcmp.obj
 0001:000a9008       __C_specific_handler       00000001800aa008 f   libvcruntime:riscchandler.obj
 0001:000a9200       __std_exception_copy       00000001800aa200 f   libvcruntime:std_exception.obj
 0001:000a9290       __std_exception_destroy    00000001800aa290 f   libvcruntime:std_exception.obj
 0001:000a92b8       _CxxThrowException         00000001800aa2b8 f   libvcruntime:throw.obj
 0001:000a9360       __std_type_info_compare    00000001800aa360 f   libvcruntime:std_type_info.obj
 0001:000a9388       __std_type_info_destroy_list 00000001800aa388 f   libvcruntime:std_type_info.obj
 0001:000a93b4       __vcrt_initialize          00000001800aa3b4 f   libvcruntime:initialization.obj
 0001:000a93dc       __vcrt_thread_attach       00000001800aa3dc f   libvcruntime:initialization.obj
 0001:000a93f0       __vcrt_thread_detach       00000001800aa3f0 f   libvcruntime:initialization.obj
 0001:000a9400       __vcrt_uninitialize        00000001800aa400 f   libvcruntime:initialization.obj
 0001:000a941c       __vcrt_uninitialize_critical 00000001800aa41c f   libvcruntime:initialization.obj
 0001:000a942c       __DestructExceptionObject  00000001800aa42c f   libvcruntime:ehhelpers.obj
 0001:000a949c       ?_CallMemberFunction0@@YAXQEAX0@Z 00000001800aa49c f i libvcruntime:ehhelpers.obj
 0001:000a94a0       _IsExceptionObjectToBeDestroyed 00000001800aa4a0 f   libvcruntime:ehhelpers.obj
 0001:000a94d0       __AdjustPointer            00000001800aa4d0 f   libvcruntime:ehhelpers.obj
 0001:000a94f4       __FrameUnwindFilter        00000001800aa4f4 f   libvcruntime:ehhelpers.obj
 0001:000a955c       __std_terminate            00000001800aa55c f   libvcruntime:ehhelpers.obj
 0001:000a9568       __vcrt_freefls             00000001800aa568 f   libvcruntime:per_thread_data.obj
 0001:000a9588       __vcrt_freeptd_for_this_thread 00000001800aa588 f   libvcruntime:per_thread_data.obj
 0001:000a95d0       __vcrt_getptd              00000001800aa5d0 f   libvcruntime:per_thread_data.obj
 0001:000a95ec       __vcrt_getptd_noexit       00000001800aa5ec f   libvcruntime:per_thread_data.obj
 0001:000a96ac       __vcrt_initialize_ptd      00000001800aa6ac f   libvcruntime:per_thread_data.obj
 0001:000a96f4       __vcrt_uninitialize_ptd    00000001800aa6f4 f   libvcruntime:per_thread_data.obj
 0001:000a9718       ?GetCurrentState@__FrameHandler3@@SAHPEA_KPEAU_xDISPATCHER_CONTEXT@@PEBU_s_FuncInfo@@@Z 00000001800aa718 f   libvcruntime:ehstate.obj
 0001:000a9740       ?GetUnwindTryBlock@__FrameHandler3@@SAHPEA_KPEAU_xDISPATCHER_CONTEXT@@PEBU_s_FuncInfo@@@Z 00000001800aa740 f   libvcruntime:ehstate.obj
 0001:000a976c       ?SetState@__FrameHandler3@@SAXPEA_KPEBU_s_FuncInfo@@H@Z 00000001800aa76c f   libvcruntime:ehstate.obj
 0001:000a9778       ?SetUnwindTryBlock@__FrameHandler3@@SAXPEA_KPEAU_xDISPATCHER_CONTEXT@@PEBU_s_FuncInfo@@H@Z 00000001800aa778 f   libvcruntime:ehstate.obj
 0001:000a97b4       ?StateFromControlPc@__FrameHandler3@@SAHPEBU_s_FuncInfo@@PEAU_xDISPATCHER_CONTEXT@@@Z 00000001800aa7b4 f   libvcruntime:ehstate.obj
 0001:000a97bc       ?StateFromControlPc@__FrameHandler4@@SAHPEAUFuncInfo4@FH4@@PEAU_xDISPATCHER_CONTEXT@@@Z 00000001800aa7bc f   libvcruntime:ehstate.obj
 0001:000a97c4       ?StateFromIp@__FrameHandler3@@SAHPEBU_s_FuncInfo@@PEAU_xDISPATCHER_CONTEXT@@_K@Z 00000001800aa7c4 f   libvcruntime:ehstate.obj
 0001:000a982c       ?StateFromIp@__FrameHandler4@@SAHPEAUFuncInfo4@FH4@@PEAU_xDISPATCHER_CONTEXT@@_K@Z 00000001800aa82c f   libvcruntime:ehstate.obj
 0001:000aaf2c       ??$TypeMatchHelper@V__FrameHandler3@@@@YAHPEBU_s_HandlerType@@PEBU_s_CatchableType@@PEBU_s_ThrowInfo@@@Z 00000001800abf2c f i libvcruntime:frame.obj
 0001:000ab06c       ??$TypeMatchHelper@V__FrameHandler4@@@@YAHPEAUHandlerType4@FH4@@PEBU_s_CatchableType@@PEBU_s_ThrowInfo@@@Z 00000001800ac06c f i libvcruntime:frame.obj
 0001:000ab1b0       ??$__InternalCxxFrameHandler@V__FrameHandler3@@@@YA?AW4_EXCEPTION_DISPOSITION@@PEAUEHExceptionRecord@@PEA_KPEAU_CONTEXT@@PEAU_xDISPATCHER_CONTEXT@@PEBU_s_FuncInfo@@H1E@Z 00000001800ac1b0 f i libvcruntime:frame.obj
 0001:000ab3e8       ??$__InternalCxxFrameHandler@V__FrameHandler4@@@@YA?AW4_EXCEPTION_DISPOSITION@@PEAUEHExceptionRecord@@PEA_KPEAU_CONTEXT@@PEAU_xDISPATCHER_CONTEXT@@PEAUFuncInfo4@FH4@@H1E@Z 00000001800ac3e8 f i libvcruntime:frame.obj
 0001:000ab67c       ??$__InternalCxxFrameHandlerWrapper@V__FrameHandler3@@@@YA?AW4_EXCEPTION_DISPOSITION@@PEAUEHExceptionRecord@@PEA_KPEAU_CONTEXT@@PEAU_xDISPATCHER_CONTEXT@@PEBU_s_FuncInfo@@H1E@Z 00000001800ac67c f i libvcruntime:frame.obj
 0001:000ab684       ??$__InternalCxxFrameHandlerWrapper@V__FrameHandler4@@@@YA?AW4_EXCEPTION_DISPOSITION@@PEAUEHExceptionRecord@@PEA_KPEAU_CONTEXT@@PEAU_xDISPATCHER_CONTEXT@@PEAUFuncInfo4@FH4@@H1E@Z 00000001800ac684 f i libvcruntime:frame.obj
 0001:000ab6d0       ??0HandlerMap4@FH4@@QEAA@PEBUTryBlockMapEntry4@1@_KH@Z 00000001800ac6d0 f i libvcruntime:frame.obj
 0001:000ab754       ??0TryBlockMap4@FH4@@QEAA@PEBUFuncInfo4@1@_K@Z 00000001800ac754 f i libvcruntime:frame.obj
 0001:000ab838       ??0bad_exception@std@@QEAA@AEBV01@@Z 00000001800ac838 f i libvcruntime:frame.obj
 0001:000ab874       ??0bad_exception@std@@QEAA@XZ 00000001800ac874 f i libvcruntime:frame.obj
 0001:000ab894       ?CxxCallCatchBlock@__FrameHandler3@@SAPEAXPEAU_EXCEPTION_RECORD@@@Z 00000001800ac894 f   libvcruntime:frame.obj
 0001:000aba80       ?CxxCallCatchBlock@__FrameHandler4@@SAPEAXPEAU_EXCEPTION_RECORD@@@Z 00000001800aca80 f   libvcruntime:frame.obj
 0001:000abcd0       ?DecompHandler@HandlerMap4@FH4@@AEAAXXZ 00000001800accd0 f i libvcruntime:frame.obj
 0001:000abf1c       ?FrameUnwindToState@__FrameHandler3@@SAXPEA_KPEAU_xDISPATCHER_CONTEXT@@PEBU_s_FuncInfo@@H@Z 00000001800acf1c f   libvcruntime:frame.obj
 0001:000ac0a8       ?FrameUnwindToState@__FrameHandler4@@SAXPEA_KPEAU_xDISPATCHER_CONTEXT@@PEAUFuncInfo4@FH4@@H@Z 00000001800ad0a8 f   libvcruntime:frame.obj
 0001:000ac3ac       ?GetHandlerSearchState@__FrameHandler3@@SAHPEA_KPEAU_xDISPATCHER_CONTEXT@@PEBU_s_FuncInfo@@@Z 00000001800ad3ac f i libvcruntime:frame.obj
 0001:000ac5bc       ?ReadEntry@UWMap4@FH4@@AEAAXPEAPEAE@Z 00000001800ad5bc f i libvcruntime:frame.obj
 0001:000ac658       ?_CallMemberFunction1@@YAXQEAX00@Z 00000001800ad658 f i libvcruntime:frame.obj
 0001:000ac664       ?_CallMemberFunction2@@YAXQEAX00H@Z 00000001800ad664 f i libvcruntime:frame.obj
 0001:000ac674       ?getStartStop@UWMap4@FH4@@QEAAXHHAEAViterator@12@0@Z 00000001800ad674 f i libvcruntime:frame.obj
 0001:000ac744       ?getStateFromIterators@UWMap4@FH4@@SAHAEBViterator@12@H0H0@Z 00000001800ad744 f i libvcruntime:frame.obj
 0001:000ac810       _NLG_Notify                00000001800ad810 f   libvcruntime:notify.obj
 0001:000ac830       __NLG_Dispatch2            00000001800ad830 f   libvcruntime:notify.obj
 0001:000ac840       __NLG_Return2              00000001800ad840 f   libvcruntime:notify.obj
 0001:000ac844       __except_validate_context_record 00000001800ad844 f   libvcruntime:jbcxrval.obj
 0001:000ac87c       __vcrt_initialize_locks    00000001800ad87c f   libvcruntime:locks.obj
 0001:000ac8c4       __vcrt_uninitialize_locks  00000001800ad8c4 f   libvcruntime:locks.obj
 0001:000aca4c       __vcrt_FlsAlloc            00000001800ada4c f   libvcruntime:winapi_downlevel.obj
 0001:000aca94       __vcrt_FlsFree             00000001800ada94 f   libvcruntime:winapi_downlevel.obj
 0001:000acadc       __vcrt_FlsGetValue         00000001800adadc f   libvcruntime:winapi_downlevel.obj
 0001:000acb24       __vcrt_FlsSetValue         00000001800adb24 f   libvcruntime:winapi_downlevel.obj
 0001:000acb78       __vcrt_InitializeCriticalSectionEx 00000001800adb78 f   libvcruntime:winapi_downlevel.obj
 0001:000acbf0       _CallSettingFrame          00000001800adbf0 f   libvcruntime:handlers.obj
 0001:000acc40       _CallSettingFrame_LookupContinuationIndex 00000001800adc40 f   libvcruntime:handlers.obj
 0001:000acc70       _CallSettingFrame_NotifyContinuationAddr 00000001800adc70 f   libvcruntime:handlers.obj
 0001:000acca0       _CallSettingFrameEncoded   00000001800adca0 f   libvcruntime:handlers.obj
 0001:000acce8       free                       00000001800adce8 f   libucrt:free.obj
 0001:000accfc       malloc                     00000001800adcfc f   libucrt:malloc.obj
 0001:000acd04       floor                      00000001800add04 f   libucrt:floor.obj
 0001:000acdc0       log10                      00000001800addc0 f   libucrt:log10.obj
 0001:000ad370       log                        00000001800ae370 f   libucrt:log.obj
 0001:000ad89c       sqrtf                      00000001800ae89c f   libucrt:sqrtf.obj
 0001:000ad93c       ceil                       00000001800ae93c f   libucrt:ceil.obj
 0001:000ada10       strcmp                     00000001800aea10 f   libucrt:strcmp.obj
 0001:000ada78       strncpy_s                  00000001800aea78 f   libucrt:strncpy_s.obj
 0001:000adb68       ??$__acrt_convert_wcs_mbs_cp@D_WV<lambda_7c9dea7b4ca7285d2cdb541a38da6275>@@U__crt_win32_buffer_internal_dynamic_resizing@@@@YAHQEBDAEAV?$__crt_win32_buffer@_WU__crt_win32_buffer_internal_dynamic_resizing@@@@AEBV<lambda_7c9dea7b4ca7285d2cdb541a38da6275>@@I@Z 00000001800aeb68 f i libucrt:strftime.obj
 0001:000adce4       ??$__acrt_convert_wcs_mbs_cp@_WDV<lambda_f788ae46380686e8b737efdd8c720d07>@@U__crt_win32_buffer_no_resizing@@@@YAHQEB_WAEAV?$__crt_win32_buffer@DU__crt_win32_buffer_no_resizing@@@@AEBV<lambda_f788ae46380686e8b737efdd8c720d07>@@I@Z 00000001800aece4 f i libucrt:strftime.obj
 0001:000ade00       ??0_LocaleUpdate@@QEAA@QEAU__crt_locale_pointers@@@Z 00000001800aee00 f i libucrt:strftime.obj
 0001:000adfbc       ?get_raw_ptd@__crt_cached_ptd_host@@QEAAPEAU__acrt_ptd@@XZ 00000001800aefbc f i libucrt:fclose.obj
 0001:000ae024       fclose                     00000001800af024 f   libucrt:fclose.obj
 0001:000ae298       __acrt_stdio_flush_nolock  00000001800af298 f   libucrt:fflush.obj
 0001:000ae324       _fflush_nolock             00000001800af324 f   libucrt:fflush.obj
 0001:000ae3f8       _flushall                  00000001800af3f8 f   libucrt:fflush.obj
 0001:000ae5f0       ??$ensure_buffer_is_big_enough@D@formatting_buffer@__crt_stdio_output@@QEAA_N_KAEAV__crt_cached_ptd_host@@@Z 00000001800af5f0 f i libucrt:output.obj
 0001:000ae698       ??$parse_integer@KV?$c_string_character_source@D@__crt_strtox@@$0A@@__crt_strtox@@YAKAEAV__crt_cached_ptd_host@@V?$c_string_character_source@D@0@H_N@Z 00000001800af698 f i libucrt:output.obj
 0001:000ae948       ??$type_case_integer@$07@?$output_processor@DV?$stream_output_adapter@D@__crt_stdio_output@@V?$standard_base@DV?$stream_output_adapter@D@__crt_stdio_output@@@2@@__crt_stdio_output@@AEAA_N_N@Z 00000001800af948 f i libucrt:output.obj
 0001:000ae948       ??$type_case_integer@$07@?$output_processor@DV?$string_output_adapter@D@__crt_stdio_output@@V?$format_validation_base@DV?$string_output_adapter@D@__crt_stdio_output@@@2@@__crt_stdio_output@@AEAA_N_N@Z 00000001800af948 f i libucrt:output.obj
 0001:000aeb30       ??$type_case_integer@$09@?$output_processor@DV?$stream_output_adapter@D@__crt_stdio_output@@V?$standard_base@DV?$stream_output_adapter@D@__crt_stdio_output@@@2@@__crt_stdio_output@@AEAA_N_N@Z 00000001800afb30 f i libucrt:output.obj
 0001:000aeb30       ??$type_case_integer@$09@?$output_processor@DV?$string_output_adapter@D@__crt_stdio_output@@V?$format_validation_base@DV?$string_output_adapter@D@__crt_stdio_output@@@2@@__crt_stdio_output@@AEAA_N_N@Z 00000001800afb30 f i libucrt:output.obj
 0001:000aed18       ??$type_case_integer@$0BA@@?$output_processor@DV?$stream_output_adapter@D@__crt_stdio_output@@V?$standard_base@DV?$stream_output_adapter@D@__crt_stdio_output@@@2@@__crt_stdio_output@@AEAA_N_N@Z 00000001800afd18 f i libucrt:output.obj
 0001:000aed18       ??$type_case_integer@$0BA@@?$output_processor@DV?$string_output_adapter@D@__crt_stdio_output@@V?$format_validation_base@DV?$string_output_adapter@D@__crt_stdio_output@@@2@@__crt_stdio_output@@AEAA_N_N@Z 00000001800afd18 f i libucrt:output.obj
 0001:000aef00       ??$type_case_integer_parse_into_buffer@I$07@?$output_processor@DV?$stream_output_adapter@D@__crt_stdio_output@@V?$standard_base@DV?$stream_output_adapter@D@__crt_stdio_output@@@2@@__crt_stdio_output@@AEAAXI_N@Z 00000001800aff00 f i libucrt:output.obj
 0001:000aef00       ??$type_case_integer_parse_into_buffer@I$07@?$output_processor@DV?$string_output_adapter@D@__crt_stdio_output@@V?$format_validation_base@DV?$string_output_adapter@D@__crt_stdio_output@@@2@@__crt_stdio_output@@AEAAXI_N@Z 00000001800aff00 f i libucrt:output.obj
 0001:000aef7c       ??$type_case_integer_parse_into_buffer@I$09@?$output_processor@DV?$stream_output_adapter@D@__crt_stdio_output@@V?$standard_base@DV?$stream_output_adapter@D@__crt_stdio_output@@@2@@__crt_stdio_output@@AEAAXI_N@Z 00000001800aff7c f i libucrt:output.obj
 0001:000aef7c       ??$type_case_integer_parse_into_buffer@I$09@?$output_processor@DV?$string_output_adapter@D@__crt_stdio_output@@V?$format_validation_base@DV?$string_output_adapter@D@__crt_stdio_output@@@2@@__crt_stdio_output@@AEAAXI_N@Z 00000001800aff7c f i libucrt:output.obj
 0001:000af024       ??$type_case_integer_parse_into_buffer@I$0BA@@?$output_processor@DV?$stream_output_adapter@D@__crt_stdio_output@@V?$standard_base@DV?$stream_output_adapter@D@__crt_stdio_output@@@2@@__crt_stdio_output@@AEAAXI_N@Z 00000001800b0024 f i libucrt:output.obj
 0001:000af024       ??$type_case_integer_parse_into_buffer@I$0BA@@?$output_processor@DV?$string_output_adapter@D@__crt_stdio_output@@V?$format_validation_base@DV?$string_output_adapter@D@__crt_stdio_output@@@2@@__crt_stdio_output@@AEAAXI_N@Z 00000001800b0024 f i libucrt:output.obj
 0001:000af0b0       ??$type_case_integer_parse_into_buffer@_K$07@?$output_processor@DV?$stream_output_adapter@D@__crt_stdio_output@@V?$standard_base@DV?$stream_output_adapter@D@__crt_stdio_output@@@2@@__crt_stdio_output@@AEAAX_K_N@Z 00000001800b00b0 f i libucrt:output.obj
 0001:000af0b0       ??$type_case_integer_parse_into_buffer@_K$07@?$output_processor@DV?$string_output_adapter@D@__crt_stdio_output@@V?$format_validation_base@DV?$string_output_adapter@D@__crt_stdio_output@@@2@@__crt_stdio_output@@AEAAX_K_N@Z 00000001800b00b0 f i libucrt:output.obj
 0001:000af12c       ??$type_case_integer_parse_into_buffer@_K$09@?$output_processor@DV?$stream_output_adapter@D@__crt_stdio_output@@V?$standard_base@DV?$stream_output_adapter@D@__crt_stdio_output@@@2@@__crt_stdio_output@@AEAAX_K_N@Z 00000001800b012c f i libucrt:output.obj
 0001:000af12c       ??$type_case_integer_parse_into_buffer@_K$09@?$output_processor@DV?$string_output_adapter@D@__crt_stdio_output@@V?$format_validation_base@DV?$string_output_adapter@D@__crt_stdio_output@@@2@@__crt_stdio_output@@AEAAX_K_N@Z 00000001800b012c f i libucrt:output.obj
 0001:000af1d8       ??$type_case_integer_parse_into_buffer@_K$0BA@@?$output_processor@DV?$stream_output_adapter@D@__crt_stdio_output@@V?$standard_base@DV?$stream_output_adapter@D@__crt_stdio_output@@@2@@__crt_stdio_output@@AEAAX_K_N@Z 00000001800b01d8 f i libucrt:output.obj
 0001:000af1d8       ??$type_case_integer_parse_into_buffer@_K$0BA@@?$output_processor@DV?$string_output_adapter@D@__crt_stdio_output@@V?$format_validation_base@DV?$string_output_adapter@D@__crt_stdio_output@@@2@@__crt_stdio_output@@AEAAX_K_N@Z 00000001800b01d8 f i libucrt:output.obj
 0001:000af380       ?crop_zeroes@__crt_stdio_output@@YAXPEADQEAU__crt_locale_pointers@@@Z 00000001800b0380 f i libucrt:output.obj
 0001:000af3ec       ?parse_int_from_format_string@?$output_processor@DV?$stream_output_adapter@D@__crt_stdio_output@@V?$standard_base@DV?$stream_output_adapter@D@__crt_stdio_output@@@2@@__crt_stdio_output@@AEAA_NQEAH@Z 00000001800b03ec f i libucrt:output.obj
 0001:000af3ec       ?parse_int_from_format_string@?$output_processor@DV?$string_output_adapter@D@__crt_stdio_output@@V?$format_validation_base@DV?$string_output_adapter@D@__crt_stdio_output@@@2@@__crt_stdio_output@@AEAA_NQEAH@Z 00000001800b03ec f i libucrt:output.obj
 0001:000af47c       ?process@?$output_processor@DV?$stream_output_adapter@D@__crt_stdio_output@@V?$standard_base@DV?$stream_output_adapter@D@__crt_stdio_output@@@2@@__crt_stdio_output@@QEAAHXZ 00000001800b047c f i libucrt:output.obj
 0001:000af808       ?process@?$output_processor@DV?$string_output_adapter@D@__crt_stdio_output@@V?$format_validation_base@DV?$string_output_adapter@D@__crt_stdio_output@@@2@@__crt_stdio_output@@QEAAHXZ 00000001800b0808 f i libucrt:output.obj
 0001:000afb98       ?state_case_size@?$output_processor@DV?$stream_output_adapter@D@__crt_stdio_output@@V?$standard_base@DV?$stream_output_adapter@D@__crt_stdio_output@@@2@@__crt_stdio_output@@AEAA_NXZ 00000001800b0b98 f i libucrt:output.obj
 0001:000afd1c       ?state_case_size@?$output_processor@DV?$string_output_adapter@D@__crt_stdio_output@@V?$format_validation_base@DV?$string_output_adapter@D@__crt_stdio_output@@@2@@__crt_stdio_output@@AEAA_NXZ 00000001800b0d1c f i libucrt:output.obj
 0001:000afea0       ?state_case_type@?$output_processor@DV?$stream_output_adapter@D@__crt_stdio_output@@V?$standard_base@DV?$stream_output_adapter@D@__crt_stdio_output@@@2@@__crt_stdio_output@@AEAA_NXZ 00000001800b0ea0 f i libucrt:output.obj
 0001:000b02d4       ?state_case_type@?$output_processor@DV?$string_output_adapter@D@__crt_stdio_output@@V?$format_validation_base@DV?$string_output_adapter@D@__crt_stdio_output@@@2@@__crt_stdio_output@@AEAA_NXZ 00000001800b12d4 f i libucrt:output.obj
 0001:000b06a0       ?type_case_Z@?$output_processor@DV?$stream_output_adapter@D@__crt_stdio_output@@V?$standard_base@DV?$stream_output_adapter@D@__crt_stdio_output@@@2@@__crt_stdio_output@@AEAA_NXZ 00000001800b16a0 f i libucrt:output.obj
 0001:000b06a0       ?type_case_Z@?$output_processor@DV?$string_output_adapter@D@__crt_stdio_output@@V?$format_validation_base@DV?$string_output_adapter@D@__crt_stdio_output@@@2@@__crt_stdio_output@@AEAA_NXZ 00000001800b16a0 f i libucrt:output.obj
 0001:000b0718       ?type_case_a@?$output_processor@DV?$stream_output_adapter@D@__crt_stdio_output@@V?$standard_base@DV?$stream_output_adapter@D@__crt_stdio_output@@@2@@__crt_stdio_output@@AEAA_NXZ 00000001800b1718 f i libucrt:output.obj
 0001:000b0718       ?type_case_a@?$output_processor@DV?$string_output_adapter@D@__crt_stdio_output@@V?$format_validation_base@DV?$string_output_adapter@D@__crt_stdio_output@@@2@@__crt_stdio_output@@AEAA_NXZ 00000001800b1718 f i libucrt:output.obj
 0001:000b0964       ?type_case_c_tchar@?$output_processor@DV?$stream_output_adapter@D@__crt_stdio_output@@V?$standard_base@DV?$stream_output_adapter@D@__crt_stdio_output@@@2@@__crt_stdio_output@@AEAA_ND@Z 00000001800b1964 f i libucrt:output.obj
 0001:000b0964       ?type_case_c_tchar@?$output_processor@DV?$string_output_adapter@D@__crt_stdio_output@@V?$format_validation_base@DV?$string_output_adapter@D@__crt_stdio_output@@@2@@__crt_stdio_output@@AEAA_ND@Z 00000001800b1964 f i libucrt:output.obj
 0001:000b0a28       ?type_case_n@?$output_processor@DV?$stream_output_adapter@D@__crt_stdio_output@@V?$standard_base@DV?$stream_output_adapter@D@__crt_stdio_output@@@2@@__crt_stdio_output@@AEAA_NXZ 00000001800b1a28 f i libucrt:output.obj
 0001:000b0a28       ?type_case_n@?$output_processor@DV?$string_output_adapter@D@__crt_stdio_output@@V?$format_validation_base@DV?$string_output_adapter@D@__crt_stdio_output@@@2@@__crt_stdio_output@@AEAA_NXZ 00000001800b1a28 f i libucrt:output.obj
 0001:000b0adc       ?type_case_s@?$output_processor@DV?$stream_output_adapter@D@__crt_stdio_output@@V?$standard_base@DV?$stream_output_adapter@D@__crt_stdio_output@@@2@@__crt_stdio_output@@AEAA_NXZ 00000001800b1adc f i libucrt:output.obj
 0001:000b0adc       ?type_case_s@?$output_processor@DV?$string_output_adapter@D@__crt_stdio_output@@V?$format_validation_base@DV?$string_output_adapter@D@__crt_stdio_output@@@2@@__crt_stdio_output@@AEAA_NXZ 00000001800b1adc f i libucrt:output.obj
 0001:000b0b80       ?update_locale_slow@__crt_cached_ptd_host@@AEAAXXZ 00000001800b1b80 f i libucrt:output.obj
 0001:000b0bf8       ?validate_stream_is_ansi_if_required@?$__acrt_stdio_char_traits@D@@SA_NQEAU_iobuf@@@Z 00000001800b1bf8 f i libucrt:output.obj
 0001:000b0c94       ?write_string@?$string_output_adapter@D@__crt_stdio_output@@QEBAXQEBDHQEAHAEAV__crt_cached_ptd_host@@@Z 00000001800b1c94 f i libucrt:output.obj
 0001:000b0d38       ?write_string_impl@?$output_adapter_common@DV?$stream_output_adapter@D@__crt_stdio_output@@@__crt_stdio_output@@IEBAXQEBDHQEAHAEAV__crt_cached_ptd_host@@@Z 00000001800b1d38 f i libucrt:output.obj
 0001:000b0e04       __stdio_common_vfprintf    00000001800b1e04 f   libucrt:output.obj
 0001:000b0f28       __stdio_common_vsnprintf_s 00000001800b1f28 f   libucrt:output.obj
 0001:000b1100       __acrt_initialize_stdio    00000001800b2100 f   libucrt:_file.obj
 0001:000b1220       __acrt_iob_func            00000001800b2220 f   libucrt:_file.obj
 0001:000b1234       __acrt_uninitialize_stdio  00000001800b2234 f   libucrt:_file.obj
 0001:000b1290       _lock_file                 00000001800b2290 f   libucrt:_file.obj
 0001:000b129c       _unlock_file               00000001800b229c f   libucrt:_file.obj
 0001:000b12a8       __acrt_initialize_new_handler 00000001800b22a8 f   libucrt:new_handler.obj
 0001:000b12b0       _callnewh                  00000001800b22b0 f   libucrt:new_handler.obj
 0001:000b12ec       _query_new_handler         00000001800b22ec f   libucrt:new_handler.obj
 0001:000b1320       _initterm                  00000001800b2320 f   libucrt:initterm.obj
 0001:000b1364       _initterm_e                00000001800b2364 f   libucrt:initterm.obj
 0001:000b13ac       _seh_filter_dll            00000001800b23ac f   libucrt:exception_filter.obj
 0001:000b13c0       _seh_filter_exe            00000001800b23c0 f   libucrt:exception_filter.obj
 0001:000b17e4       __acrt_initialize_thread_local_exit_callback 00000001800b27e4 f   libucrt:exit.obj
 0001:000b17ec       _cexit                     00000001800b27ec f   libucrt:exit.obj
 0001:000b17fc       _exit                      00000001800b27fc f   libucrt:exit.obj
 0001:000b1808       _is_c_termination_complete 00000001800b2808 f   libucrt:exit.obj
 0001:000b19d0       __acrt_allocate_buffer_for_argv 00000001800b29d0 f   libucrt:argv_parsing.obj
 0001:000b1a30       _configure_narrow_argv     00000001800b2a30 f   libucrt:argv_parsing.obj
 0001:000b1db8       __dcrt_uninitialize_environments_nolock 00000001800b2db8 f   libucrt:environment_initialization.obj
 0001:000b1dfc       _initialize_narrow_environment 00000001800b2dfc f   libucrt:environment_initialization.obj
 0001:000b1f60       _execute_onexit_table      00000001800b2f60 f   libucrt:onexit.obj
 0001:000b1fa4       _initialize_onexit_table   00000001800b2fa4 f   libucrt:onexit.obj
 0001:000b20f8       __acrt_initialize          00000001800b30f8 f   libucrt:initialization.obj
 0001:000b210c       __acrt_thread_attach       00000001800b310c f   libucrt:initialization.obj
 0001:000b2120       __acrt_thread_detach       00000001800b3120 f   libucrt:initialization.obj
 0001:000b2130       __acrt_uninitialize        00000001800b3130 f   libucrt:initialization.obj
 0001:000b2168       __acrt_uninitialize_critical 00000001800b3168 f   libucrt:initialization.obj
 0001:000b2178       terminate                  00000001800b3178 f   libucrt:terminate.obj
 0001:000b21a4       abort                      00000001800b31a4 f   libucrt:abort.obj
 0001:000b21fc       strcpy_s                   00000001800b31fc f   libucrt:strcpy_s.obj
 0001:000b225c       calloc                     00000001800b325c f   libucrt:calloc.obj
 0001:000b2280       strncmp                    00000001800b3280 f   libucrt:strncmp.obj
 0001:000b2300       wcsncmp                    00000001800b3300 f   libucrt:wcsncmp.obj
 0001:000b232c       _free_base                 00000001800b332c f   libucrt:free_base.obj
 0001:000b2368       _malloc_base               00000001800b3368 f   libucrt:malloc_base.obj
 0001:000b24ec       _handle_error              00000001800b34ec f   libucrt:libm_error.obj
 0001:000b2614       _handle_errorf             00000001800b3614 f   libucrt:libm_error.obj
 0001:000b2748       _handle_nan                00000001800b3748 f   libucrt:libm_error.obj
 0001:000b2764       _handle_nanf               00000001800b3764 f   libucrt:libm_error.obj
 0001:000b2780       __acrt_initialize_fma3     00000001800b3780 f   libucrt:fma3_available.obj
 0001:000b27f0       _log10_special             00000001800b37f0 f   libucrt:log_special.obj
 0001:000b2810       _log_special               00000001800b3810 f   libucrt:log_special.obj
 0001:000b28d0       ?get_raw_ptd_noexit@__crt_cached_ptd_host@@QEAAPEAU__acrt_ptd@@XZ 00000001800b38d0 f i libucrt:invalid_parameter.obj
 0001:000b293c       ?value@?$dual_state_global@P6AXPEB_W00I_K@Z@__crt_state_management@@QEAAAEAP6AXPEB_W00I_K@ZAEAV__crt_cached_ptd_host@@@Z 00000001800b393c f i libucrt:invalid_parameter.obj
 0001:000b2988       __acrt_call_reportfault    00000001800b3988 f   libucrt:invalid_parameter.obj
 0001:000b2ae4       __acrt_initialize_invalid_parameter_handler 00000001800b3ae4 f   libucrt:invalid_parameter.obj
 0001:000b2aec       _invalid_parameter         00000001800b3aec f   libucrt:invalid_parameter.obj
 0001:000b2b88       _invalid_parameter_internal 00000001800b3b88 f   libucrt:invalid_parameter.obj
 0001:000b2c58       _invalid_parameter_noinfo  00000001800b3c58 f   libucrt:invalid_parameter.obj
 0001:000b2c78       _invoke_watson             00000001800b3c78 f   libucrt:invalid_parameter.obj
 0001:000b2cc0       __acrt_errno_from_os_error 00000001800b3cc0 f   libucrt:errno.obj
 0001:000b2d08       __acrt_errno_map_os_error  00000001800b3d08 f   libucrt:errno.obj
 0001:000b2d50       __acrt_errno_map_os_error_ptd 00000001800b3d50 f   libucrt:errno.obj
 0001:000b2d74       __doserrno                 00000001800b3d74 f   libucrt:errno.obj
 0001:000b2d94       _errno                     00000001800b3d94 f   libucrt:errno.obj
 0001:000b2db4       __acrt_initialize_timeset  00000001800b3db4 f   libucrt:timeset.obj
 0001:000b2e04       __acrt_MultiByteToWideChar 00000001800b3e04 f   libucrt:multibytetowidechar.obj
 0001:000b2e60       __acrt_WideCharToMultiByte 00000001800b3e60 f   libucrt:widechartomultibyte.obj
 0001:000b3288       __acrt_freeptd             00000001800b4288 f   libucrt:per_thread_data.obj
 0001:000b32cc       __acrt_getptd              00000001800b42cc f   libucrt:per_thread_data.obj
 0001:000b33a0       __acrt_getptd_head         00000001800b43a0 f   libucrt:per_thread_data.obj
 0001:000b3444       __acrt_getptd_noexit       00000001800b4444 f   libucrt:per_thread_data.obj
 0001:000b350c       __acrt_getptd_noexit_explicit 00000001800b450c f   libucrt:per_thread_data.obj
 0001:000b35cc       __acrt_initialize_ptd      00000001800b45cc f   libucrt:per_thread_data.obj
 0001:000b3608       __acrt_uninitialize_ptd    00000001800b4608 f   libucrt:per_thread_data.obj
 0001:000b362c       __acrt_update_locale_info  00000001800b462c f   libucrt:locale_update.obj
 0001:000b3660       __acrt_update_locale_info_explicit 00000001800b4660 f   libucrt:locale_update.obj
 0001:000b3698       __acrt_update_multibyte_info 00000001800b4698 f   libucrt:locale_update.obj
 0001:000b36cc       __acrt_update_multibyte_info_explicit 00000001800b46cc f   libucrt:locale_update.obj
 0001:000b3774       __acrt_set_locale_changed  00000001800b4774 f   libucrt:wsetlocale.obj
 0001:000b3780       __acrt_uninitialize_locale 00000001800b4780 f   libucrt:wsetlocale.obj
 0001:000b3970       __acrt_AppPolicyGetProcessTerminationMethodInternal 00000001800b4970 f   libucrt:winapi_thunks.obj
 0001:000b39c8       __acrt_AreFileApisANSI     00000001800b49c8 f   libucrt:winapi_thunks.obj
 0001:000b3a0c       __acrt_FlsAlloc            00000001800b4a0c f   libucrt:winapi_thunks.obj
 0001:000b3a14       __acrt_FlsFree             00000001800b4a14 f   libucrt:winapi_thunks.obj
 0001:000b3a1c       __acrt_FlsGetValue         00000001800b4a1c f   libucrt:winapi_thunks.obj
 0001:000b3a24       __acrt_FlsSetValue         00000001800b4a24 f   libucrt:winapi_thunks.obj
 0001:000b3a2c       __acrt_InitializeCriticalSectionEx 00000001800b4a2c f   libucrt:winapi_thunks.obj
 0001:000b3a9c       __acrt_LCMapStringEx       00000001800b4a9c f   libucrt:winapi_thunks.obj
 0001:000b3b88       __acrt_LocaleNameToLCID    00000001800b4b88 f   libucrt:winapi_thunks.obj
 0001:000b3be8       __acrt_initialize_winapi_thunks 00000001800b4be8 f   libucrt:winapi_thunks.obj
 0001:000b3c0c       __acrt_uninitialize_winapi_thunks 00000001800b4c0c f   libucrt:winapi_thunks.obj
 0001:000b3c50       ?__acrt_stdio_free_stream@@YAXV__crt_stdio_stream@@@Z 00000001800b4c50 f   libucrt:stream.obj
 0001:000b3c6c       _fileno                    00000001800b4c6c f   libucrt:fileno.obj
 0001:000b3d0c       _close_internal            00000001800b4d0c f   libucrt:close.obj
 0001:000b3dd0       _close_nolock_internal     00000001800b4dd0 f   libucrt:close.obj
 0001:000b3ea0       __acrt_stdio_free_buffer_nolock 00000001800b4ea0 f   libucrt:_freebuf.obj
 0001:000b3ee0       __acrt_initialize_locks    00000001800b4ee0 f   libucrt:locks.obj
 0001:000b3f28       __acrt_lock                00000001800b4f28 f   libucrt:locks.obj
 0001:000b3f44       __acrt_uninitialize_locks  00000001800b4f44 f   libucrt:locks.obj
 0001:000b3f7c       __acrt_unlock              00000001800b4f7c f   libucrt:locks.obj
 0001:000b4024       _commit                    00000001800b5024 f   libucrt:commit.obj
 0001:000b48d4       _write_internal            00000001800b58d4 f   libucrt:write.obj
 0001:000b49fc       _write_nolock              00000001800b59fc f   libucrt:write.obj
 0001:000b4ee0       _lseeki64                  00000001800b5ee0 f   libucrt:lseek.obj
 0001:000b4f7c       _lseeki64_nolock_internal  00000001800b5f7c f   libucrt:lseek.obj
 0001:000b517c       __acrt_initialize_lowio    00000001800b617c f   libucrt:ioinit.obj
 0001:000b51b8       __acrt_uninitialize_lowio  00000001800b61b8 f   libucrt:ioinit.obj
 0001:000b536c       __acrt_stdio_flush_and_write_narrow_nolock 00000001800b636c f   libucrt:_flsbuf.obj
 0001:000b5430       __acrt_should_use_temporary_buffer 00000001800b6430 f   libucrt:_sftbuf.obj
 0001:000b5478       __acrt_stdio_begin_temporary_buffering_nolock 00000001800b6478 f   libucrt:_sftbuf.obj
 0001:000b5540       __acrt_stdio_end_temporary_buffering_nolock 00000001800b6540 f   libucrt:_sftbuf.obj
 0001:000b557c       strnlen                    00000001800b657c f   libucrt:strnlen.obj
 0001:000b56cc       wcsnlen                    00000001800b66cc f   libucrt:strnlen.obj
 0001:000b63d4       __acrt_fp_format           00000001800b73d4 f   libucrt:cvt.obj
 0001:000b66bc       _wctomb_internal           00000001800b76bc f   libucrt:wctomb.obj
 0001:000b686c       _mbtowc_internal           00000001800b786c f   libucrt:mbtowc.obj
 0001:000b69e4       _get_printf_count_output   00000001800b79e4 f   libucrt:printf_count_output.obj
 0001:000b69fc       _fputc_nolock_internal     00000001800b79fc f   libucrt:fputc.obj
 0001:000b6a14       _calloc_base               00000001800b7a14 f   libucrt:calloc_base.obj
 0001:000b6a8c       _fcloseall                 00000001800b7a8c f   libucrt:closeall.obj
 0001:000b6b40       __acrt_get_process_end_policy 00000001800b7b40 f   libucrt:win_policies.obj
 0001:000b6b90       ??$__acrt_convert_wcs_mbs_cp@_WDV<lambda_d8593a27d1aa8c02be35c86a17d324c4>@@U__crt_win32_buffer_internal_dynamic_resizing@@@@YAHQEB_WAEAV?$__crt_win32_buffer@DU__crt_win32_buffer_internal_dynamic_resizing@@@@AEBV<lambda_d8593a27d1aa8c02be35c86a17d324c4>@@I@Z 00000001800b7b90 f i libucrt:argv_wildcards.obj
 0001:000b7438       __acrt_expand_narrow_argv_wildcards 00000001800b8438 f   libucrt:argv_wildcards.obj
 0001:000b7440       __acrt_GetModuleFileNameA  00000001800b8440 f   libucrt:getmodulefilenamea.obj
 0001:000b7d5c       __acrt_initialize_multibyte 00000001800b8d5c f   libucrt:mbctype.obj
 0001:000b7dbc       __acrt_update_thread_multibyte_data 00000001800b8dbc f   libucrt:mbctype.obj
 0001:000b7dd8       _setmbcp_nolock            00000001800b8dd8 f   libucrt:mbctype.obj
 0001:000b810c       _ismbblead                 00000001800b910c f   libucrt:ismbbyte.obj
 0001:000b8120       __acrt_initialize_command_line 00000001800b9120 f   libucrt:argv_data.obj
 0001:000b8148       __dcrt_get_narrow_environment_from_os 00000001800b9148 f   libucrt:get_environment_from_os.obj
 0001:000b8258       _recalloc_base             00000001800b9258 f   libucrt:recalloc.obj
 0001:000b82f0       __acrt_initialize_heap     00000001800b92f0 f   libucrt:heap_handle.obj
 0001:000b830c       __acrt_uninitialize_heap   00000001800b930c f   libucrt:heap_handle.obj
 0001:000b8318       __acrt_execute_initializers 00000001800b9318 f   libucrt:shared_initialization.obj
 0001:000b83ac       __acrt_execute_uninitializers 00000001800b93ac f   libucrt:shared_initialization.obj
 0001:000b843c       __acrt_get_sigabrt_handler 00000001800b943c f   libucrt:signal.obj
 0001:000b846c       __acrt_initialize_signal_handlers 00000001800b946c f   libucrt:signal.obj
 0001:000b848c       raise                      00000001800b948c f   libucrt:signal.obj
 0001:000b870c       __acrt_has_user_matherr    00000001800b970c f   libucrt:matherr.obj
 0001:000b872c       __acrt_initialize_user_matherr 00000001800b972c f   libucrt:matherr.obj
 0001:000b8734       __acrt_invoke_user_matherr 00000001800b9734 f   libucrt:matherr.obj
 0001:000b876c       _query_new_mode            00000001800b976c f   libucrt:new_mode.obj
 0001:000b8774       _raise_exc                 00000001800b9774 f   libucrt:fpexcept.obj
 0001:000b879c       _raise_exc_ex              00000001800b979c f   libucrt:fpexcept.obj
 0001:000b8aac       _raise_excf                00000001800b9aac f   libucrt:fpexcept.obj
 0001:000b8ad8       _set_errno_from_matherr    00000001800b9ad8 f   libucrt:fpexcept.obj
 0001:000b8b08       _clrfp                     00000001800b9b08 f   libucrt:fpctrl.obj
 0001:000b8b28       _ctrlfp                    00000001800b9b28 f   libucrt:fpctrl.obj
 0001:000b8ba4       _set_statfp                00000001800b9ba4 f   libucrt:fpctrl.obj
 0001:000b8bc4       _statfp                    00000001800b9bc4 f   libucrt:fpctrl.obj
 0001:000b8bd8       __acrt_add_locale_ref      00000001800b9bd8 f   libucrt:locale_refcounting.obj
 0001:000b8c64       __acrt_free_locale         00000001800b9c64 f   libucrt:locale_refcounting.obj
 0001:000b8ddc       __acrt_locale_add_lc_time_reference 00000001800b9ddc f   libucrt:locale_refcounting.obj
 0001:000b8e04       __acrt_locale_free_lc_time_if_unreferenced 00000001800b9e04 f   libucrt:locale_refcounting.obj
 0001:000b8e3c       __acrt_locale_release_lc_time_reference 00000001800b9e3c f   libucrt:locale_refcounting.obj
 0001:000b8e64       __acrt_release_locale_ref  00000001800b9e64 f   libucrt:locale_refcounting.obj
 0001:000b8f0c       __acrt_update_thread_locale_data 00000001800b9f0c f   libucrt:locale_refcounting.obj
 0001:000b8f7c       _updatetlocinfoEx_nolock   00000001800b9f7c f   libucrt:locale_refcounting.obj
 0001:000b8fe4       __acrt_locale_free_monetary 00000001800b9fe4 f   libucrt:initmon.obj
 0001:000b90f0       __acrt_locale_free_numeric 00000001800ba0f0 f   libucrt:initnum.obj
 0001:000b9190       __acrt_locale_free_time    00000001800ba190 f   libucrt:inittime.obj
 0001:000b9298       __acrt_GetStringTypeA      00000001800ba298 f   libucrt:getstringtypea.obj
 0001:000b9434       __acrt_DownlevelLocaleNameToLCID 00000001800ba434 f   libucrt:lcidtoname_downlevel.obj
 0001:000b94dc       __ascii_wcsnicmp           00000001800ba4dc f   libucrt:wcsnicmp.obj
 0001:000b9528       __acrt_lowio_create_handle_array 00000001800ba528 f   libucrt:osfinfo.obj
 0001:000b95d0       __acrt_lowio_destroy_handle_array 00000001800ba5d0 f   libucrt:osfinfo.obj
 0001:000b9620       __acrt_lowio_ensure_fh_exists 00000001800ba620 f   libucrt:osfinfo.obj
 0001:000b96c8       __acrt_lowio_lock_fh       00000001800ba6c8 f   libucrt:osfinfo.obj
 0001:000b96f0       __acrt_lowio_unlock_fh     00000001800ba6f0 f   libucrt:osfinfo.obj
 0001:000b9718       _free_osfhnd               00000001800ba718 f   libucrt:osfinfo.obj
 0001:000b97d4       _get_osfhandle             00000001800ba7d4 f   libucrt:osfinfo.obj
 0001:000b984c       _isatty                    00000001800ba84c f   libucrt:isatty.obj
 0001:000b98ac       ?__mbrtowc_utf8@__crt_mbstring@@YA_KPEA_WPEBD_KPEAU_Mbstatet@@AEAV__crt_cached_ptd_host@@@Z 00000001800ba8ac f   libucrt:mbrtowc.obj
 0001:000b98f0       ?__mbsrtowcs_utf8@__crt_mbstring@@YA_KPEA_WPEAPEBD_KPEAU_Mbstatet@@AEAV__crt_cached_ptd_host@@@Z 00000001800ba8f0 f   libucrt:mbrtowc.obj
 0001:000b9a94       _putwch_nolock             00000001800baa94 f   libucrt:putwch.obj
 0001:000b9ad0       __acrt_stdio_allocate_buffer_nolock 00000001800baad0 f   libucrt:_getbuf.obj
 0001:000b9b3c       __acrt_fp_strflt_to_string 00000001800bab3c f   libucrt:_fptostr.obj
 0001:000b9cc0       ?divide@__crt_strtox@@YA_KAEAUbig_integer@1@AEBU21@@Z 00000001800bacc0 f i libucrt:cfout.obj
 0001:000ba14c       __acrt_fltout              00000001800bb14c f   libucrt:cfout.obj
 0001:000bb414       fegetround                 00000001800bc414 f   libucrt:fegetround.obj
 0001:000bb428       ?__c32rtomb_utf8@__crt_mbstring@@YA_KPEAD_UPEAU_Mbstatet@@AEAV__crt_cached_ptd_host@@@Z 00000001800bc428 f   libucrt:c32rtomb.obj
 0001:000bb4d0       qsort                      00000001800bc4d0 f   libucrt:qsort.obj
 0001:000bb980       strpbrk                    00000001800bc980 f   libucrt:strpbrk.obj
 0001:000bbd48       _mbsdec                    00000001800bcd48 f   libucrt:mbsdec.obj
 0001:000bbd50       _mbsdec_l                  00000001800bcd50 f   libucrt:mbsdec.obj
 0001:000bc104       __acrt_LCMapStringA        00000001800bd104 f   libucrt:lcmapstringa.obj
 0001:000bc1b4       _msize_base                00000001800bd1b4 f   libucrt:msize.obj
 0001:000bc1f0       _realloc_base              00000001800bd1f0 f   libucrt:realloc_base.obj
 0001:000bc280       _get_fpsr                  00000001800bd280 f   libucrt:fpsr.obj
 0001:000bc290       _set_fpsr                  00000001800bd290 f   libucrt:fpsr.obj
 0001:000bc29a       _fclrf                     00000001800bd29a f   libucrt:fpsr.obj
 0001:000bc2ae       _frnd                      00000001800bd2ae f   libucrt:fpsr.obj
 0001:000bc2d0       _query_app_type            00000001800bd2d0 f   libucrt:report_runtime_error.obj
 0001:000bc2d8       ?__mbrtoc32_utf8@__crt_mbstring@@YA_KPEA_UPEBD_KPEAU_Mbstatet@@AEAV__crt_cached_ptd_host@@@Z 00000001800bd2d8 f   libucrt:mbrtoc32.obj
 0001:000bc4b4       __dcrt_lowio_ensure_console_output_initialized 00000001800bd4b4 f   libucrt:initcon.obj
 0001:000bc508       __dcrt_terminate_console_output 00000001800bd508 f   libucrt:initcon.obj
 0001:000bc524       __dcrt_write_console       00000001800bd524 f   libucrt:initcon.obj
 0001:000bc5e4       _controlfp_s               00000001800bd5e4 f   libucrt:contrlfp.obj
 0001:000bc648       fegetenv                   00000001800bd648 f   libucrt:fegetenv.obj
 0001:000bc668       fesetenv                   00000001800bd668 f   libucrt:fesetenv.obj
 0001:000bc6b4       feholdexcept               00000001800bd6b4 f   libucrt:feholdexcept.obj
 0001:000bc704       __acrt_fenv_get_common_round_control 00000001800bd704 f   libucrt:_fenvutils.obj
 0001:000bc710       __acrt_fenv_get_control    00000001800bd710 f   libucrt:_fenvutils.obj
 0001:000bc7f4       __acrt_fenv_get_status     00000001800bd7f4 f   libucrt:_fenvutils.obj
 0001:000bc84c       __acrt_fenv_set_control    00000001800bd84c f   libucrt:_fenvutils.obj
 0001:000bc988       __acrt_fenv_set_status     00000001800bd988 f   libucrt:_fenvutils.obj
 0001:000bc9fc       ?reset_and_return@__crt_mbstring@@YA_K_KPEAU_Mbstatet@@@Z 00000001800bd9fc f   libucrt:common_utf8.obj
 0001:000bca04       ?return_illegal_sequence@__crt_mbstring@@YA_KPEAU_Mbstatet@@AEAV__crt_cached_ptd_host@@@Z 00000001800bda04 f   libucrt:common_utf8.obj
 0001:000bca18       __strncnt                  00000001800bda18 f   libucrt:strncnt.obj
 0001:000bca30       __acrt_initialize_fmode    00000001800bda30 f   libucrt:txtmode.obj
 0001:000bca4c       _clearfp                   00000001800bda4c f   libucrt:ieee.obj
 0001:000bcabc       _control87                 00000001800bdabc f   libucrt:ieee.obj
 0001:000bcd90       _FindPESection             00000001800bdd90 f   LIBCMT:pesect.obj
 0001:000bcde0       _IsNonwritableInCurrentImage 00000001800bdde0 f   LIBCMT:pesect.obj
 0001:000bce30       _ValidateImageBase         00000001800bde30 f   LIBCMT:pesect.obj
 0001:000bce5c       __GSHandlerCheck_SEH       00000001800bde5c f   LIBCMT:gshandlerseh.obj
 0001:000bcee4       __GSHandlerCheck_EH        00000001800bdee4 f   LIBCMT:gshandlereh.obj
 0001:000bcf64       __C_specific_handler_noexcept 00000001800bdf64 f   libvcruntime:chandler_noexcept.obj
 0001:000bcfb0       strrchr                    00000001800bdfb0 f   libvcruntime:strrchr.obj
 0001:000bd100       _guard_dispatch_icall_nop  00000001800be100 f   LIBCMT:guard_dispatch.obj
 0001:000bd120       _guard_xfg_dispatch_icall_nop 00000001800be120 f   LIBCMT:guard_xfg_dispatch.obj
 0003:00000000       __imp_QueryPerformanceCounter 00000001800c0000     kernel32:KERNEL32.dll
 0003:00000008       __imp_QueryPerformanceFrequency 00000001800c0008     kernel32:KERNEL32.dll
 0003:00000010       __imp_CloseHandle          00000001800c0010     kernel32:KERNEL32.dll
 0003:00000018       __imp_SetEvent             00000001800c0018     kernel32:KERNEL32.dll
 0003:00000020       __imp_ResetEvent           00000001800c0020     kernel32:KERNEL32.dll
 0003:00000028       __imp_ReleaseSemaphore     00000001800c0028     kernel32:KERNEL32.dll
 0003:00000030       __imp_WaitForSingleObject  00000001800c0030     kernel32:KERNEL32.dll
 0003:00000038       __imp_CreateEventA         00000001800c0038     kernel32:KERNEL32.dll
 0003:00000040       __imp_CreateSemaphoreA     00000001800c0040     kernel32:KERNEL32.dll
 0003:00000048       __imp_InitializeCriticalSection 00000001800c0048     kernel32:KERNEL32.dll
 0003:00000050       __imp_EnterCriticalSection 00000001800c0050     kernel32:KERNEL32.dll
 0003:00000058       __imp_LeaveCriticalSection 00000001800c0058     kernel32:KERNEL32.dll
 0003:00000060       __imp_DeleteCriticalSection 00000001800c0060     kernel32:KERNEL32.dll
 0003:00000068       __imp_Sleep                00000001800c0068     kernel32:KERNEL32.dll
 0003:00000070       __imp_CreateThread         00000001800c0070     kernel32:KERNEL32.dll
 0003:00000078       __imp_GetSystemInfo        00000001800c0078     kernel32:KERNEL32.dll
 0003:00000080       __imp_RtlCaptureContext    00000001800c0080     kernel32:KERNEL32.dll
 0003:00000088       __imp_RtlLookupFunctionEntry 00000001800c0088     kernel32:KERNEL32.dll
 0003:00000090       __imp_RtlVirtualUnwind     00000001800c0090     kernel32:KERNEL32.dll
 0003:00000098       __imp_UnhandledExceptionFilter 00000001800c0098     kernel32:KERNEL32.dll
 0003:000000a0       __imp_SetUnhandledExceptionFilter 00000001800c00a0     kernel32:KERNEL32.dll
 0003:000000a8       __imp_GetCurrentProcess    00000001800c00a8     kernel32:KERNEL32.dll
 0003:000000b0       __imp_TerminateProcess     00000001800c00b0     kernel32:KERNEL32.dll
 0003:000000b8       __imp_IsProcessorFeaturePresent 00000001800c00b8     kernel32:KERNEL32.dll
 0003:000000c0       __imp_ReleaseSRWLockExclusive 00000001800c00c0     kernel32:KERNEL32.dll
 0003:000000c8       __imp_AcquireSRWLockExclusive 00000001800c00c8     kernel32:KERNEL32.dll
 0003:000000d0       __imp_WakeAllConditionVariable 00000001800c00d0     kernel32:KERNEL32.dll
 0003:000000d8       __imp_SleepConditionVariableSRW 00000001800c00d8     kernel32:KERNEL32.dll
 0003:000000e0       __imp_GetCurrentProcessId  00000001800c00e0     kernel32:KERNEL32.dll
 0003:000000e8       __imp_GetCurrentThreadId   00000001800c00e8     kernel32:KERNEL32.dll
 0003:000000f0       __imp_GetSystemTimeAsFileTime 00000001800c00f0     kernel32:KERNEL32.dll
 0003:000000f8       __imp_InitializeSListHead  00000001800c00f8     kernel32:KERNEL32.dll
 0003:00000100       __imp_IsDebuggerPresent    00000001800c0100     kernel32:KERNEL32.dll
 0003:00000108       __imp_GetStartupInfoW      00000001800c0108     kernel32:KERNEL32.dll
 0003:00000110       __imp_GetModuleHandleW     00000001800c0110     kernel32:KERNEL32.dll
 0003:00000118       __imp_RtlUnwindEx          00000001800c0118     kernel32:KERNEL32.dll
 0003:00000120       __imp_RtlPcToFileHeader    00000001800c0120     kernel32:KERNEL32.dll
 0003:00000128       __imp_RaiseException       00000001800c0128     kernel32:KERNEL32.dll
 0003:00000130       __imp_InterlockedFlushSList 00000001800c0130     kernel32:KERNEL32.dll
 0003:00000138       __imp_GetLastError         00000001800c0138     kernel32:KERNEL32.dll
 0003:00000140       __imp_SetLastError         00000001800c0140     kernel32:KERNEL32.dll
 0003:00000148       __imp_EncodePointer        00000001800c0148     kernel32:KERNEL32.dll
 0003:00000150       __imp_InitializeCriticalSectionAndSpinCount 00000001800c0150     kernel32:KERNEL32.dll
 0003:00000158       __imp_TlsAlloc             00000001800c0158     kernel32:KERNEL32.dll
 0003:00000160       __imp_TlsGetValue          00000001800c0160     kernel32:KERNEL32.dll
 0003:00000168       __imp_TlsSetValue          00000001800c0168     kernel32:KERNEL32.dll
 0003:00000170       __imp_TlsFree              00000001800c0170     kernel32:KERNEL32.dll
 0003:00000178       __imp_FreeLibrary          00000001800c0178     kernel32:KERNEL32.dll
 0003:00000180       __imp_GetProcAddress       00000001800c0180     kernel32:KERNEL32.dll
 0003:00000188       __imp_LoadLibraryExW       00000001800c0188     kernel32:KERNEL32.dll
 0003:00000190       __imp_ExitProcess          00000001800c0190     kernel32:KERNEL32.dll
 0003:00000198       __imp_GetModuleHandleExW   00000001800c0198     kernel32:KERNEL32.dll
 0003:000001a0       __imp_GetModuleFileNameW   00000001800c01a0     kernel32:KERNEL32.dll
 0003:000001a8       __imp_HeapFree             00000001800c01a8     kernel32:KERNEL32.dll
 0003:000001b0       __imp_HeapAlloc            00000001800c01b0     kernel32:KERNEL32.dll
 0003:000001b8       __imp_MultiByteToWideChar  00000001800c01b8     kernel32:KERNEL32.dll
 0003:000001c0       __imp_WideCharToMultiByte  00000001800c01c0     kernel32:KERNEL32.dll
 0003:000001c8       __imp_FlsAlloc             00000001800c01c8     kernel32:KERNEL32.dll
 0003:000001d0       __imp_FlsGetValue          00000001800c01d0     kernel32:KERNEL32.dll
 0003:000001d8       __imp_FlsSetValue          00000001800c01d8     kernel32:KERNEL32.dll
 0003:000001e0       __imp_FlsFree              00000001800c01e0     kernel32:KERNEL32.dll
 0003:000001e8       __imp_LCMapStringW         00000001800c01e8     kernel32:KERNEL32.dll
 0003:000001f0       __imp_FlushFileBuffers     00000001800c01f0     kernel32:KERNEL32.dll
 0003:000001f8       __imp_WriteFile            00000001800c01f8     kernel32:KERNEL32.dll
 0003:00000200       __imp_GetConsoleOutputCP   00000001800c0200     kernel32:KERNEL32.dll
 0003:00000208       __imp_GetConsoleMode       00000001800c0208     kernel32:KERNEL32.dll
 0003:00000210       __imp_SetFilePointerEx     00000001800c0210     kernel32:KERNEL32.dll
 0003:00000218       __imp_GetStdHandle         00000001800c0218     kernel32:KERNEL32.dll
 0003:00000220       __imp_GetFileType          00000001800c0220     kernel32:KERNEL32.dll
 0003:00000228       __imp_GetFileSizeEx        00000001800c0228     kernel32:KERNEL32.dll
 0003:00000230       __imp_FindClose            00000001800c0230     kernel32:KERNEL32.dll
 0003:00000238       __imp_FindFirstFileExW     00000001800c0238     kernel32:KERNEL32.dll
 0003:00000240       __imp_FindNextFileW        00000001800c0240     kernel32:KERNEL32.dll
 0003:00000248       __imp_IsValidCodePage      00000001800c0248     kernel32:KERNEL32.dll
 0003:00000250       __imp_GetACP               00000001800c0250     kernel32:KERNEL32.dll
 0003:00000258       __imp_GetOEMCP             00000001800c0258     kernel32:KERNEL32.dll
 0003:00000260       __imp_GetCPInfo            00000001800c0260     kernel32:KERNEL32.dll
 0003:00000268       __imp_GetCommandLineA      00000001800c0268     kernel32:KERNEL32.dll
 0003:00000270       __imp_GetCommandLineW      00000001800c0270     kernel32:KERNEL32.dll
 0003:00000278       __imp_GetEnvironmentStringsW 00000001800c0278     kernel32:KERNEL32.dll
 0003:00000280       __imp_FreeEnvironmentStringsW 00000001800c0280     kernel32:KERNEL32.dll
 0003:00000288       __imp_GetProcessHeap       00000001800c0288     kernel32:KERNEL32.dll
 0003:00000290       __imp_GetStringTypeW       00000001800c0290     kernel32:KERNEL32.dll
 0003:00000298       __imp_CreateFileW          00000001800c0298     kernel32:KERNEL32.dll
 0003:000002a0       __imp_SetStdHandle         00000001800c02a0     kernel32:KERNEL32.dll
 0003:000002a8       __imp_HeapSize             00000001800c02a8     kernel32:KERNEL32.dll
 0003:000002b0       __imp_HeapReAlloc          00000001800c02b0     kernel32:KERNEL32.dll
 0003:000002b8       __imp_WriteConsoleW        00000001800c02b8     kernel32:KERNEL32.dll
 0003:000002c0       \177KERNEL32_NULL_THUNK_DATA 00000001800c02c0     kernel32:KERNEL32.dll
 0003:000002c8       __guard_check_icall_fptr   00000001800c02c8     LIBCMT:guard_support.obj
 0003:000002d0       __guard_xfg_check_icall_fptr 00000001800c02d0     LIBCMT:guard_support.obj
 0003:000002d8       __guard_dispatch_icall_fptr 00000001800c02d8     LIBCMT:guard_support.obj
 0003:000002e0       __guard_xfg_dispatch_icall_fptr 00000001800c02e0     LIBCMT:guard_support.obj
 0003:000002e8       __guard_xfg_table_dispatch_icall_fptr 00000001800c02e8     LIBCMT:guard_support.obj
 0003:000002f0       __castguard_check_failure_os_handled_fptr 00000001800c02f0     LIBCMT:guard_support.obj
 0003:000002f8       __guard_memcpy_fptr        00000001800c02f8     libvcruntime:softmemtag.obj
 0003:00000300       __xc_a                     00000001800c0300     LIBCMT:initializers.obj
 0003:00000308       __xc_z                     00000001800c0308     LIBCMT:initializers.obj
 0003:00000310       __xi_a                     00000001800c0310     LIBCMT:initializers.obj
 0003:00000318       __acrt_stdio_initializer   00000001800c0318     libucrt:stdio_initializer.obj
 0003:00000320       __acrt_tran_fma3_initializer 00000001800c0320     libucrt:fma3_initializer.obj
 0003:00000328       __acrt_timeset_initializer 00000001800c0328     libucrt:timeset_initializer.obj
 0003:00000330       __acrt_multibyte_initializer 00000001800c0330     libucrt:multibyte_initializer.obj
 0003:00000338       __acrt_fmode_initializer   00000001800c0338     libucrt:fmode_initializer.obj
 0003:00000340       __xi_z                     00000001800c0340     LIBCMT:initializers.obj
 0003:00000348       __xl_a                     00000001800c0348     LIBCMT:tlssup.obj
 0003:00000350       __xl_z                     00000001800c0350     LIBCMT:tlssup.obj
 0003:00000358       __xp_a                     00000001800c0358     LIBCMT:initializers.obj
 0003:00000360       __acrt_locale_terminator   00000001800c0360     libucrt:locale_initializer.obj
 0003:00000368       __dcrt_console_output_terminator 00000001800c0368     libucrt:console_output_initializer.obj
 0003:00000370       __acrt_stdio_terminator    00000001800c0370     libucrt:stdio_initializer.obj
 0003:00000378       __xp_z                     00000001800c0378     LIBCMT:initializers.obj
 0003:00000380       __xt_a                     00000001800c0380     LIBCMT:initializers.obj
 0003:00000388       __xt_z                     00000001800c0388     LIBCMT:initializers.obj
 0003:00000390       ??_C@_0EH@HPFAFJOI@iLTRRefNum?$CI?$CFd?$CJ?5does?5not?5equal?5t@ 00000001800c0390     au_set.obj
 0003:000003e0       ??_C@_0FM@HFEHGMOI@iNumRefFrame?$CI?$CFd?$CJ?5setting?5does?5n@ 00000001800c03e0     au_set.obj
 0003:00000440       ??_C@_0EM@NPBBNEOD@iMaxNumRefFrame?$CI?$CFd?$CJ?5adjusted?5to@ 00000001800c0440     au_set.obj
 0003:00000490       ??_C@_0EJ@GAINJADP@iNumRefFrame?$CI?$CFd?$CJ?5adjusted?5to?5?$CFd@ 00000001800c0490     au_set.obj
 0003:000004e0       ??_C@_0FP@FJACHAPF@iMaxNumRefFrame?$CI?$CFd?$CJ?5adjusted?5to@ 00000001800c04e0     au_set.obj
 0003:000006d0       __xmm@00000000000000080000000000000008 00000001800c06d0     deblocking.obj
 0003:000006e0       ?g_kiQuantInterFF@WelsEnc@@3QAY07$$CBFA 00000001800c06e0     encode_mb_aux.obj
 0003:00000a80       ?g_kiQuantMF@WelsEnc@@3QAY07$$CBFA 00000001800c0a80     encode_mb_aux.obj
 0003:00000e00       ??_C@_0GF@CKDKGNB@encoding?5videoFrameTypeIDR?5due?5@ 00000001800c0e00     encoder.obj
 0003:00000e70       ?g_kuiSmb4AddrIn256@WelsEnc@@3QBEB 00000001800c0e70     encoder_data_tables.obj
 0003:00000e80       ?g_kuiCache12_8x8RefIdx@WelsEnc@@3QBEB 00000001800c0e80     encoder_data_tables.obj
 0003:00000e88       ?g_kuiTemporalIdListTable@WelsEnc@@3QAY08$$CBEA 00000001800c0e88     encoder_data_tables.obj
 0003:00000eb0       ?g_kiQpCostTable@WelsEnc@@3QBHB 00000001800c0eb0     encoder_data_tables.obj
 0003:00000f80       ?g_kiMapModeI16x16@WelsEnc@@3QBCB 00000001800c0f80     encoder_data_tables.obj
 0003:00000f88       ?g_kiMapModeIntraChroma@WelsEnc@@3QBCB 00000001800c0f88     encoder_data_tables.obj
 0003:00000f90       ?g_kuiVlcCoeffToken@WelsEnc@@3QAY2BB@31$$CBEA 00000001800c0f90     encoder_data_tables.obj
 0003:00001240       ?g_kuiVlcTotalZeros@WelsEnc@@3QAY1BA@1$$CBEA 00000001800c1240     encoder_data_tables.obj
 0003:00001440       ?g_kuiVlcTotalZerosChromaDc@WelsEnc@@3QAY131$$CBEA 00000001800c1440     encoder_data_tables.obj
 0003:00001460       ?g_kuiVlcRunBefore@WelsEnc@@3QAY1P@1$$CBEA 00000001800c1460     encoder_data_tables.obj
 0003:00001550       ?g_kuiEncNcMapTable@WelsEnc@@3QBEB 00000001800c1550     encoder_data_tables.obj
 0003:00001568       ??_C@_0BE@GEBKPBMA@SWelsSvcCodingParam@ 00000001800c1568     encoder_ext.obj
 0003:00001580       ??_C@_0ED@JIIADPCB@Invalid?5bitrate?5settings?5in?5lay@ 00000001800c1580     encoder_ext.obj
 0003:000015d0       ??_C@_0JN@IKNPADKM@Current?5MaxSpatialBitrate?5is?5in@ 00000001800c15d0     encoder_ext.obj
 0003:00001670       ??_C@_0EO@ENAFPJIM@LevelIdc?5is?5changed?5from?5?$CI?$CFd?$CJ?5t@ 00000001800c1670     encoder_ext.obj
 0003:000016c0       ??_C@_0HD@BFBFBPFP@No?5LevelIdc?5setting?5and?5iMaxSpa@ 00000001800c16c0     encoder_ext.obj
 0003:00001740       ??_C@_0HH@MOMLJDOP@Setting?5MaxSpatialBitrate?5?$CI?$CFd?$CJ?5@ 00000001800c1740     encoder_ext.obj
 0003:000017c0       ??_C@_0GC@OGBCFGDF@MaxSpatialBitrate?5?$CI?$CFd?$CJ?5should?5b@ 00000001800c17c0     encoder_ext.obj
 0003:00001830       ??_C@_0EG@IBIDGOLJ@layerId?$CI?$CFd?$CJ?5doesn?8t?5support?5pro@ 00000001800c1830     encoder_ext.obj
 0003:00001880       ??_C@_0EN@OIGGKEAF@layerId?$CI?$CFd?$CJ?5doesn?8t?5support?5pro@ 00000001800c1880     encoder_ext.obj
 0003:000018d0       ??_C@_0EN@HDIAPLPF@doesn?8t?5support?5the?5number?5of?5r@ 00000001800c18d0     encoder_ext.obj
 0003:00001920       ??_C@_0HM@FEIDPPGP@SliceArgumentValidationFixedSli@ 00000001800c1920     encoder_ext.obj
 0003:000019a0       ??_C@_0KJ@JIHPCHMP@SliceArgumentValidationFixedSli@ 00000001800c19a0     encoder_ext.obj
 0003:00001a50       ??_C@_0HN@FCOCLAEC@SliceArgumentValidationFixedSli@ 00000001800c1a50     encoder_ext.obj
 0003:00001ad0       ??_C@_0JF@KKLALBFO@SliceArgumentValidationFixedSli@ 00000001800c1ad0     encoder_ext.obj
 0003:00001b70       ??_C@_0KP@JDLFFONP@SliceArgumentValidationFixedSli@ 00000001800c1b70     encoder_ext.obj
 0003:00001c20       ??_C@_0GO@KICEIMHB@SliceArgumentValidationFixedSli@ 00000001800c1c20     encoder_ext.obj
 0003:00001c90       ??_C@_0CK@PAFMDPMK@ParamValidation?$CI?$CJ?0Invalid?5usage@ 00000001800c1c90     encoder_ext.obj
 0003:00001cc0       ??_C@_0EM@EAKJELOJ@ParamValidation?$CI?$CJ?0Invalid?5the?5n@ 00000001800c1cc0     encoder_ext.obj
 0003:00001d10       ??_C@_0FO@PFGOECMC@ParamValidation?$CI?$CJ?0?5AdaptiveQuan@ 00000001800c1d10     encoder_ext.obj
 0003:00001d70       ??_C@_0GE@PHNLHJLJ@ParamValidation?$CI?$CJ?0?5BackgroundDe@ 00000001800c1d70     encoder_ext.obj
 0003:00001de0       ??_C@_0GI@BIINHECO@ParamValidation?$CI?$CJ?0?5screen?5chang@ 00000001800c1de0     encoder_ext.obj
 0003:00001e50       ??_C@_0IC@CIBFBJHB@ParamValidation?0Invalid?5resolut@ 00000001800c1e50     encoder_ext.obj
 0003:00001ee0       ??_C@_0HB@BHPMCOGG@ParamValidation?0?5Invalid?5iLoopF@ 00000001800c1ee0     encoder_ext.obj
 0003:00001f60       ??_C@_0GB@OJLMJKBB@Invalid?5settings?5in?5input?5frame@ 00000001800c1f60     encoder_ext.obj
 0003:00001fd0       ??_C@_0BAK@BIGOBBDN@AUTO?5CORRECT?3?5Invalid?5settings?5@ 00000001800c1fd0     encoder_ext.obj
 0003:000020e0       ??_C@_0CH@GECBGNEK@ParamValidation?$CI?$CJ?0Invalid?5iRCMo@ 00000001800c20e0     encoder_ext.obj
 0003:00002108       ??_C@_0DJ@OJLCPLCM@Invalid?5bitrate?5settings?5in?5tot@ 00000001800c2108     encoder_ext.obj
 0003:00002150       ??_C@_0GI@IGLMOIFB@Invalid?5settings?5in?5bitrate?4?5th@ 00000001800c2150     encoder_ext.obj
 0003:000021c0       ??_C@_0IJ@IPLFJCNJ@bEnableFrameSkip?5?$DN?5?$CFd?0bitrate?5c@ 00000001800c21c0     encoder_ext.obj
 0003:00002250       ??_C@_0CH@GBKPLLAB@Change?5QP?5Range?5from?$CI?$CFd?0?$CFd?$CJ?5to?5@ 00000001800c2250     encoder_ext.obj
 0003:00002278       ??_C@_0CD@NEAONFPB@WelsCheckRefFrameLimitation?5fai@ 00000001800c2278     encoder_ext.obj
 0003:000022a0       ??_C@_0CN@KDPAGOLH@ParamValidationExt?$CI?$CJ?0Invalid?5us@ 00000001800c22a0     encoder_ext.obj
 0003:000022d0       ??_C@_0GO@GPDFPCGI@ParamValidationExt?$CI?$CJ?0?5setting?5l@ 00000001800c22d0     encoder_ext.obj
 0003:00002340       ??_C@_0EK@CEPAELK@ParamValidationExt?$CI?$CJ?0?5monitor?5i@ 00000001800c2340     encoder_ext.obj
 0003:00002390       ??_C@_0EL@EHMHIKKP@ParamValidationExt?$CI?$CJ?0?5monitor?5i@ 00000001800c2390     encoder_ext.obj
 0003:000023e0       ??_C@_0ED@KKKECPOP@ParamValidationExt?$CI?$CJ?0?5monitor?5i@ 00000001800c23e0     encoder_ext.obj
 0003:00002430       ??_C@_0GH@ICGPDGHP@ParamValidationExt?$CI?$CJ?0?5uiIntraPe@ 00000001800c2430     encoder_ext.obj
 0003:000024a0       ??_C@_0FN@KGIFAJHF@ParamValidationExt?$CI?$CJ?0?5uiIntraPe@ 00000001800c24a0     encoder_ext.obj
 0003:00002500       ??_C@_0JD@GBEMBND@ParamValidationExt?$CI?$CJ?0?5eSpsPpsId@ 00000001800c2500     encoder_ext.obj
 0003:000025a0       ??_C@_0ID@JOFDMGDM@ParamValidationExt?$CI?$CJ?0?5eSpsPpsId@ 00000001800c25a0     encoder_ext.obj
 0003:00002630       ??_C@_0HB@DIJHKCCJ@ParamValidationExt?$CI?$CJ?0?5eSpsPpsId@ 00000001800c2630     encoder_ext.obj
 0003:000026b0       ??_C@_0IF@POILGOIO@ParamValidationExt?$CI?$CJ?0?5bSimulcas@ 00000001800c26b0     encoder_ext.obj
 0003:00002740       ??_C@_0FF@HHJEFGMG@ParamValidationExt?$CI?$CJ?0?5layer?5res@ 00000001800c2740     encoder_ext.obj
 0003:000027a0       ??_C@_0HB@FDILLGJN@ParamValidationExt?$CI?$CJ?0?5width?5?$DO?50@ 00000001800c27a0     encoder_ext.obj
 0003:00002820       ??_C@_0IL@PNLCJECD@ParamValidationExt?$CI?$CJ?0?5in?5layer?5@ 00000001800c2820     encoder_ext.obj
 0003:000028b0       ??_C@_0DJ@HLOLFGLO@ParamValidationExt?$CI?$CJ?0?5invalid?5u@ 00000001800c28b0     encoder_ext.obj
 0003:000028f0       ??_C@_0GB@MEIBBGOH@ParamValidationExt?$CI?$CJ?0?5current?5l@ 00000001800c28f0     encoder_ext.obj
 0003:00002960       ??_C@_0EK@NDBCMIIE@ParamValidationExt?$CI?$CJ?0?5invalid?5u@ 00000001800c2960     encoder_ext.obj
 0003:000029b0       ??_C@_0DK@MOANCIOE@ParamValidationExt?$CI?$CJ?0?5invalid?5u@ 00000001800c29b0     encoder_ext.obj
 0003:000029f0       ??_C@_0EL@BHJMGKMH@ParamValidationExt?$CI?$CJ?0?5invalid?5u@ 00000001800c29f0     encoder_ext.obj
 0003:00002a40       ??_C@_0FG@CFDBEPBK@ParamValidationExt?$CI?$CJ?0?5pSlice?5se@ 00000001800c2a40     encoder_ext.obj
 0003:00002aa0       ??_C@_0EM@JFKBFBPC@ParamValidationExt?$CI?$CJ?0?5WARNING?3?5@ 00000001800c2aa0     encoder_ext.obj
 0003:00002af0       ??_C@_0GO@IENAKLLP@ParamValidationExt?$CI?$CJ?0?5invalid?5i@ 00000001800c2af0     encoder_ext.obj
 0003:00002b60       ??_C@_0IN@ILEDGKMJ@ParamValidationExt?$CI?$CJ?0?5invalid?5u@ 00000001800c2b60     encoder_ext.obj
 0003:00002bf0       ??_C@_0IA@HHEBJCLF@ParamValidationExt?$CI?$CJ?0?5slice?5mod@ 00000001800c2bf0     encoder_ext.obj
 0003:00002c70       ??_C@_0DH@IIMGEBGM@layerId?$CI?$CFd?$CJ?5Profile?5is?5baseline@ 00000001800c2c70     encoder_ext.obj
 0003:00002cb0       ??_C@_0FB@BOKNMFOD@WelsEncoderApplyBitVaryRang?3Upd@ 00000001800c2cb0     encoder_ext.obj
 0003:00002d10       ??_C@_0FN@KOICEHEA@AcquireLayersNals?$CI?$CJ?0?5num_of_sli@ 00000001800c2d10     encoder_ext.obj
 0003:00002d70       ??_C@_0GE@OLIDONEM@AcquireLayersNals?$CI?$CJ?0?5num_of_nal@ 00000001800c2d70     encoder_ext.obj
 0003:00002de0       ??_C@_0FJ@LENHOIID@AcquireLayersNals?$CI?$CJ?0?5pFuncList?5@ 00000001800c2de0     encoder_ext.obj
 0003:00002e40       ??_C@_0EH@GDOMPFJA@AcquireLayersNals?$CI?$CJ?0?5iCountNumL@ 00000001800c2e40     encoder_ext.obj
 0003:00002e88       ??_C@_09OGPBMBOA@ppMbListD@ 00000001800c2e88     encoder_ext.obj
 0003:00002e98       ??_C@_0N@IGMLLKOJ@ppMbListD?$FL0?$FN@ 00000001800c2e98     encoder_ext.obj
 0003:00002ea8       ??_C@_0N@FIBCLFFB@pSliceBuffer@ 00000001800c2ea8     encoder_ext.obj
 0003:00002eb8       ??_C@_0P@COALLLNP@ppSliceInLayer@ 00000001800c2eb8     encoder_ext.obj
 0003:00002ec8       ??_C@_0BD@JNDDGIBH@pFirstMbIdxOfSlice@ 00000001800c2ec8     encoder_ext.obj
 0003:00002ee0       ??_C@_0BD@GJOIBEEF@pCountMbNumInSlice@ 00000001800c2ee0     encoder_ext.obj
 0003:00002ef8       ??_C@_0BK@OADNDPOD@pFeatureSearchPreparation@ 00000001800c2ef8     encoder_ext.obj
 0003:00002f18       ??_C@_08JHHHFGEP@pDqLayer@ 00000001800c2f18     encoder_ext.obj
 0003:00002f28       ??_C@_08DPLMDEAA@pRefList@ 00000001800c2f28     encoder_ext.obj
 0003:00002f38       ??_C@_0CN@KNPCFFN@InitDqLayers?$CI?$CJ?0?5InitSliceInLaye@ 00000001800c2f38     encoder_ext.obj
 0003:00002f68       ??_C@_09OBPLFFFN@pSpsArray@ 00000001800c2f68     encoder_ext.obj
 0003:00002f78       ??_C@_0N@CDDHKDNH@pSubsetArray@ 00000001800c2f78     encoder_ext.obj
 0003:00002f88       ??_C@_09OOLNDCFC@pPPSArray@ 00000001800c2f88     encoder_ext.obj
 0003:00002f98       ??_C@_09JKIIPJGO@pDqIdcMap@ 00000001800c2f98     encoder_ext.obj
 0003:00002fa8       ??_C@_0CN@DIHNKMDD@InitDqLayers?$CI?$CJ?0?5InitSlicePEncCt@ 00000001800c2fa8     encoder_ext.obj
 0003:00002fd8       ??_C@_0O@DICEGNIG@SStrideTables@ 00000001800c2fd8     encoder_ext.obj
 0003:00002fe8       ??_C@_05KKILIBDJ@pBase@    00000001800c2fe8     encoder_ext.obj
 0003:00002ff0       ??_C@_07OOFOCEOM@pTmpRow@  00000001800c2ff0     encoder_ext.obj
 0003:00002ff8       ??_C@_0BM@IFOEFAJN@pVaa?9?$DOpVaaBlockStaticIdc?$FL0?$FN@ 00000001800c2ff8     encoder_ext.obj
 0003:00003020       ??_C@_0ED@PIIPIABO@RequestMemorySvc?$CI?$CJ?5failed?5due?5t@ 00000001800c3020     encoder_ext.obj
 0003:00003070       ??_C@_0FJ@GDGOIBEK@RequestMemorySvc?$CI?$CJ?5failed?5due?5t@ 00000001800c3070     encoder_ext.obj
 0003:000030d0       ??_C@_0DC@JGKJODBM@RequestMemorySvc?$CI?$CJ?0?5AcquireLaye@ 00000001800c30d0     encoder_ext.obj
 0003:00003108       ??_C@_0BD@LJCIBIFP@SWelsEncoderOutput@ 00000001800c3108     encoder_ext.obj
 0003:00003120       ??_C@_0BA@ENPBDGKA@pOut?9?$DOpBsBuffer@ 00000001800c3120     encoder_ext.obj
 0003:00003130       ??_C@_0P@ODPPKAHB@pOut?9?$DOsNalList@ 00000001800c3130     encoder_ext.obj
 0003:00003140       ??_C@_0O@LDDKEEDG@pOut?9?$DOpNalLen@ 00000001800c3140     encoder_ext.obj
 0003:00003150       ??_C@_08KEKODJEF@pFrameBs@ 00000001800c3150     encoder_ext.obj
 0003:00003160       ??_C@_0P@KFAOOEHP@DynamicSliceBs@ 00000001800c3160     encoder_ext.obj
 0003:00003170       ??_C@_0CO@POKCIODF@RequestMemorySvc?$CI?$CJ?0?5RequestMtRe@ 00000001800c3170     encoder_ext.obj
 0003:000031a0       ??_C@_0BI@HHMNAEBE@pIntra4x4PredModeBlocks@ 00000001800c31a0     encoder_ext.obj
 0003:000031b8       ??_C@_0BE@FMPAGGHN@pNonZeroCountBlocks@ 00000001800c31b8     encoder_ext.obj
 0003:000031d0       ??_C@_0BA@BNFKHMCC@pMvUnitBlock4x4@ 00000001800c31d0     encoder_ext.obj
 0003:000031e0       ??_C@_0BC@OMBFEDDC@pRefIndexBlock4x4@ 00000001800c31e0     encoder_ext.obj
 0003:000031f8       ??_C@_0L@NOCHHCAE@pSadCostMb@ 00000001800c31f8     encoder_ext.obj
 0003:00003208       ??_C@_09FNHGKMCN@SLTRState@ 00000001800c3208     encoder_ext.obj
 0003:00003218       ??_C@_0CO@GAJGHPAI@RequestMemorySvc?$CI?$CJ?0?5AllocStride@ 00000001800c3218     encoder_ext.obj
 0003:00003248       ??_C@_0L@IJFBMPBJ@pWelsSvcRc@ 00000001800c3248     encoder_ext.obj
 0003:00003254       ??_C@_04BLJKEDKC@pVaa@     00000001800c3254     encoder_ext.obj
 0003:00003260       ??_C@_0DD@IJGKANHJ@RequestMemorySvc?$CI?$CJ?0?5RequestMemo@ 00000001800c3260     encoder_ext.obj
 0003:00003298       ??_C@_0CN@JOJHLCNE@pVaa?9?$DOsAdaptiveQuantParam?4pMoti@ 00000001800c3298     encoder_ext.obj
 0003:000032c8       ??_C@_0DH@MKPONAHK@pVaa?9?$DOsAdaptiveQuantParam?4pMoti@ 00000001800c32c8     encoder_ext.obj
 0003:00003300       ??_C@_0BL@DOIGHMAM@pVaa?9?$DOpVaaBackgroundMbFlag@ 00000001800c3300     encoder_ext.obj
 0003:00003320       ??_C@_0BK@CJOAEPEN@pVaa?9?$DOsVaaCalcInfo?4sad8x8@ 00000001800c3320     encoder_ext.obj
 0003:00003340       ??_C@_0BN@EDALDEMK@pVaa?9?$DOsVaaCalcInfo?4pSsd16x16@ 00000001800c3340     encoder_ext.obj
 0003:00003360       ??_C@_0BN@BAPMHIJO@pVaa?9?$DOsVaaCalcInfo?4pSum16x16@ 00000001800c3360     encoder_ext.obj
 0003:00003380       ??_C@_0CF@JKLPBCKG@pVaa?9?$DOsVaaCalcInfo?4pSumOfSquare@ 00000001800c3380     encoder_ext.obj
 0003:000033a8       ??_C@_0CB@JIFHNLFC@pVaa?9?$DOsVaaCalcInfo?4pSumOfDiff8x@ 00000001800c33a8     encoder_ext.obj
 0003:000033d0       ??_C@_0BL@NPOJFDBG@pVaa?9?$DOsVaaCalcInfo?4pMad8x8@ 00000001800c33d0     encoder_ext.obj
 0003:000033f0       ??_C@_0BA@LEIJPHJE@ppRefPicListExt@ 00000001800c33f0     encoder_ext.obj
 0003:00003400       ??_C@_0O@FHDKBIIF@ppDqLayerList@ 00000001800c3400     encoder_ext.obj
 0003:00003410       ??_C@_0CN@IGKHIBEH@RequestMemorySvc?$CI?$CJ?0?5InitDqLayer@ 00000001800c3410     encoder_ext.obj
 0003:00003440       ??_C@_0CI@JCJICGB@RequestMemorySvc?$CI?$CJ?0?5InitMbListD@ 00000001800c3440     encoder_ext.obj
 0003:00003468       ??_C@_0O@CCHKBDKJ@pMvdCostTable@ 00000001800c3468     encoder_ext.obj
 0003:00003478       ??_C@_0BB@PNFLMFHF@SWelsFuncPtrList@ 00000001800c3478     encoder_ext.obj
 0003:00003490       ??_C@_0DN@LCHBJJBN@FreeMemorySvc?$CI?$CJ?0?5verify?5memory?5@ 00000001800c3490     encoder_ext.obj
 0003:000034d0       ??_C@_0BHK@IFPBNIME@WELS?5CPU?5features?1capacities?5?$CI0@ 00000001800c34d0     encoder_ext.obj
 0003:00003650       ??_C@_0DC@NFKLHFLF@GetMultipleThreadIdc?$CI?$CJ?0?5InitSli@ 00000001800c3650     encoder_ext.obj
 0003:00003688       ??_C@_0DK@LHBCFJDM@WelsUninitEncoderExt?$CI?$CJ?0?5pCtx?$DN?5?$CF@ 00000001800c3688     encoder_ext.obj
 0003:000036d0       ??_C@_0ED@OFLMOFDO@WelsUninitEncoderExt?$CI?$CJ?0?5pthread@ 00000001800c36d0     encoder_ext.obj
 0003:00003720       ??_C@_0EJ@EOFNIGGG@WelsInitEncoderExt?$CI?$CJ?0?5NULL?5?$DN?$DN?5p@ 00000001800c3720     encoder_ext.obj
 0003:00003770       ??_C@_0DL@ONFKGEKG@WelsInitEncoderExt?$CI?$CJ?0?5ParamVali@ 00000001800c3770     encoder_ext.obj
 0003:000037b0       ??_C@_0KA@PGMJICBG@WelsInitEncoderExt?$CI?$CJ?0?5Determine@ 00000001800c37b0     encoder_ext.obj
 0003:00003850       ??_C@_0DN@PKNCAHFN@WelsInitEncoderExt?$CI?$CJ?0?5GetMultip@ 00000001800c3850     encoder_ext.obj
 0003:00003890       ??_C@_0DJ@FEJIDAEN@WelsInitEncoderExt?$CI?$CJ?0?5RequestMe@ 00000001800c3890     encoder_ext.obj
 0003:000038d0       ??_C@_0EE@CPCNCKLM@WelsInitEncoderExt?$CI?$CJ?0?5pOut?5of?5m@ 00000001800c38d0     encoder_ext.obj
 0003:00003918       ??_C@_0DJ@NOEGCPLO@WelsInitEncoderExt?$CI?$CJ?0?5pVPP?5allo@ 00000001800c3918     encoder_ext.obj
 0003:00003958       ??_C@_0DM@GJCLKINE@WelsInitEncoderExt?$CI?$CJ?5exit?0?5over@ 00000001800c3958     encoder_ext.obj
 0003:00003998       ??_C@_0CC@EFFLNHOH@WelsInitEncoderExt?$CI?$CJ?0?5pCtx?$DN?50x?$CF@ 00000001800c3998     encoder_ext.obj
 0003:000039c0       ??_C@_0EP@MCNDPPMD@Set?9SliceConstraint?$CI?$CFd?$CJ?5too?5sma@ 00000001800c39c0     encoder_ext.obj
 0003:00003a10       ??_C@_0EP@PFDDPBHK@SetMeMethod?$CIBLOCK_16x16?$CJ?5ME_DIA@ 00000001800c3a10     encoder_ext.obj
 0003:00003a60       ??_C@_0FB@DEKIJHAA@SetMeMethod?$CIBLOCK_8x8?$CJ?5ME_DIA_C@ 00000001800c3a60     encoder_ext.obj
 0003:00003ab8       ??_C@_0DA@LIBENHMF@ForceCodingIDR?$CIiDid?50?9?$CFd?$CJat?5Inp@ 00000001800c3ab8     encoder_ext.obj
 0003:00003ae8       ??_C@_0CO@NBLDJAGF@ForceCodingIDR?$CIiDid?5?$CFd?$CJat?5Input@ 00000001800c3ae8     encoder_ext.obj
 0003:00003b20       ??_C@_0EA@IMIPCOMB@WriteSavcParaset?$CI?$CJ?0?5iLayerNum?$CI?$CF@ 00000001800c3b20     encoder_ext.obj
 0003:00003b60       ??_C@_0GE@KBMDHBEO@?$FLRc?$FN?5Frame?5timestamp?5?$DN?5?$CFlld?0?5iD@ 00000001800c3b60     encoder_ext.obj
 0003:00003bc8       ??_C@_0DD@GAEPEPNH@Failed?5in?5allocating?5memory?5in?5@ 00000001800c3bc8     encoder_ext.obj
 0003:00003c00       ??_C@_0GK@NBDBPNJO@?$FLRc?$FN?5Frame?5timestamp?5?$DN?5?$CFlld?0?5sk@ 00000001800c3c00     encoder_ext.obj
 0003:00003c70       ??_C@_0DI@CBIDEEMC@WelsEncoderEncodeExt?$CI?$CJ?0?5iLayerN@ 00000001800c3c70     encoder_ext.obj
 0003:00003cb0       ??_C@_0GC@GAOLLGOA@WelsEncoderEncodeExt?$CI?$CJ?0?5WelsBui@ 00000001800c3cb0     encoder_ext.obj
 0003:00003d20       ??_C@_0GF@FEJDFHKA@WelsEncoderEncodeExt?$CI?$CJ?0?5iLayerN@ 00000001800c3d20     encoder_ext.obj
 0003:00003d90       ??_C@_0GH@CNAFCDAL@WelsEncoderEncodeExt?$CI?$CJ?0?5iSliceC@ 00000001800c3d90     encoder_ext.obj
 0003:00003df8       ??_C@_0DO@BEJAJGPB@WelsEncoderEncodeExt?$CI?$CJ?0?5multi?9s@ 00000001800c3df8     encoder_ext.obj
 0003:00003e40       ??_C@_0EN@OAHCGKOC@WelsEncoderEncodeExt?$CI?$CJ?0?5multi?9s@ 00000001800c3e40     encoder_ext.obj
 0003:00003e90       ??_C@_0ED@LFDNLBOA@WelsEncoderEncodeExt?$CI?$CJ?0?5multi?9s@ 00000001800c3e90     encoder_ext.obj
 0003:00003ee0       ??_C@_0EC@LHBGCFOE@WelsEncoderEncodeExt?$CI?$CJ?0?5WelsUpd@ 00000001800c3ee0     encoder_ext.obj
 0003:00003f30       ??_C@_0FK@ELLABHOM@WelsEncoderEncodeExt?$CI?$CJMinCr?5Che@ 00000001800c3f30     encoder_ext.obj
 0003:00003f90       ??_C@_0FC@OFGJJBDJ@WelsEncoderEncodeExt?$CI?$CJ?0?5Logic?5E@ 00000001800c3f90     encoder_ext.obj
 0003:00003ff0       ??_C@_0EN@DEFOCKOK@WelsEncoderEncodeExt?$CI?$CJ?0?5Logic?5E@ 00000001800c3ff0     encoder_ext.obj
 0003:00004040       ??_C@_0EE@OPEGNNNP@WelsEncoderEncodeExt?$CI?$CJ?0?5iLayerN@ 00000001800c4040     encoder_ext.obj
 0003:00004090       ??_C@_0EB@NAHLKEPG@WelsEncoderEncodeExt?$CI?$CJ?5OutputIn@ 00000001800c4090     encoder_ext.obj
 0003:000040e0       ??_C@_0JE@NBMFAAMA@WelsEncoderEncodeExt?$CI?$CJ?5OutputIn@ 00000001800c40e0     encoder_ext.obj
 0003:00004180       ??_C@_0EB@DHGCBCKL@WelsEncoderParamAdjust?$CI?$CJ?0?5GetMu@ 00000001800c4180     encoder_ext.obj
 0003:000041d0       ??_C@_0FH@OHBCOCKD@WelsEncoderParamAdjust?$CI?$CJ?0?5does?5@ 00000001800c41d0     encoder_ext.obj
 0003:00004230       ??_C@_0JA@IDIFOGKO@WelsEncoderParamAdjust?$CI?$CJ?0bSimul@ 00000001800c4230     encoder_ext.obj
 0003:000042c0       ??_C@_0OM@JDMFEKDC@WelsEncoderParamAdjust?$CI?$CJ?0bEnabl@ 00000001800c42c0     encoder_ext.obj
 0003:000043b0       ??_C@_0IO@DFBKPJFL@WelsEncoderParamAdjust?$CI?$CJ?0iIndex@ 00000001800c43b0     encoder_ext.obj
 0003:00004440       ??_C@_0EM@KIMAPOOA@WelsEncoderParamAdjust?$CI?$CJ?0iIndex@ 00000001800c4440     encoder_ext.obj
 0003:00004490       ??_C@_0GK@KDHDNODD@WelsEncoderParamAdjust?$CI?$CJ?5iIndex@ 00000001800c4490     encoder_ext.obj
 0003:00004500       ??_C@_0DK@PNEPKCNH@WelsEncoderParamAdjust?$CI?$CJ?0iIndex@ 00000001800c4500     encoder_ext.obj
 0003:00004540       ??_C@_0DI@LCFHEEFL@WelsEncoderParamAdjust?$CI?$CJ?0iIndex@ 00000001800c4540     encoder_ext.obj
 0003:00004580       ??_C@_0JG@MNJEIGFB@?5CWelsH264SVCEncoder?3?3SetOption@ 00000001800c4580     encoder_ext.obj
 0003:00004620       ??_C@_0JH@EAOGALEB@?5CWelsH264SVCEncoder?3?3SetOption@ 00000001800c4620     encoder_ext.obj
 0003:000046b8       ??_C@_0DL@OLGOGODB@CWelsH264SVCEncoder?3?3SetOption?5@ 00000001800c46b8     encoder_ext.obj
 0003:00004700       ??_C@_0EN@IACECFPN@CWelsH264SVCEncoder?3?3WelsCodeOn@ 00000001800c4700     encoder_ext.obj
 0003:00004750       ??_C@_0FC@OGNLNFLK@CWelsH264SVCEncoder?3?3WelsCodeOn@ 00000001800c4750     encoder_ext.obj
 0003:000047a4       __real@358637bd            00000001800c47a4     encoder_ext.obj
 0003:000047a8       __real@3e800000            00000001800c47a8     encoder_ext.obj
 0003:000047b0       __real@3f1a36e2eb1c432d    00000001800c47b0     encoder_ext.obj
 0003:000047b8       __real@3f800000            00000001800c47b8     encoder_ext.obj
 0003:000047c0       __real@3fe0000000000000    00000001800c47c0     encoder_ext.obj
 0003:000047c8       __real@3ff0000000000000    00000001800c47c8     encoder_ext.obj
 0003:000047d0       __real@4000000000000000    00000001800c47d0     encoder_ext.obj
 0003:000047d8       __real@4059000000000000    00000001800c47d8     encoder_ext.obj
 0003:000047e0       __real@40c00000            00000001800c47e0     encoder_ext.obj
 0003:000047e4       __real@42700000            00000001800c47e4     encoder_ext.obj
 0003:000047e8       __real@b58637bd            00000001800c47e8     encoder_ext.obj
 0003:000047f0       __xmm@00000034000000340000003400000034 00000001800c47f0     encoder_ext.obj
 0003:00004800       __xmm@ffffffffffffffffffffffffffffffff 00000001800c4800     encoder_ext.obj
 0003:00004840       __xmm@00000003000000020000000100000000 00000001800c4840     md.obj
 0003:00004860       ??_7IWelsParametersetStrategy@WelsEnc@@6B@ 00000001800c4860     paraset_strategy.obj
 0003:00004908       ??_7CWelsParametersetIdConstant@WelsEnc@@6B@ 00000001800c4908     paraset_strategy.obj
 0003:000049c0       ??_7CWelsParametersetIdIncreasing@WelsEnc@@6B@ 00000001800c49c0     paraset_strategy.obj
 0003:00004a78       ??_7CWelsParametersetSpsListing@WelsEnc@@6B@ 00000001800c4a78     paraset_strategy.obj
 0003:00004b40       ??_7CWelsParametersetSpsPpsListing@WelsEnc@@6B@ 00000001800c4b40     paraset_strategy.obj
 0003:00004c08       ??_7CWelsParametersetSpsListingPpsIncreasing@WelsEnc@@6B@ 00000001800c4c08     paraset_strategy.obj
 0003:00004cc8       ??_C@_04CNECPEE@pPic@      00000001800c4cc8     picture_handle.obj
 0003:00004cd0       ??_C@_0O@JCDNGGLD@pPic?9?$DOpBuffer@ 00000001800c4cd0     picture_handle.obj
 0003:00004ce0       ??_C@_0BC@PGDNLDBA@pPic?9?$DOuiRefMbType@ 00000001800c4ce0     picture_handle.obj
 0003:00004cf8       ??_C@_0P@HHGNNFFG@pPic?9?$DOpRefMbQp@ 00000001800c4cf8     picture_handle.obj
 0003:00004d08       ??_C@_0O@PBINDMKA@pPic?9?$DOsMvList@ 00000001800c4d08     picture_handle.obj
 0003:00004d18       ??_C@_0BB@KFLJLEOE@pPic?9?$DOpMbSkipSad@ 00000001800c4d18     picture_handle.obj
 0003:00004d30       ??_C@_0BL@GKJBFMAN@pScreenBlockFeatureStorage@ 00000001800c4d30     picture_handle.obj
 0003:00004d50       ??_C@_0CB@KHBLDGMG@pPic?9?$DOpScreenBlockFeatureStorag@ 00000001800c4d50     picture_handle.obj
 0003:00004e50       ??_C@_0BM@NLGCCMGK@pWelsSvcRc?9?$DOpTemporalOverRc@ 00000001800c4e50     ratectl.obj
 0003:00004e70       ??_C@_0FK@JIDGOCPN@iCmplxRatio?5?$DN?5?$CFd?0frameComplexit@ 00000001800c4e70     ratectl.obj
 0003:00004ed0       ??_C@_0HO@CKIGKHHB@iMaxTh?5?$DN?5?$CFd?0iMinTh?5?$DN?5?$CFd?0pWelsSv@ 00000001800c4ed0     ratectl.obj
 0003:00004f50       ??_C@_0HC@CNCFPMFE@iMaxTh?5?$DN?5?$CFd?0pWelsSvcRc?9?$DOiTarget@ 00000001800c4f50     ratectl.obj
 0003:00004fd0       ??_C@_0HP@LEHFKGBJ@iMaxTh?5?$DN?5?$CFd?0iMinTh?5?$DN?5?$CFd?0pWelsSv@ 00000001800c4fd0     ratectl.obj
 0003:00005050       ??_C@_0EA@GLPHIEHF@?$FLRc?$FN?5bits?5in?5buffer?5?$DN?5?$CFI64d?0?5bi@ 00000001800c5050     ratectl.obj
 0003:00005090       ??_C@_0FB@LONFMCAB@?$FLRc?$FN?5VBV_Skip?0dIncPercent?5?$DN?5?$CFf?0@ 00000001800c5090     ratectl.obj
 0003:000050f0       ??_C@_0GB@JHDDAJEL@?$FLRc?$FN?5bits?5in?5buffer?5?$DN?5?$CFI64d?0?5bi@ 00000001800c50f0     ratectl.obj
 0003:00005160       ??_C@_0EK@IJPBDPMN@?$FLRc?$FN?5iDid?5?$DN?5?$CFd?0bits?5in?5buffer?5?$DN@ 00000001800c5160     ratectl.obj
 0003:000051b0       ??_C@_0DB@CBHJKKPK@?$FLRc?$FN?5iDid?5?$DN?5?$CFd?0iContinualSkipFr@ 00000001800c51b0     ratectl.obj
 0003:000051f0       ??_C@_0NO@LGKMCBAF@?$FLRc?$FNLayer?5?$CFd?3?5Frame?5timestamp?5?$DN@ 00000001800c51f0     ratectl.obj
 0003:000052d0       ??_C@_0EJ@ODFKCCI@RcUpdateIntraComplexity?5iFrameD@ 00000001800c52d0     ratectl.obj
 0003:00005320       ??_C@_0GL@GKPDNHNA@RcUpdateFrameComplexity?5iFrameD@ 00000001800c5320     ratectl.obj
 0003:00005390       ??_C@_0DB@GIHBGCMN@iFrameCmplxMean?5?$DN?5?$CFI64d?0iFrameC@ 00000001800c5390     ratectl.obj
 0003:000053d0       ??_C@_0JO@KLFIDGBH@WelsRcFrameDelayJudgeTimeStamp?5@ 00000001800c53d0     ratectl.obj
 0003:00005470       __real@3eb0c6f7a0000000    00000001800c5470     ratectl.obj
 0003:00005478       __real@3f000000            00000001800c5478     ratectl.obj
 0003:00005480       __real@3f50624dd2f1a9fc    00000001800c5480     ratectl.obj
 0003:00005488       __real@3fb999999999999a    00000001800c5488     ratectl.obj
 0003:00005490       __real@3fd0000000000000    00000001800c5490     ratectl.obj
 0003:00005498       __real@4010000000000000    00000001800c5498     ratectl.obj
 0003:000054a0       __real@4014000000000000    00000001800c54a0     ratectl.obj
 0003:000054a8       __real@4018000000000000    00000001800c54a8     ratectl.obj
 0003:000054b0       __real@408f400000000000    00000001800c54b0     ratectl.obj
 0003:000054b8       __real@40a00000            00000001800c54b8     ratectl.obj
 0003:000054bc       __real@41000000            00000001800c54bc     ratectl.obj
 0003:000054c0       __real@42c80000            00000001800c54c0     ratectl.obj
 0003:000054c8       __real@beb0c6f7a0000000    00000001800c54c8     ratectl.obj
 0003:000054d0       __xmm@000000000000000000000000000007d0 00000001800c54d0     ratectl.obj
 0003:000054e0       __xmm@000000000000000000000320000004b0 00000001800c54e0     ratectl.obj
 0003:000054f0       __xmm@000000000000012c0000025800000320 00000001800c54f0     ratectl.obj
 0003:00005500       __xmm@00000017000000230000001800000024 00000001800c5500     ratectl.obj
 0003:00005510       __xmm@000000180000001a0000001c00000022 00000001800c5510     ratectl.obj
 0003:00005520       __xmm@00000019000000250000001c00000028 00000001800c5520     ratectl.obj
 0003:00005530       __xmm@0000001c0000001e0000002000000022 00000001800c5530     ratectl.obj
 0003:00005540       __xmm@0000001c0000001e0000002400000016 00000001800c5540     ratectl.obj
 0003:00005550       __xmm@0000002000000024000000180000001a 00000001800c5550     ratectl.obj
 0003:00005560       __xmm@000000240000001a0000001c0000001e 00000001800c5560     ratectl.obj
 0003:00005570       __xmm@000000af000000fa0000012c000001f4 00000001800c5570     ratectl.obj
 0003:00005580       __xmm@3f9eb851eb851eb83f847ae147ae147b 00000001800c5580     ratectl.obj
 0003:00005590       __xmm@3fa999999999999a3f9eb851eb851eb8 00000001800c5590     ratectl.obj
 0003:000055a0       __xmm@3fb999999999999a3faeb851eb851eb8 00000001800c55a0     ratectl.obj
 0003:000055b0       __xmm@3fc0a3d70a3d70a43fb70a3d70a3d70a 00000001800c55b0     ratectl.obj
 0003:000055c0       __xmm@3fc999999999999a3fb999999999999a 00000001800c55c0     ratectl.obj
 0003:000055d0       __xmm@3fd999999999999a3fd3333333333333 00000001800c55d0     ratectl.obj
 0003:000055e0       __xmm@3fe00000000000003fd0000000000000 00000001800c55e0     ratectl.obj
 0003:000055f0       __xmm@3ff00000000000003fe8000000000000 00000001800c55f0     ratectl.obj
 0003:00005608       ??_7IWelsReferenceStrategy@WelsEnc@@6B@ 00000001800c5608     ref_list_mgr_svc.obj
 0003:00005648       ??_7CWelsReference_TemporalLayer@WelsEnc@@6B@ 00000001800c5648     ref_list_mgr_svc.obj
 0003:00005688       ??_7CWelsReference_Screen@WelsEnc@@6B@ 00000001800c5688     ref_list_mgr_svc.obj
 0003:000056c8       ??_7CWelsReference_LosslessWithLtr@WelsEnc@@6B@ 00000001800c56c8     ref_list_mgr_svc.obj
 0003:00005700       ??_C@_0DN@FKHEAOEE@LTR?5?0invalid?5LTR?5delete?5?0long_t@ 00000001800c5700     ref_list_mgr_svc.obj
 0003:00005740       ??_C@_0EL@LOIGKDEM@LTR?5?0iMarkFrameNum?5invalid?5LTR?5@ 00000001800c5740     ref_list_mgr_svc.obj
 0003:00005790       ??_C@_0GH@OFILOFF@pLtr?9?$DOuiLtrMarkState?5?$DN?5?$CFd?0?5pLtr@ 00000001800c5790     ref_list_mgr_svc.obj
 0003:000057f8       ??_C@_0BC@KDJIMHEC@LTR?5mark?5mode?5?$DN?$CFd@ 00000001800c57f8     ref_list_mgr_svc.obj
 0003:00005810       ??_C@_0HP@HNINCMAE@Receive?5valid?5LTR?5recovery?5pReq@ 00000001800c5810     ref_list_mgr_svc.obj
 0003:00005890       ??_C@_0HJ@ONHKODFM@Receive?5LTR?5recovery?5pRequest?0f@ 00000001800c5890     ref_list_mgr_svc.obj
 0003:00005910       ??_C@_0HE@LKPJBHPK@Receive?5valid?5LTR?5marking?5feedb@ 00000001800c5910     ref_list_mgr_svc.obj
 0003:00005990       ??_C@_0GO@MEMJCKKA@Receive?5LTR?5marking?5feedback?0?5f@ 00000001800c5990     ref_list_mgr_svc.obj
 0003:00005a00       ??_C@_0FB@FHIJGACM@pRef?5is?5int32_t?5?$CBiLastRecoverFr@ 00000001800c5a00     ref_list_mgr_svc.obj
 0003:00005a60       ??_C@_0FG@GHMHNJDF@WelsBuildRefList?5pCtx?9?$DOuiTempor@ 00000001800c5a60     ref_list_mgr_svc.obj
 0003:00005ab8       ??_C@_0DB@IEHCHBNA@WelsUpdateRefSyntax?$CI?$CJ?3?3?3uiAbsDi@ 00000001800c5ab8     ref_list_mgr_svc.obj
 0003:00005af0       ??_C@_0DP@FAKGFGMA@WelsUpdateRefSyntax?$CI?$CJ?3?3?3uiAbsDi@ 00000001800c5af0     ref_list_mgr_svc.obj
 0003:00005b30       ??_C@_0KC@EEBAHJFN@WelsBuildRefListScreen?$CI?$CJ?0?5curre@ 00000001800c5b30     ref_list_mgr_svc.obj
 0003:00005be0       ??_C@_0FK@MFJELBCF@WelsBuildRefListScreen?$CI?$CJ?0?5ref?5?$CB@ 00000001800c5be0     ref_list_mgr_svc.obj
 0003:00005c40       ??_C@_0DH@CPODLBLG@WelsBuildRefListScreen?$CI?$CJ?0?5Curre@ 00000001800c5c40     ref_list_mgr_svc.obj
 0003:00005c80       ??_C@_0MI@NDOADHEH@WelsBuildRefListScreen?$CI?$CJ?7RefLot@ 00000001800c5c80     ref_list_mgr_svc.obj
 0003:00005d48       ??_C@_0CK@PGDEPKCK@WelsBuildRefListScreen?$CI?$CJ?7RefLot@ 00000001800c5d48     ref_list_mgr_svc.obj
 0003:00005d78       ??_C@_0CI@HBPPLDFG@WelsMarkPicScreen?0?5Invalid?5Fram@ 00000001800c5d78     ref_list_mgr_svc.obj
 0003:00005dd0       ??_C@_0FM@IJJFPKGG@?$FLMT?$FN?5DynamicAdjustSlicing?$CI?$CJ?0?5in@ 00000001800c5dd0     slice_multi_threading.obj
 0003:00005e30       ??_C@_0BA@NNEOFCNH@SSliceThreading@ 00000001800c5e30     slice_multi_threading.obj
 0003:00005e40       ??_C@_0P@LJPPPI@pThreadPEncCtx@ 00000001800c5e40     slice_multi_threading.obj
 0003:00005e50       ??_C@_02BBAHNLBA@?$CFp@    00000001800c5e50     slice_multi_threading.obj
 0003:00005e54       ??_C@_06MIFHPMFP@ud?$CFd?$CFs@ 00000001800c5e54     slice_multi_threading.obj
 0003:00005e5c       ??_C@_06FGOLKLDC@fu?$CFd?$CFs@ 00000001800c5e5c     slice_multi_threading.obj
 0003:00005e64       ??_C@_06LGICPJNN@sc?$CFd?$CFs@ 00000001800c5e64     slice_multi_threading.obj
 0003:00005e6c       ??_C@_06BAPFPCGJ@rc?$CFd?$CFs@ 00000001800c5e6c     slice_multi_threading.obj
 0003:00005e74       ??_C@_05OOMBKNEO@scm?$CFs@ 00000001800c5e74     slice_multi_threading.obj
 0003:00005e80       ??_C@_0BG@OAMBPHCF@pSmt?9?$DOpThreadBsBuffer@ 00000001800c5e80     slice_multi_threading.obj
 0003:00005e98       __real@3ca3d923            00000001800c5e98     slice_multi_threading.obj
 0003:00005e9c       __real@3cb022de            00000001800c5e9c     slice_multi_threading.obj
 0003:00005ea0       __real@3d03137b            00000001800c5ea0     slice_multi_threading.obj
 0003:000061a0       ??_C@_0BJ@JGEPGNHP@pSliceSeg?9?$DOpOverallMbMap@ 00000001800c61a0     svc_enc_slice_segment.obj
 0003:000061f0       ??_C@_0CI@ECCMGJK@Invalid?5uiDisableDeblockingFilt@ 00000001800c61f0     svc_encode_slice.obj
 0003:00006218       ??_C@_0BF@FFLJLBIM@pMbCache?9?$DOpMemPredMb@ 00000001800c6218     svc_encode_slice.obj
 0003:00006230       ??_C@_0BG@DMAKLNIK@pMbCache?9?$DOpCoeffLevel@ 00000001800c6230     svc_encode_slice.obj
 0003:00006248       ??_C@_0BC@IGLPIPKK@pMbCache?9?$DOpSkipMb@ 00000001800c6248     svc_encode_slice.obj
 0003:00006260       ??_C@_0BH@LGHHDGDA@pMbCache?9?$DOpMemPredBlk4@ 00000001800c6260     svc_encode_slice.obj
 0003:00006278       ??_C@_0BN@HLLDEPCO@pMbCache?9?$DOpBufferInterPredMe@ 00000001800c6278     svc_encode_slice.obj
 0003:00006298       ??_C@_0CE@HDDGCNFA@pMbCache?9?$DOpPrevIntra4x4PredMode@ 00000001800c6298     svc_encode_slice.obj
 0003:000062c0       ??_C@_0CD@COAENFCI@pMbCache?9?$DOpRemIntra4x4PredModeF@ 00000001800c62c0     svc_encode_slice.obj
 0003:000062e8       ??_C@_0P@FJCHAIEM@pMbCache?9?$DOpDct@ 00000001800c62e8     svc_encode_slice.obj
 0003:000062f8       ??_C@_0N@KGJEAGN@sSliceBs?4pBs@ 00000001800c62f8     svc_encode_slice.obj
 0003:00006310       ??_C@_0FH@GIBHLPE@CWelsH264SVCEncoder?3?3InitSliceT@ 00000001800c6310     svc_encode_slice.obj
 0003:00006370       ??_C@_0EJ@IBKCIOHC@CWelsH264SVCEncoder?3?3InitSliceI@ 00000001800c6370     svc_encode_slice.obj
 0003:000063c0       ??_C@_0EN@NOIHCPAL@CWelsH264SVCEncoder?3?3InitSliceI@ 00000001800c63c0     svc_encode_slice.obj
 0003:00006410       ??_C@_0EN@CHABHLJO@CWelsH264SVCEncoder?3?3InitSliceI@ 00000001800c6410     svc_encode_slice.obj
 0003:00006460       ??_C@_0EA@IMDNPINL@CWelsH264SVCEncoder?3?3Reallocate@ 00000001800c6460     svc_encode_slice.obj
 0003:000064a0       ??_C@_0CL@IDDFJGLK@ReallocateSliceList?$CI?$CJ?3?3InitSlic@ 00000001800c64a0     svc_encode_slice.obj
 0003:000064d0       ??_C@_0DI@MAGKPIGN@CWelsH264SVCEncoder?3?3ExtendLaye@ 00000001800c64d0     svc_encode_slice.obj
 0003:00006510       ??_C@_0ED@ECNLMAAB@CWelsH264SVCEncoder?3?3ExtendLaye@ 00000001800c6510     svc_encode_slice.obj
 0003:00006560       ??_C@_0ED@LLFNJEJE@CWelsH264SVCEncoder?3?3ExtendLaye@ 00000001800c6560     svc_encode_slice.obj
 0003:000065a8       ??_C@_0DG@IGEBJJLB@CWelsH264SVCEncoder?3?3FrameBsRea@ 00000001800c65a8     svc_encode_slice.obj
 0003:000065e0       ??_C@_0DF@NHFOABNM@CWelsH264SVCEncoder?3?3FrameBsRea@ 00000001800c65e0     svc_encode_slice.obj
 0003:00006620       ??_C@_0EG@CNDPABDB@CWelsH264SVCEncoder?3?3SliceLayer@ 00000001800c6620     svc_encode_slice.obj
 0003:00006670       ??_C@_0FJ@CGGCALKN@DynSlcJudgeSliceBoundaryStepBac@ 00000001800c6670     svc_encode_slice.obj
 0003:000066d0       ?QStepx16ByQp@WelsEnc@@3QBHB 00000001800c66d0     svc_motion_estimate.obj
 0003:000067a0       ??_C@_0BA@BKBNCHCC@pFeatureOfBlock@ 00000001800c67a0     svc_motion_estimate.obj
 0003:000067b0       ??_C@_0DB@HDPHKKLL@pScreenBlockFeatureStorage?9?$DOpTi@ 00000001800c67b0     svc_motion_estimate.obj
 0003:000067e8       ??_C@_0CP@PCFKHCPK@pScreenBlockFeatureStorage?9?$DOpLo@ 00000001800c67e8     svc_motion_estimate.obj
 0003:00006818       ??_C@_0CN@JADGJPFM@pScreenBlockFeatureStorage?9?$DOpLo@ 00000001800c6818     svc_motion_estimate.obj
 0003:00006848       ??_C@_0DF@CBFEKGCG@pScreenBlockFeatureStorage?9?$DOpFe@ 00000001800c6848     svc_motion_estimate.obj
 0003:00006a68       ??_7CWelsPreProcess@WelsEnc@@6B@ 00000001800c6a68     wels_preprocess.obj
 0003:00006a88       ??_7CWelsPreProcessVideo@WelsEnc@@6B@ 00000001800c6a88     wels_preprocess.obj
 0003:00006aa8       ??_7CWelsPreProcessScreen@WelsEnc@@6B@ 00000001800c6aa8     wels_preprocess.obj
 0003:00006ac0       ??_C@_0DN@CJENCIKE@Don?8t?5support?5width?$CI?$CFd?$CJ?5or?5heig@ 00000001800c6ac0     wels_preprocess.obj
 0003:00006b00       ??_C@_0DL@JIAIDAFA@pSvcParam?9?$DOuiIntraPeriod?$DN?$CFd?0?5pC@ 00000001800c6b00     wels_preprocess.obj
 0003:00006b40       ??_C@_0DC@PILOKEAK@SceneChangeDetect?$CI?$CJ?5iAvailableR@ 00000001800c6b40     wels_preprocess.obj
 0003:00006b78       ??_C@_0CM@DEFKFFND@iVaaFrameSceneChangeIdc?5?$DN?5?$CFd?0co@ 00000001800c6b78     wels_preprocess.obj
 0003:00006ba4       __real@3c23d70a            00000001800c6ba4     wels_preprocess.obj
 0003:00006ba8       __real@3fe999999999999a    00000001800c6ba8     wels_preprocess.obj
 0003:00006bb0       __real@3ff199999999999a    00000001800c6bb0     wels_preprocess.obj
 0003:00006bc0       ??_7IWelsTask@WelsCommon@@6B@ 00000001800c6bc0     wels_task_base.obj
 0003:00006bd8       ??_7CWelsSliceEncodingTask@WelsEnc@@6B@ 00000001800c6bd8     wels_task_encoder.obj
 0003:00006c10       ??_7CWelsUpdateMbMapTask@WelsEnc@@6B@ 00000001800c6c10     wels_task_encoder.obj
 0003:00006c30       ??_C@_0EJ@LKECLEEL@?$FLMT?$FN?5CWelsSliceEncodingTask?$CI?$CJIn@ 00000001800c6c30     wels_task_encoder.obj
 0003:00006c80       ??_C@_0FK@GOFJCMHM@?$FLMT?$FN?5CWelsSliceEncodingTask?5Ini@ 00000001800c6c80     wels_task_encoder.obj
 0003:00006ce0       ??_C@_0EN@NADFEHEP@?$FLMT?$FN?5CWelsSliceEncodingTask?$CI?$CJFi@ 00000001800c6ce0     wels_task_encoder.obj
 0003:00006d30       ??_C@_0GH@GLJIONCO@?$FLMT?$FN?5CWelsSliceEncodingTask?5Exe@ 00000001800c6d30     wels_task_encoder.obj
 0003:00006d98       ??_C@_0CL@PNOKICJN@?$EApSlice?$DN?$CF?96d?5sliceType?3?$CFc?5idc?3?$CF@ 00000001800c6d98     wels_task_encoder.obj
 0003:00006dd0       ??_C@_0FG@CCKFGEFJ@?$FLMT?$FN?5CWelsLoadBalancingSlicingE@ 00000001800c6dd0     wels_task_encoder.obj
 0003:00006e30       ??_C@_0LL@MACHOLPB@?$FLMT?$FN?5CWelsLoadBalancingSlicingE@ 00000001800c6e30     wels_task_encoder.obj
 0003:00006ef0       ??_C@_0KM@JLAJOGOM@?$FLMT?$FN?5CWelsConstrainedSizeSlicin@ 00000001800c6ef0     wels_task_encoder.obj
 0003:00006fa0       ??_C@_0CM@HEKMONPB@?$EApSlice?$DN?$CF?96d?5sliceType?3?$CFc?5idc?3?$CF@ 00000001800c6fa0     wels_task_encoder.obj
 0003:00006fd0       ??_C@_0OP@EDNOJPPO@?$FLMT?$FN?5CWelsConstrainedSizeSlicin@ 00000001800c6fd0     wels_task_encoder.obj
 0003:000070c0       __real@412e848000000000    00000001800c70c0     wels_task_encoder.obj
 0003:000070d0       ??_7CWelsLock@WelsCommon@@6B@ 00000001800c70d0     wels_task_management.obj
 0003:000070e0       ??_7CWelsAutoLock@WelsCommon@@6B@ 00000001800c70e0     wels_task_management.obj
 0003:000070f0       ??_7IWelsTaskManage@WelsEnc@@6B@ 00000001800c70f0     wels_task_management.obj
 0003:00007128       ??_7CWelsTaskManageBase@WelsEnc@@6BIWelsTaskManage@1@@ 00000001800c7128     wels_task_management.obj
 0003:00007168       ??_7CWelsTaskManageBase@WelsEnc@@6BIWelsTaskSink@WelsCommon@@@ 00000001800c7168     wels_task_management.obj
 0003:00007180       ??_7CWelsLoadBalancingSlicingEncodingTask@WelsEnc@@6B@ 00000001800c7180     wels_task_management.obj
 0003:000071b8       ??_7CWelsConstrainedSizeSlicingEncodingTask@WelsEnc@@6B@ 00000001800c71b8     wels_task_management.obj
 0003:000071f0       ??_C@_0EE@HAEDNELF@Set?5Thread?5Num?5to?5?$CFd?5did?5not?5su@ 00000001800c71f0     wels_task_management.obj
 0003:00007250       ??_7ISVCEncoder@@6B@       00000001800c7250     welsEncoderExt.obj
 0003:000072a8       ??_7CWelsH264SVCEncoder@WelsEnc@@6B@ 00000001800c72a8     welsEncoderExt.obj
 0003:00007300       ??_C@_0CM@JAPAOJEJ@CWelsH264SVCEncoder?3?3?$HOCWelsH264@ 00000001800c7300     welsEncoderExt.obj
 0003:00007330       ??_C@_07OEJBFCNL@008465e@  00000001800c7330     welsEncoderExt.obj
 0003:00007340       ??_C@_0EA@DABNPILP@CWelsH264SVCEncoder?3?3InitEncode@ 00000001800c7340     welsEncoderExt.obj
 0003:00007380       ??_C@_0DG@CJBHNJEJ@CWelsH264SVCEncoder?3?3Initialize@ 00000001800c7380     welsEncoderExt.obj
 0003:000073c0       ??_C@_0EB@CIFOHOEH@CWelsH264SVCEncoder?3?3Initialize@ 00000001800c73c0     welsEncoderExt.obj
 0003:00007408       ??_C@_0DJ@GOPKIMLA@CWelsH264SVCEncoder?3?3Initialize@ 00000001800c7408     welsEncoderExt.obj
 0003:00007450       ??_C@_0EE@GNMMMHOK@CWelsH264SVCEncoder?3?3Initialize@ 00000001800c7450     welsEncoderExt.obj
 0003:00007498       ??_C@_0DH@ECOOHMB@CWelsH264SVCEncoder?3?3Initialize@ 00000001800c7498     welsEncoderExt.obj
 0003:000074d0       ??_C@_0EF@ECAIFBLD@CWelsH264SVCEncoder?3?3Initialize@ 00000001800c74d0     welsEncoderExt.obj
 0003:00007520       ??_C@_0FM@ODBMBJAC@CWelsH264SVCEncoder?3?3Initialize@ 00000001800c7520     welsEncoderExt.obj
 0003:00007580       ??_C@_0FN@KDEOLOLO@CWelsH264SVCEncoder?3?3Initialize@ 00000001800c7580     welsEncoderExt.obj
 0003:000075e0       ??_C@_0FF@NNLGKKIF@CWelsH264SVCEncoder?3?3Initialize@ 00000001800c75e0     welsEncoderExt.obj
 0003:00007640       ??_C@_0GN@DHBHOHEE@CWelsH264SVCEncoder?3?3Initialize@ 00000001800c7640     welsEncoderExt.obj
 0003:000076b0       ??_C@_0JK@JGLOEIPB@CWelsH264SVCEncoder?3?3Initialize@ 00000001800c76b0     welsEncoderExt.obj
 0003:00007750       ??_C@_0KO@KODNGMHO@CWelsH264SVCEncoder?3?3Initialize@ 00000001800c7750     welsEncoderExt.obj
 0003:00007800       ??_C@_0DO@ILKBKFOI@CWelsH264SVCEncoder?3?3Initialize@ 00000001800c7800     welsEncoderExt.obj
 0003:00007840       ??_C@_0GB@HLBHMJJA@Problematic?5Input?5Base?5Param?3?5i@ 00000001800c7840     welsEncoderExt.obj
 0003:000078b0       ??_C@_0EC@FDGHAHK@CWelsH264SVCEncoder?3?3Uninitiali@ 00000001800c78b0     welsEncoderExt.obj
 0003:000078f8       ??_C@_0DF@JLNHLFBF@CWelsH264SVCEncoder?3?3EncodeFram@ 00000001800c78f8     welsEncoderExt.obj
 0003:00007930       ??_C@_0DK@PIPDBPIO@CWelsH264SVCEncoder?3?3EncodeFram@ 00000001800c7930     welsEncoderExt.obj
 0003:00007970       ??_C@_0DH@FGIBOEIP@CWelsH264SVCEncoder?3?3EncodeFram@ 00000001800c7970     welsEncoderExt.obj
 0003:000079a8       ??_C@_0DN@DAFGBJOF@Don?8t?5support?5width?$CI?$CFd?$CJ?5or?5heig@ 00000001800c79a8     welsEncoderExt.obj
 0003:000079e8       ??_C@_0DH@BBCIFPH@CWelsH264SVCEncoder?3?3EncodeFram@ 00000001800c79e8     welsEncoderExt.obj
 0003:00007a20       ??_C@_0DC@GJMMAGHO@unexpected?5return?$CI?$CFd?$CJ?5from?5Enco@ 00000001800c7a20     welsEncoderExt.obj
 0003:00007a60       ??_C@_0EK@FCBJHDGH@CWelsH264SVCEncoder?3?3ForceIntra@ 00000001800c7a60     welsEncoderExt.obj
 0003:00007ab0       ??_C@_0CKB@FFMJNDPJ@iUsageType?5?$DN?5?$CFd?0iPicWidth?$DN?5?$CFd?$DLi@ 00000001800c7ab0     welsEncoderExt.obj
 0003:00007d60       ??_C@_0BBH@CPPGDLMK@sSpatialLayers?$FL?$CFd?$FN?3?5?4iVideoWidt@ 00000001800c7d60     welsEncoderExt.obj
 0003:00007e80       ??_C@_0BCA@JIKGFEPO@EncoderStatistics?3?5SpatialId?5?$DN?5@ 00000001800c7e80     welsEncoderExt.obj
 0003:00007fa0       ??_C@_0KB@NEDOGDFE@Actual?5input?5fLatestFrameRate?5?$DN@ 00000001800c7fa0     welsEncoderExt.obj
 0003:00008050       ??_C@_0GN@FJOIGOJ@Actual?5input?5framerate?5?$CFf?5is?5di@ 00000001800c8050     welsEncoderExt.obj
 0003:000080c0       ??_C@_0EK@GCOENKMM@ENCODER_OPTION_INTER_SPATIAL_PR@ 00000001800c80c0     welsEncoderExt.obj
 0003:00008110       ??_C@_0FC@NLOOPPIM@CWelsH264SVCEncoder?3?3SetOption?$CI@ 00000001800c8110     welsEncoderExt.obj
 0003:00008170       ??_C@_0EJ@MFLFGKLF@CWelsH264SVCEncoder?3?3SetOption?$CI@ 00000001800c8170     welsEncoderExt.obj
 0003:000081c0       ??_C@_0FJ@DHLDNFND@CWelsH264SVCEncoder?3?3SetOption?$CI@ 00000001800c81c0     welsEncoderExt.obj
 0003:00008220       ??_C@_0FO@KNIAGODH@CWelsH264SVCEncoder?3?3SetOption?$CI@ 00000001800c8220     welsEncoderExt.obj
 0003:00008280       ??_C@_0GJ@PPJNBKLL@CWelsH264SVCEncoder?3?3SetOption?$CI@ 00000001800c8280     welsEncoderExt.obj
 0003:000082f0       ??_C@_0KI@JFNFGALI@CWelsH264SVCEncoder?3?3SetOption?$CI@ 00000001800c82f0     welsEncoderExt.obj
 0003:000083a0       ??_C@_0GG@EAJPGNMP@CWelsH264SVCEncoder?3?3SetOption?$CI@ 00000001800c83a0     welsEncoderExt.obj
 0003:00008410       ??_C@_0GD@IHIHKLOJ@CWelsH264SVCEncoder?3?3SetOption?$CI@ 00000001800c8410     welsEncoderExt.obj
 0003:00008480       ??_C@_0FN@ENGBOJBP@CWelsH264SVCEncoder?3?3SetOption?$CI@ 00000001800c8480     welsEncoderExt.obj
 0003:000084e0       ??_C@_0GI@GJIGNGJI@CWelsH264SVCEncoder?3?3SetOption?$CI@ 00000001800c84e0     welsEncoderExt.obj
 0003:00008550       ??_C@_0GF@NCHBMPKI@CWelsH264SVCEncoder?3?3SetOption?$CI@ 00000001800c8550     welsEncoderExt.obj
 0003:000085c0       ??_C@_0GH@JJPNNHNO@CWelsH264SVCEncoder?3?3SetOption?$CI@ 00000001800c85c0     welsEncoderExt.obj
 0003:00008630       ??_C@_0EG@EGKPHOPH@CWelsH264SVCEncoder?3?3SetOption?$CI@ 00000001800c8630     welsEncoderExt.obj
 0003:00008680       ??_C@_0EE@OKJENPP@CWelsH264SVCEncoder?3?3SetOption?$CI@ 00000001800c8680     welsEncoderExt.obj
 0003:000086d0       ??_C@_0FJ@HNBGJIHM@CWelsH264SVCEncoder?3?3SetOption?$CI@ 00000001800c86d0     welsEncoderExt.obj
 0003:00008730       ??_C@_0EK@POOOOEDF@CWelsH264SVCEncoder?3?3SetOption?$CI@ 00000001800c8730     welsEncoderExt.obj
 0003:00008780       ??_C@_0EI@IIOMAGKE@CWelsH264SVCEncoder?3?3SetOption?$CI@ 00000001800c8780     welsEncoderExt.obj
 0003:000087d0       ??_C@_0FM@HECPDBKN@CWelsH264SVCEncoder?3?3SetOption?$CI@ 00000001800c87d0     welsEncoderExt.obj
 0003:00008830       ??_C@_0HP@MNEKDKIK@CWelsH264SVCEncoder?3?3SetOption?$CI@ 00000001800c8830     welsEncoderExt.obj
 0003:000088b0       ??_C@_0FG@NAHOJGGP@CWelsH264SVCEncoder?3?3SetOption?$CI@ 00000001800c88b0     welsEncoderExt.obj
 0003:00008910       ??_C@_0GI@BGJMCDGO@CWelsH264SVCEncoder?3?3SetOption?$CI@ 00000001800c8910     welsEncoderExt.obj
 0003:00008980       ??_C@_0EL@DICMHAKF@CWelsH264SVCEncoder?3?3SetOption?$CI@ 00000001800c8980     welsEncoderExt.obj
 0003:000089d0       ??_C@_0FA@PDIHKAGG@CWelsH264SVCEncoder?3?3SetOption?$CI@ 00000001800c89d0     welsEncoderExt.obj
 0003:00008a20       ??_C@_0KP@GGEGKNCB@CWelsH264SVCEncoder?3?3SetOption?$CI@ 00000001800c8a20     welsEncoderExt.obj
 0003:00008ad0       ??_C@_0EO@NKGKKLAO@?5CWelsH264SVCEncoder?3?3SetOption@ 00000001800c8ad0     welsEncoderExt.obj
 0003:00008b20       ??_C@_0DL@JCCOKHPI@?5CWelsH264SVCEncoder?3?3SetOption@ 00000001800c8b20     welsEncoderExt.obj
 0003:00008b60       ??_C@_0GB@JNLLLIDO@?5CWelsH264SVCEncoder?3?3SetOption@ 00000001800c8b60     welsEncoderExt.obj
 0003:00008bd0       ??_C@_0LC@EIKCMLCC@?5CWelsH264SVCEncoder?3?3SetOption@ 00000001800c8bd0     welsEncoderExt.obj
 0003:00008c88       ??_C@_0DI@INGJKCIH@?5CWelsH264SVCEncoder?3?3SetOption@ 00000001800c8c88     welsEncoderExt.obj
 0003:00008cc0       ??_C@_0EO@OEEAMCC@CWelsH264SVCEncoder?3?3SetOption?$CI@ 00000001800c8cc0     welsEncoderExt.obj
 0003:00008d10       ??_C@_0EN@KIDKGLCJ@CWelsH264SVCEncoder?3?3SetOption?$CI@ 00000001800c8d10     welsEncoderExt.obj
 0003:00008d60       ??_C@_0GP@OEDKFKLB@CWelsH264SVCEncoder?3?3SetOption?$CI@ 00000001800c8d60     welsEncoderExt.obj
 0003:00008dd0       ??_C@_0GJ@HBIBIMFG@CWelsH264SVCEncoder?3?3SetOption?$CI@ 00000001800c8dd0     welsEncoderExt.obj
 0003:00008e40       ??_C@_0GD@IPPOKOAA@CWelsH264SVCEncoder?3?3SetOption?$CI@ 00000001800c8e40     welsEncoderExt.obj
 0003:00008eb0       ??_C@_0FD@NIDMFFKM@CWelsH264SVCEncoder?3?3SetOption?$CI@ 00000001800c8eb0     welsEncoderExt.obj
 0003:00008f10       ??_C@_0FA@OACNLBJA@CWelsH264SVCEncoder?3?3SetOption?$CI@ 00000001800c8f10     welsEncoderExt.obj
 0003:00008f60       ??_C@_0FJ@LODGABKB@CWelsH264SVCEncoder?3?3SetOption?$CI@ 00000001800c8f60     welsEncoderExt.obj
 0003:00008fc0       ??_C@_0GE@LCEFNDGP@CWelsH264SVCEncoder?3?3SetOption?$CI@ 00000001800c8fc0     welsEncoderExt.obj
 0003:00009030       ??_C@_0FG@FKCBLHDH@CWelsH264SVCEncoder?3?3SetOption?$CI@ 00000001800c9030     welsEncoderExt.obj
 0003:00009090       ??_C@_0FO@BPGEKOLE@CWelsH264SVCEncoder?3?3SetOption?$CI@ 00000001800c9090     welsEncoderExt.obj
 0003:000090f0       ??_C@_0FB@GBBHNAEA@CWelsH264SVCEncoder?3?3GetOption?$CI@ 00000001800c90f0     welsEncoderExt.obj
 0003:00009150       ??_C@_0FA@LAMGIMH@CWelsH264SVCEncoder?3?3GetOption?$CI@ 00000001800c9150     welsEncoderExt.obj
 0003:000091a0       ??_C@_0EF@PEHIHKJJ@CWelsH264SVCEncoder?3?3GetOption?$CI@ 00000001800c91a0     welsEncoderExt.obj
 0003:000091f0       ??_C@_0EG@JOFHDKFK@CWelsH264SVCEncoder?3?3GetOption?$CI@ 00000001800c91f0     welsEncoderExt.obj
 0003:00009240       ??_C@_0FC@IIHMMOJB@CWelsH264SVCEncoder?3?3GetOption?$CI@ 00000001800c9240     welsEncoderExt.obj
 0003:000092a0       ??_C@_0FD@KDMGEPNE@CWelsH264SVCEncoder?3?3GetOption?$CI@ 00000001800c92a0     welsEncoderExt.obj
 0003:00009300       ??_C@_0FI@CCHPNJMN@CWelsH264SVCEncoder?3?3GetOption?$CI@ 00000001800c9300     welsEncoderExt.obj
 0003:00009358       __real@41f00000            00000001800c9358     welsEncoderExt.obj
 0003:0000935c       __real@447a0000            00000001800c935c     welsEncoderExt.obj
 0003:00009360       __xmm@80000000800000008000000080000000 00000001800c9360     welsEncoderExt.obj
 0003:00009490       ??_C@_0GB@LOKNGAIJ@parse_nal?$CI?$CJ?0?5no?5exist?5Sequence?5@ 00000001800c9490     au_parser.obj
 0003:00009500       ??_C@_0GA@CAFCOLMN@parse_nal?$CI?$CJ?0?5no?5exist?5Picture?5P@ 00000001800c9500     au_parser.obj
 0003:00009560       ??_C@_0FP@HNIAOILE@ParseNalHeader?$CI?$CJ?0?5no?5exist?5Para@ 00000001800c9560     au_parser.obj
 0003:000095c0       ??_C@_0GI@BAKBDDMH@ParseNalHeader?$CI?$CJ?5in?5Prefix?5Nal?5@ 00000001800c95c0     au_parser.obj
 0003:00009628       ??_C@_0DI@EAFCANEF@NAL_UNIT_PREFIX?3?5DecInitBits?$CI?$CJ?5@ 00000001800c9628     au_parser.obj
 0003:00009660       ??_C@_0CI@EHIOLJPC@MemGetNextNal?$CI?$CJ?5fail?5due?5out?5of@ 00000001800c9660     au_parser.obj
 0003:00009688       ??_C@_0DL@EIJACMNC@ParseNalHeader?$CI?$CJ?3uiQualityId?5?$CI?$CF@ 00000001800c9688     au_parser.obj
 0003:000096d0       ??_C@_0EC@PJOMFNMG@ParseNalHeader?$CI?$CJ?3bUseRefBasePic@ 00000001800c96d0     au_parser.obj
 0003:00009718       ??_C@_0DN@KBHACLEL@NAL_UNIT_CODED_SLICE?3?5DecInitBi@ 00000001800c9718     au_parser.obj
 0003:00009760       ??_C@_0EN@NFKNMDKH@DecodeSpsSvcExt?$CI?$CJ?3extended_spat@ 00000001800c9760     au_parser.obj
 0003:000097b0       ??_C@_0DD@KPKMGCGM@invalid?5syntax?5seq_scaled_ref_l@ 00000001800c97b0     au_parser.obj
 0003:000097e8       ??_C@_0DC@BHPFHNPP@invalid?5syntax?5seq_scaled_ref_l@ 00000001800c97e8     au_parser.obj
 0003:00009820       ??_C@_0DE@LLMOJGFP@invalid?5syntax?5seq_scaled_ref_l@ 00000001800c9820     au_parser.obj
 0003:00009858       ??_C@_0DF@KLAPGMMB@invalid?5syntax?5seq_scaled_ref_l@ 00000001800c9858     au_parser.obj
 0003:00009890       ??_C@_0BO@MNEPDPL@SPS?5ID?5can?5not?5be?5supported?$CB?6@ 00000001800c9890     au_parser.obj
 0003:000098b0       ??_C@_0BL@POHHNFNM@?5iSpsId?5is?5out?5of?5range?$CB?5?6@ 00000001800c98b0     au_parser.obj
 0003:000098d0       ??_C@_0BN@NFHPHABB@ParseSps?$CI?$CJ?3?5level_idx?5?$CI?$CFd?$CJ?4?6@ 00000001800c98d0     au_parser.obj
 0003:000098f0       ??_C@_0DC@BGKOEIEJ@ParseSps?$CI?$CJ?3?5chroma_format_idc?5?$CI@ 00000001800c98f0     au_parser.obj
 0003:00009928       ??_C@_0DG@HFCOPIJE@ParseSps?$CI?$CJ?3?5bit_depth_luma?5?$CI?$CFd?$CJ@ 00000001800c9928     au_parser.obj
 0003:00009960       ??_C@_0DJ@LDEEHLFO@ParseSps?$CI?$CJ?3?5bit_depth_chroma?5?$CI?$CF@ 00000001800c9960     au_parser.obj
 0003:000099a0       ??_C@_0CM@OKOIGDF@invalid?5syntax?5log2_max_frame_n@ 00000001800c99a0     au_parser.obj
 0003:000099d0       ??_C@_0DE@PBIIDFAK@invalid?5syntax?5log2_max_pic_ord@ 00000001800c99d0     au_parser.obj
 0003:00009a08       ??_C@_0DI@MAGIFIAM@invalid?5syntax?5num_ref_frames_i@ 00000001800c9a08     au_parser.obj
 0003:00009a40       ??_C@_0CD@JJPGNLNN@?5illegal?5pic_order_cnt_type?3?5?$CFd@ 00000001800c9a40     au_parser.obj
 0003:00009a68       ??_C@_0BO@EBKDJGNF@pic_width_in_mbs?$CI?$CFd?$CJ?5invalid?$CB@ 00000001800c9a68     au_parser.obj
 0003:00009a88       ??_C@_0CP@DFCICCIL@the?5pic_width_in_mbs?5exceeds?5th@ 00000001800c9a88     au_parser.obj
 0003:00009ab8       ??_C@_0BP@GODJOMJA@pic_height_in_mbs?$CI?$CFd?$CJ?5invalid?$CB@ 00000001800c9ab8     au_parser.obj
 0003:00009ad8       ??_C@_0DA@MNDAFJPH@the?5pic_height_in_mbs?5exceeds?5t@ 00000001800c9ad8     au_parser.obj
 0003:00009b08       ??_C@_0DA@EOMPCKJH@the?5total?5count?5of?5mb?5exceeds?5t@ 00000001800c9b08     au_parser.obj
 0003:00009b38       ??_C@_0CF@IANGIGCC@invalid?5syntax?5max_num_ref_fram@ 00000001800c9b38     au_parser.obj
 0003:00009b60       ??_C@_0CK@KOILGALN@?5max_num_ref_frames?5exceeds?5lev@ 00000001800c9b60     au_parser.obj
 0003:00009b90       ??_C@_0DE@IPCAANHO@ParseSps?$CI?$CJ?3?5frame_mbs_only_flag@ 00000001800c9b90     au_parser.obj
 0003:00009bd0       ??_C@_0EB@OHALIAFP@frame_crop_left_offset?5?$CL?5frame_@ 00000001800c9bd0     au_parser.obj
 0003:00009c20       ??_C@_0EA@KINLHCIC@frame_crop_top_offset?5?$CL?5frame_c@ 00000001800c9c20     au_parser.obj
 0003:00009c60       ??_C@_0DA@CJINJCPP@hrd?5parse?5in?5vui?5of?5subsetSPS?5i@ 00000001800c9c60     au_parser.obj
 0003:00009c90       ??_C@_0EE@MFEHNEMP@sps?5payload?5size?5?$CI?$CFd?$CJ?5too?5large@ 00000001800c9c90     au_parser.obj
 0003:00009cd8       ??_C@_0CC@IJHNCJBO@Temp?5buffer?5for?5parse?5only?5usag@ 00000001800c9cd8     au_parser.obj
 0003:00009d00       ??_C@_0CI@HKEKGAG@sps?5buffer?5alloc?5failed?5for?5par@ 00000001800c9d00     au_parser.obj
 0003:00009d28       ??_C@_0BM@PLCHKFCN@pBsBuf?5for?5parse?5only?5usage@ 00000001800c9d28     au_parser.obj
 0003:00009d48       ??_C@_0DJ@LALPCCHF@ParsePps?$CI?$CJ?3?5slice_group_map_typ@ 00000001800c9d48     au_parser.obj
 0003:00009d88       ??_C@_0CL@MGPAHJMG@invalid?5syntax?5pic_init_qp_minu@ 00000001800c9d88     au_parser.obj
 0003:00009db8       ??_C@_0CL@CMHGKEKE@invalid?5syntax?5pic_init_qs_minu@ 00000001800c9db8     au_parser.obj
 0003:00009de8       ??_C@_0CJ@OGFPONDF@invalid?5syntax?5chroma_qp_index_@ 00000001800c9de8     au_parser.obj
 0003:00009e20       ??_C@_0FN@PBBIHNFL@ParsePps?$CI?$CJ?3?5sps_id?5?$CI?$CFd?$CJ?5does?5no@ 00000001800c9e20     au_parser.obj
 0003:00009e80       ??_C@_0EE@GKABHMKJ@pps?5payload?5size?5?$CI?$CFd?$CJ?5too?5large@ 00000001800c9e80     au_parser.obj
 0003:00009ec8       ??_C@_0DD@NOOHLEEE@invalid?5syntax?5chroma_sample_lo@ 00000001800c9ec8     au_parser.obj
 0003:00009f00       ??_C@_0DG@MMDCFFND@invalid?5syntax?5chroma_sample_lo@ 00000001800c9f00     au_parser.obj
 0003:00009f38       ??_C@_0CE@OELMGOFC@invalid?5syntax?5num_units_in_tic@ 00000001800c9f38     au_parser.obj
 0003:00009f60       ??_C@_0BN@GFBNMPMD@invalid?5syntax?5time_scale?5?$CFd@ 00000001800c9f60     au_parser.obj
 0003:00009f80       ??_C@_0CK@BBGJHLHB@invalid?5syntax?5max_bytes_per_pi@ 00000001800c9f80     au_parser.obj
 0003:00009fb0       ??_C@_0CI@PEIMHLDO@invalid?5syntax?5max_bits_per_mb_@ 00000001800c9fb0     au_parser.obj
 0003:00009fd8       ??_C@_0DA@ECNDAMLD@invalid?5syntax?5log2_max_mv_leng@ 00000001800c9fd8     au_parser.obj
 0003:0000a008       ??_C@_0CO@LCIJNMIB@invalid?5syntax?5log2_max_mv_leng@ 00000001800ca008     au_parser.obj
 0003:0000a038       ??_C@_0CJ@NLOHJAIN@invalid?5syntax?5max_num_reorder_@ 00000001800ca038     au_parser.obj
 0003:0000a400       __xmm@00000007000000070000000700000007 00000001800ca400     decode_mb_aux.obj
 0003:0000a410       __xmm@7ffffffc7ffffffc7ffffffc7ffffffc 00000001800ca410     decode_mb_aux.obj
 0003:0000a5a0       ??_C@_0FB@PFCMFNBG@WelsTargetSliceConstruction?$CI?$CJ?3?3@ 00000001800ca5a0     decode_slice.obj
 0003:0000a600       ??_C@_0FA@MHHBDNOA@WelsTargetSliceConstruction?$CI?$CJ?3?3@ 00000001800ca600     decode_slice.obj
 0003:0000a650       ??_C@_0DD@FNDCLBGH@WelsTargetMbConstruction?$CI?$CJ?3?3?3?3?3@ 00000001800ca650     decode_slice.obj
 0003:0000a688       ??_C@_0BO@NFHEPBOM@I_PCM?5mode?5exists?5in?5I?5slice?$CB@ 00000001800ca688     decode_slice.obj
 0003:0000a6a8       ??_C@_0BO@NFBHAFMG@I_PCM?5mode?5exists?5in?5P?5slice?$CB@ 00000001800ca6a8     decode_slice.obj
 0003:0000a6c8       ??_C@_0BO@FHCBGPDB@I_PCM?5mode?5exists?5in?5B?5slice?$CB@ 00000001800ca6c8     decode_slice.obj
 0003:0000a6f0       ??_C@_0EH@BJFKHCPM@Ref?5Picture?5for?5B?9Slice?5is?5lost@ 00000001800ca6f0     decode_slice.obj
 0003:0000a740       ??_C@_0EH@PPHLCEEI@WelsDecodeSlice?$CI?$CJ?3?3?3?3ILP?5flag?5e@ 00000001800ca740     decode_slice.obj
 0003:0000a788       ??_C@_0DP@GAHEMPPM@iBaseModeFlag?5?$CI?$CFd?$CJ?5?$CB?$DN?50?0?5inter?9@ 00000001800ca788     decode_slice.obj
 0003:0000a7d0       ??_C@_0GC@PABNJMAI@WelsDecodeMbCavlcISlice?$CI?$CJ?3?3?3?3pB@ 00000001800ca7d0     decode_slice.obj
 0003:0000a838       ??_C@_0CG@OHEMFIBB@residual_pred_flag?5?$DN?51?5not?5supp@ 00000001800ca838     decode_slice.obj
 0003:0000a860       ??_C@_0GC@JOLDMOIH@WelsDecodeMbCavlcBSlice?$CI?$CJ?3?3?3?3pB@ 00000001800ca860     decode_slice.obj
 0003:0000a8d0       __xmm@10101010101010101010101010101010 00000001800ca8d0     decode_slice.obj
 0003:0000a920       ??_C@_08KPODANBH@PPicBuff@ 00000001800ca920     decoder.obj
 0003:0000a930       ??_C@_09ODAJDAMD@PPicture?$CK@ 00000001800ca930     decoder.obj
 0003:0000a940       ??_C@_0BC@JIMELPIC@pPicOldBuf?9?$DOqueue@ 00000001800ca940     decoder.obj
 0003:0000a958       ??_C@_0L@IMKNOHBP@pPicOldBuf@ 00000001800ca958     decoder.obj
 0003:0000a968       ??_C@_0P@EDMHLPIA@pPicBuf?9?$DOqueue@ 00000001800ca968     decoder.obj
 0003:0000a978       ??_C@_07LELBPNJC@pPicBuf@  00000001800ca978     decoder.obj
 0003:0000a980       ??_C@_0HA@BHNDLOPA@WelsRequestMem?$CI?$CJ?3?5memory?5re?9all@ 00000001800ca980     decoder.obj
 0003:0000a9f0       ??_C@_0IB@HMOAJABB@WelsRequestMem?$CI?$CJ?3?5memory?5re?9all@ 00000001800ca9f0     decoder.obj
 0003:0000aa80       ??_C@_0EC@NLBNPKMM@WelsRequestMem?$CI?$CJ?3?5memory?5alloc?5@ 00000001800caa80     decoder.obj
 0003:0000aac8       ??_C@_0BG@NINLLLNI@pCtx?9?$DOpCabacDecEngine@ 00000001800caac8     decoder.obj
 0003:0000aae0       ??_C@_0DE@DDAMKEEJ@WelsInitStaticMemory?$CI?$CJ?5failed?5i@ 00000001800caae0     decoder.obj
 0003:0000ab20       ??_C@_0EK@ICHLPMP@eErrorConMethod?5?$CI?$CFd?$CJ?5not?5in?5ran@ 00000001800cab20     decoder.obj
 0003:0000ab70       ??_C@_0P@HJEFJEKP@eVideoType?3?5?$CFd@ 00000001800cab70     decoder.obj
 0003:0000ab80       ??_C@_0EG@IGBOBINO@SyncPictureResolutionExt?$CI?$CJ?3?3Wel@ 00000001800cab80     decoder.obj
 0003:0000abd0       ??_C@_0EO@NIDGJFFI@SyncPictureResolutionExt?$CI?$CJ?3?3Ini@ 00000001800cabd0     decoder.obj
 0003:0000ac20       ??_C@_0DN@BCNAFGCI@SyncPictureResolutionExt?$CI?$CJ?0?5ove@ 00000001800cac20     decoder.obj
 0003:0000aca0       ??_C@_0KA@BMIEGDEH@DecodeFrameConstruction?$CI?$CJ?3?5will@ 00000001800caca0     decoder_core.obj
 0003:0000ad40       ??_C@_0GH@ELEILEDE@DecodeFrameConstruction?$CI?$CJ?3?5curr@ 00000001800cad40     decoder_core.obj
 0003:0000adb0       ??_C@_0EP@PDHNAJHL@DecodeFrameConstruction?$CI?$CJ?3?5sps?5@ 00000001800cadb0     decoder_core.obj
 0003:0000ae00       ??_C@_0FI@IHFDMKIE@DecodeFrameConstruction?$CI?$CJ?3?5curr@ 00000001800cae00     decoder_core.obj
 0003:0000ae60       ??_C@_0PP@GDJGODOP@DecodeFrameConstruction?$CI?$CJ?3?5comp@ 00000001800cae60     decoder_core.obj
 0003:0000af60       ??_C@_0HC@JEKLLIBF@DecodeFrameConstruction?$CI?$CJ?3?5iTot@ 00000001800caf60     decoder_core.obj
 0003:0000afe0       ??_C@_0GG@NAMOKDLD@DecodeFrameConstruction?$CI?$CJ?3New?5s@ 00000001800cafe0     decoder_core.obj
 0003:0000b048       ??_C@_0BF@KNGJKOMK@pCtx?9?$DOsRawData?4pHead@ 00000001800cb048     decoder_core.obj
 0003:0000b060       ??_C@_0BE@MDNHFFNJ@pCtx?9?$DOpParserBsInfo@ 00000001800cb060     decoder_core.obj
 0003:0000b078       ??_C@_0BO@EALGIAGF@pCtx?9?$DOpParserBsInfo?9?$DOpDstBuff@ 00000001800cb078     decoder_core.obj
 0003:0000b098       ??_C@_0BH@DNMEPHNH@pCtx?9?$DOsSavedData?4pHead@ 00000001800cb098     decoder_core.obj
 0003:0000b0b0       ??_C@_0CD@FGPJEGBD@pCtx?9?$DOpParserBsInfo?9?$DOpNalLenInB@ 00000001800cb0b0     decoder_core.obj
 0003:0000b0d8       ??_C@_0DD@DCENDLMH@ExpandBsBuffer?$CI?$CJ?5Failed?5for?5mal@ 00000001800cb0d8     decoder_core.obj
 0003:0000b110       ??_C@_0DI@IMJLELLH@ExpandBsBuffer?$CI?$CJ?5Failed?5for?5mal@ 00000001800cb110     decoder_core.obj
 0003:0000b148       ??_C@_0CD@PLNFLDFL@Current?5nal?5num?5?$CI?$CFd?$CJ?5exceededs?5@ 00000001800cb148     decoder_core.obj
 0003:0000b170       ??_C@_0DL@LPGDKOHN@Max?5AU?5size?5exceeded?4?5Allowed?5s@ 00000001800cb170     decoder_core.obj
 0003:0000b1b0       ??_C@_0BG@LIOHNOKN@pCtx?9?$DOsRawData?9?$DOpHead@ 00000001800cb1b0     decoder_core.obj
 0003:0000b1c8       ??_C@_0BI@NLHBBPCN@pCtx?9?$DOsSavedData?9?$DOpHead@ 00000001800cb1c8     decoder_core.obj
 0003:0000b1e0       ??_C@_0N@FJNKDKJE@pCtx?9?$DOpParam@ 00000001800cb1e0     decoder_core.obj
 0003:0000b1f0       ??_C@_0CE@CHHHOILL@invalid?5syntax?5first_mb_in_slic@ 00000001800cb1f0     decoder_core.obj
 0003:0000b218       ??_C@_0CK@ICKDIBEA@slice?5type?5too?5large?5?$CI?$CFd?$CJ?5at?5fi@ 00000001800cb218     decoder_core.obj
 0003:0000b248       ??_C@_0CI@BFEPLJGC@Invalid?5slice?5type?$CI?$CFd?$CJ?5in?5IDR?5p@ 00000001800cb248     decoder_core.obj
 0003:0000b270       ??_C@_0BI@MHEIDHJC@Invalid?5slice?5type?$CI?$CFd?$CJ?4@ 00000001800cb270     decoder_core.obj
 0003:0000b288       ??_C@_0CG@EHNFJHFC@invalid?5syntax?5iPpsId?5out?5of?5ra@ 00000001800cb288     decoder_core.obj
 0003:0000b2b0       ??_C@_0DN@NFBPHKMH@PPS?5id?5?$CI?$CFd?$CJ?5is?5invalid?0?5previou@ 00000001800cb2b0     decoder_core.obj
 0003:0000b2f0       ??_C@_0BH@MNDDPHKC@Invalid?5PPS?5referenced@ 00000001800cb2f0     decoder_core.obj
 0003:0000b310       ??_C@_0EB@HIJBJMNC@Sub?5SPS?5id?5?$CI?$CFd?$CJ?5is?5invalid?0?5pre@ 00000001800cb310     decoder_core.obj
 0003:0000b358       ??_C@_0DN@FDEIKNIG@SPS?5id?5?$CI?$CFd?$CJ?5is?5invalid?0?5previou@ 00000001800cb358     decoder_core.obj
 0003:0000b398       ??_C@_0DG@GJPJIMOJ@slice_type?5?$CI?$CFd?$CJ?5not?5supported?5f@ 00000001800cb398     decoder_core.obj
 0003:0000b3d0       ??_C@_0BM@OFMDEJHC@non?5existing?5SPS?5referenced@ 00000001800cb3d0     decoder_core.obj
 0003:0000b3f0       ??_C@_0EE@IOCJFGPO@ParseSliceHeaderSyntaxs?$CI?$CJ?3?5fram@ 00000001800cb3f0     decoder_core.obj
 0003:0000b440       ??_C@_0FB@EAMNCFPO@ParseSliceHeaderSyntaxs?$CI?$CJ?0?5inva@ 00000001800cb440     decoder_core.obj
 0003:0000b498       ??_C@_0BN@FFHJHECB@invalid?5syntax?5idr_pic_id?5?$CFd@ 00000001800cb498     decoder_core.obj
 0003:0000b4b8       ??_C@_0CE@BICCMBGF@invalid?5syntax?5redundant_pic_cn@ 00000001800cb4b8     decoder_core.obj
 0003:0000b4e0       ??_C@_0CB@DAOEGLJO@Redundant?5picture?5not?5supported@ 00000001800cb4e0     decoder_core.obj
 0003:0000b508       ??_C@_0CP@BIOMAPM@invalid?5syntax?5num_ref_idx_l0_a@ 00000001800cb508     decoder_core.obj
 0003:0000b538       ??_C@_0CP@NGGMEAKE@invalid?5syntax?5num_ref_idx_l1_a@ 00000001800cb538     decoder_core.obj
 0003:0000b568       ??_C@_0BD@OMCAODCC@reference?5overflow@ 00000001800cb568     decoder_core.obj
 0003:0000b580       ??_C@_0CK@EKCFPNFG@invalid?5ref?5pPic?5list?5reorderin@ 00000001800cb580     decoder_core.obj
 0003:0000b5b0       ??_C@_0CF@KNDGCHDG@invalid?5weighted?5prediction?5syn@ 00000001800cb5b0     decoder_core.obj
 0003:0000b5e0       ??_C@_0FJ@BPHLKFNE@ParseSliceHeaderSyntaxs?$CI?$CJ?3?5bUse@ 00000001800cb5e0     decoder_core.obj
 0003:0000b640       ??_C@_0CB@CKGCMAJJ@invalid?5syntax?5cabac_init_idc?5?$CF@ 00000001800cb640     decoder_core.obj
 0003:0000b668       ??_C@_0BD@NMOOLEOA@QP?5?$CFd?5out?5of?5range@ 00000001800cb668     decoder_core.obj
 0003:0000b680       ??_C@_0BE@OEIEAPOB@SP?1SI?5not?5supported@ 00000001800cb680     decoder_core.obj
 0003:0000b698       ??_C@_0DE@HPIOOFCA@disable_deblock_filter_idc?5?$CI?$CFd?$CJ@ 00000001800cb698     decoder_core.obj
 0003:0000b6d0       ??_C@_0DB@NECFCAGB@invalid?5syntax?5slice_alpha_c0_o@ 00000001800cb6d0     decoder_core.obj
 0003:0000b708       ??_C@_0CN@NBEDDHLN@invalid?5syntax?5slice_beta_offse@ 00000001800cb708     decoder_core.obj
 0003:0000b740       ??_C@_0EA@FMNLBFBF@disable_inter_layer_deblock_fil@ 00000001800cb740     decoder_core.obj
 0003:0000b780       ??_C@_0DH@ODFGCLPB@invalid?5syntax?5inter_layer_alph@ 00000001800cb780     decoder_core.obj
 0003:0000b7b8       ??_C@_0DJ@EHGPLJKJ@invalid?5syntax?5inter_layer_slic@ 00000001800cb7b8     decoder_core.obj
 0003:0000b7f8       ??_C@_0CD@FPMCCIIF@bSliceSkipFlag?5?$DN?$DN?51?5not?5support@ 00000001800cb7f8     decoder_core.obj
 0003:0000b820       ??_C@_0EH@CKLDGMAP@uiScanIdxStart?5?$CI?$CFd?$CJ?5?$CB?$DN?50?5and?5ui@ 00000001800cb820     decoder_core.obj
 0003:0000b870       ??_C@_0EM@LNGKOAO@UpdateAccessUnit?$CI?$CJ?3?3?3?3?3Key?5fram@ 00000001800cb870     decoder_core.obj
 0003:0000b8c0       ??_C@_08BFIGNEOM@PDqLayer@ 00000001800cb8c0     decoder_core.obj
 0003:0000b8d0       ??_C@_0BE@PIGEHEPA@pCtx?9?$DOsMb?4pMbType?$FL?$FN@ 00000001800cb8d0     decoder_core.obj
 0003:0000b8e8       ??_C@_0BC@IGFFLAKL@pCtx?9?$DOsMb?4pMv?$FL?$FN?$FL?$FN@ 00000001800cb8e8     decoder_core.obj
 0003:0000b900       ??_C@_0BI@IGLOPADJ@pCtx?9?$DOsMb?4pRefIndex?$FL?$FN?$FL?$FN@ 00000001800cb900     decoder_core.obj
 0003:0000b918       ??_C@_0BE@BODBMNBD@pCtx?9?$DOsMb?4pDirect?$FL?$FN@ 00000001800cb918     decoder_core.obj
 0003:0000b930       ??_C@_0BE@NAHJJJOP@pCtx?9?$DOsMb?4pLumaQp?$FL?$FN@ 00000001800cb930     decoder_core.obj
 0003:0000b948       ??_C@_0CM@GJGFHDFA@pCtx?9?$DOsMb?4pNoSubMbPartSizeLessT@ 00000001800cb948     decoder_core.obj
 0003:0000b978       ??_C@_0CC@CCDPMFCD@pCtx?9?$DOsMb?4pTransformSize8x8Flag@ 00000001800cb978     decoder_core.obj
 0003:0000b9a0       ??_C@_0BG@KHDDOGKE@pCtx?9?$DOsMb?4pChromaQp?$FL?$FN@ 00000001800cb9a0     decoder_core.obj
 0003:0000b9b8       ??_C@_0BD@BFBNGPHP@pCtx?9?$DOsMb?4pMvd?$FL?$FN?$FL?$FN@ 00000001800cb9b8     decoder_core.obj
 0003:0000b9d0       ??_C@_0BD@CMIKOLFK@pCtx?9?$DOsMb?4pCbfDc?$FL?$FN@ 00000001800cb9d0     decoder_core.obj
 0003:0000b9e8       ??_C@_0BB@LHJEMGEM@pCtx?9?$DOsMb?4pNzc?$FL?$FN@ 00000001800cb9e8     decoder_core.obj
 0003:0000ba00       ??_C@_0BD@MMKIICM@pCtx?9?$DOsMb?4pNzcRs?$FL?$FN@ 00000001800cba00     decoder_core.obj
 0003:0000ba18       ??_C@_0BK@GIEPDKFG@pCtx?9?$DOsMb?4pScaledTCoeff?$FL?$FN@ 00000001800cba18     decoder_core.obj
 0003:0000ba38       ??_C@_0BL@PIMIHEN@pCtx?9?$DOsMb?4pIntraPredMode?$FL?$FN@ 00000001800cba38     decoder_core.obj
 0003:0000ba58       ??_C@_0BP@HOLLOEBC@pCtx?9?$DOsMb?4pIntra4x4FinalMode?$FL?$FN@ 00000001800cba58     decoder_core.obj
 0003:0000ba78       ??_C@_0BN@NCGMEGPO@pCtx?9?$DOsMb?4pIntraNxNAvailFlag@ 00000001800cba78     decoder_core.obj
 0003:0000ba98       ??_C@_0BM@HBHCLMAE@pCtx?9?$DOsMb?4pChromaPredMode?$FL?$FN@ 00000001800cba98     decoder_core.obj
 0003:0000bab8       ??_C@_0BB@BJDGPBKA@pCtx?9?$DOsMb?4pCbp?$FL?$FN@ 00000001800cbab8     decoder_core.obj
 0003:0000bad0       ??_C@_0BH@OACHNENB@pCtx?9?$DOsMb?4pSubMbType?$FL?$FN@ 00000001800cbad0     decoder_core.obj
 0003:0000bae8       ??_C@_0BG@IKGJENEN@pCtx?9?$DOsMb?4pSliceIdc?$FL?$FN@ 00000001800cbae8     decoder_core.obj
 0003:0000bb00       ??_C@_0BO@DFDKFE@pCtx?9?$DOsMb?4pResidualPredFlag?$FL?$FN@ 00000001800cbb00     decoder_core.obj
 0003:0000bb20       ??_C@_0CF@DDOEGOMP@pCtx?9?$DOsMb?4pInterPredictionDoneF@ 00000001800cbb20     decoder_core.obj
 0003:0000bb48       ??_C@_0CE@NJJMEBHD@pCtx?9?$DOsMb?4pMbCorrectlyDecodedFl@ 00000001800cbb48     decoder_core.obj
 0003:0000bb70       ??_C@_0BM@GHMHGMIO@pCtx?9?$DOpMbRefConcealedFlag?$FL?$FN@ 00000001800cbb70     decoder_core.obj
 0003:0000bb90       ??_C@_0CA@BLNLCLJE@pCtx?9?$DOsMb?4pMbRefConcealedFlag?$FL?$FN@ 00000001800cbb90     decoder_core.obj
 0003:0000bbb0       ??_C@_03PEDDONNE@pDq@      00000001800cbbb0     decoder_core.obj
 0003:0000bbb8       ??_C@_0DF@EJPHOHJC@sync?5picture?5resolution?5ext?5fai@ 00000001800cbbb8     decoder_core.obj
 0003:0000bbf0       ??_C@_0CE@MGJFEJCA@returned?5error?5from?5decoding?3?$FL0@ 00000001800cbbf0     decoder_core.obj
 0003:0000bc20       ??_C@_0EK@NFOMHFLC@DecodeCurrentAccessUnit?$CI?$CJ?3?3?3?3?3?3@ 00000001800cbc20     decoder_core.obj
 0003:0000bc70       ??_C@_0DC@LOBPLGL@DecodeCurrentAccessUnit?$CI?$CJ?0?5Fmo?5@ 00000001800cbc70     decoder_core.obj
 0003:0000bcb0       ??_C@_0EC@NCFPHOJK@DecodeCurrentAccessUnit?$CI?$CJ?0?5FmoP@ 00000001800cbcb0     decoder_core.obj
 0003:0000bd00       ??_C@_0FH@CALKINBL@referencing?5pictures?5lost?5due?5f@ 00000001800cbd00     decoder_core.obj
 0003:0000bd60       ??_C@_0FC@LMPBMKEH@reference?5picture?5introduced?5by@ 00000001800cbd60     decoder_core.obj
 0003:0000bdc0       ??_C@_0EH@PIDHBJEC@DecodeCurrentAccessUnit?$CI?$CJ?5faile@ 00000001800cbdc0     decoder_core.obj
 0003:0000be10       ?g_kuiScan8@WelsDec@@3QBEB 00000001800cbe10     decoder_data_tables.obj
 0003:0000be28       ?g_kuiLumaDcZigzagScan@WelsDec@@3QBEB 00000001800cbe28     decoder_data_tables.obj
 0003:0000be38       ?g_kuiChromaDcScan@WelsDec@@3QBEB 00000001800cbe38     decoder_data_tables.obj
 0003:0000be3c       ?g_kuiVlcTableNeedMoreBitsThread@WelsDec@@3QBEB 00000001800cbe3c     decoder_data_tables.obj
 0003:0000be40       ?g_kMbNonZeroCountIdx@WelsDec@@3QBEB 00000001800cbe40     decoder_data_tables.obj
 0003:0000be58       ?g_kCacheNzcScanIdx@WelsDec@@3QBEB 00000001800cbe58     decoder_data_tables.obj
 0003:0000be78       ?g_kCache26ScanIdx@WelsDec@@3QBEB 00000001800cbe78     decoder_data_tables.obj
 0003:0000be88       ?g_kCache30ScanIdx@WelsDec@@3QBEB 00000001800cbe88     decoder_data_tables.obj
 0003:0000be98       ?g_kNonZeroScanIdxC@WelsDec@@3QBEB 00000001800cbe98     decoder_data_tables.obj
 0003:0000bea0       ?g_kuiScan4@WelsDec@@3QBEB 00000001800cbea0     decoder_data_tables.obj
 0003:0000beb0       ?g_kuiIntra4x4CbpTable@WelsDec@@3QBEB 00000001800cbeb0     decoder_data_tables.obj
 0003:0000bee0       ?g_kuiIntra4x4CbpTable400@WelsDec@@3QBEB 00000001800cbee0     decoder_data_tables.obj
 0003:0000bef0       ?g_kuiInterCbpTable@WelsDec@@3QBEB 00000001800cbef0     decoder_data_tables.obj
 0003:0000bf20       ?g_kuiInterCbpTable400@WelsDec@@3QBEB 00000001800cbf20     decoder_data_tables.obj
 0003:0000bf30       ?g_kuiLeadingZeroTable@WelsDec@@3QBEB 00000001800cbf30     decoder_data_tables.obj
 0003:0000c070       ?g_kuiVlcChromaTable@WelsDec@@3QAY01$$CBEA 00000001800cc070     decoder_data_tables.obj
 0003:0000c270       ?g_kuiVlcTable_0@WelsDec@@3QAY01$$CBEA 00000001800cc270     decoder_data_tables.obj
 0003:0000c470       ?g_kuiVlcTable_0_0@WelsDec@@3QAY01$$CBEA 00000001800cc470     decoder_data_tables.obj
 0003:0000c670       ?g_kuiVlcTable_0_1@WelsDec@@3QAY01$$CBEA 00000001800cc670     decoder_data_tables.obj
 0003:0000c678       ?g_kuiVlcTable_0_2@WelsDec@@3QAY01$$CBEA 00000001800cc678     decoder_data_tables.obj
 0003:0000c67c       ?g_kuiVlcTable_0_3@WelsDec@@3QAY01$$CBEA 00000001800cc67c     decoder_data_tables.obj
 0003:0000c680       ?g_kuiVlcTable_1@WelsDec@@3QAY01$$CBEA 00000001800cc680     decoder_data_tables.obj
 0003:0000c880       ?g_kuiVlcTable_1_0@WelsDec@@3QAY01$$CBEA 00000001800cc880     decoder_data_tables.obj
 0003:0000c900       ?g_kuiVlcTable_1_1@WelsDec@@3QAY01$$CBEA 00000001800cc900     decoder_data_tables.obj
 0003:0000c910       ?g_kuiVlcTable_1_2@WelsDec@@3QAY01$$CBEA 00000001800cc910     decoder_data_tables.obj
 0003:0000c914       ?g_kuiVlcTable_1_3@WelsDec@@3QAY01$$CBEA 00000001800cc914     decoder_data_tables.obj
 0003:0000c918       ?g_kuiTotalZerosBitNumChromaMap@WelsDec@@3QBEB 00000001800cc918     decoder_data_tables.obj
 0003:0000c920       ?g_kuiVlcTable_2@WelsDec@@3QAY01$$CBEA 00000001800cc920     decoder_data_tables.obj
 0003:0000cb20       ?g_kuiVlcTable_2_0@WelsDec@@3QAY01$$CBEA 00000001800ccb20     decoder_data_tables.obj
 0003:0000cb28       ?g_kuiVlcTable_2_1@WelsDec@@3QAY01$$CBEA 00000001800ccb28     decoder_data_tables.obj
 0003:0000cb30       ?g_kuiVlcTable_2_2@WelsDec@@3QAY01$$CBEA 00000001800ccb30     decoder_data_tables.obj
 0003:0000cb38       ?g_kuiVlcTable_2_3@WelsDec@@3QAY01$$CBEA 00000001800ccb38     decoder_data_tables.obj
 0003:0000cb40       ?g_kuiVlcTable_2_4@WelsDec@@3QAY01$$CBEA 00000001800ccb40     decoder_data_tables.obj
 0003:0000cb44       ?g_kuiVlcTable_2_5@WelsDec@@3QAY01$$CBEA 00000001800ccb44     decoder_data_tables.obj
 0003:0000cb48       ?g_kuiVlcTable_2_6@WelsDec@@3QAY01$$CBEA 00000001800ccb48     decoder_data_tables.obj
 0003:0000cb4c       ?g_kuiVlcTable_2_7@WelsDec@@3QAY01$$CBEA 00000001800ccb4c     decoder_data_tables.obj
 0003:0000cb50       ?g_kuiVlcTable_3@WelsDec@@3QAY01$$CBEA 00000001800ccb50     decoder_data_tables.obj
 0003:0000cbd0       ?g_kuiVlcTableMoreBitsCount0@WelsDec@@3QBEB 00000001800ccbd0     decoder_data_tables.obj
 0003:0000cbd4       ?g_kuiVlcTableMoreBitsCount1@WelsDec@@3QBEB 00000001800ccbd4     decoder_data_tables.obj
 0003:0000cbd8       ?g_kuiVlcTableMoreBitsCount2@WelsDec@@3QBEB 00000001800ccbd8     decoder_data_tables.obj
 0003:0000cbe0       ?g_kuiNcMapTable@WelsDec@@3QBEB 00000001800ccbe0     decoder_data_tables.obj
 0003:0000cc00       ?g_kuiVlcTrailingOneTotalCoeffTable@WelsDec@@3QAY01$$CBEA 00000001800ccc00     decoder_data_tables.obj
 0003:0000cc80       ?g_kuiTotalZerosTable0@WelsDec@@3QAY01$$CBEA 00000001800ccc80     decoder_data_tables.obj
 0003:0000d080       ?g_kuiTotalZerosTable1@WelsDec@@3QAY01$$CBEA 00000001800cd080     decoder_data_tables.obj
 0003:0000d100       ?g_kuiTotalZerosTable2@WelsDec@@3QAY01$$CBEA 00000001800cd100     decoder_data_tables.obj
 0003:0000d180       ?g_kuiTotalZerosTable3@WelsDec@@3QAY01$$CBEA 00000001800cd180     decoder_data_tables.obj
 0003:0000d1c0       ?g_kuiTotalZerosTable4@WelsDec@@3QAY01$$CBEA 00000001800cd1c0     decoder_data_tables.obj
 0003:0000d200       ?g_kuiTotalZerosTable5@WelsDec@@3QAY01$$CBEA 00000001800cd200     decoder_data_tables.obj
 0003:0000d280       ?g_kuiTotalZerosTable6@WelsDec@@3QAY01$$CBEA 00000001800cd280     decoder_data_tables.obj
 0003:0000d300       ?g_kuiTotalZerosTable7@WelsDec@@3QAY01$$CBEA 00000001800cd300     decoder_data_tables.obj
 0003:0000d380       ?g_kuiTotalZerosTable8@WelsDec@@3QAY01$$CBEA 00000001800cd380     decoder_data_tables.obj
 0003:0000d400       ?g_kuiTotalZerosTable9@WelsDec@@3QAY01$$CBEA 00000001800cd400     decoder_data_tables.obj
 0003:0000d440       ?g_kuiTotalZerosTable10@WelsDec@@3QAY01$$CBEA 00000001800cd440     decoder_data_tables.obj
 0003:0000d460       ?g_kuiTotalZerosTable11@WelsDec@@3QAY01$$CBEA 00000001800cd460     decoder_data_tables.obj
 0003:0000d480       ?g_kuiTotalZerosTable12@WelsDec@@3QAY01$$CBEA 00000001800cd480     decoder_data_tables.obj
 0003:0000d490       ?g_kuiTotalZerosTable13@WelsDec@@3QAY01$$CBEA 00000001800cd490     decoder_data_tables.obj
 0003:0000d498       ?g_kuiTotalZerosTable14@WelsDec@@3QAY01$$CBEA 00000001800cd498     decoder_data_tables.obj
 0003:0000d4a0       ?g_kuiTotalZerosBitNumMap@WelsDec@@3QBEB 00000001800cd4a0     decoder_data_tables.obj
 0003:0000d4b0       ?g_kuiTotalZerosChromaTable0@WelsDec@@3QAY01$$CBEA 00000001800cd4b0     decoder_data_tables.obj
 0003:0000d4c0       ?g_kuiTotalZerosChromaTable1@WelsDec@@3QAY01$$CBEA 00000001800cd4c0     decoder_data_tables.obj
 0003:0000d4c8       ?g_kuiTotalZerosChromaTable2@WelsDec@@3QAY01$$CBEA 00000001800cd4c8     decoder_data_tables.obj
 0003:0000d4cc       ?g_kuiZeroLeftTable0@WelsDec@@3QAY01$$CBEA 00000001800cd4cc     decoder_data_tables.obj
 0003:0000d4d0       ?g_kuiZeroLeftTable1@WelsDec@@3QAY01$$CBEA 00000001800cd4d0     decoder_data_tables.obj
 0003:0000d4d8       ?g_kuiZeroLeftTable2@WelsDec@@3QAY01$$CBEA 00000001800cd4d8     decoder_data_tables.obj
 0003:0000d4e0       ?g_kuiZeroLeftTable3@WelsDec@@3QAY01$$CBEA 00000001800cd4e0     decoder_data_tables.obj
 0003:0000d4f0       ?g_kuiZeroLeftTable4@WelsDec@@3QAY01$$CBEA 00000001800cd4f0     decoder_data_tables.obj
 0003:0000d500       ?g_kuiZeroLeftTable5@WelsDec@@3QAY01$$CBEA 00000001800cd500     decoder_data_tables.obj
 0003:0000d510       ?g_kuiZeroLeftTable6@WelsDec@@3QAY01$$CBEA 00000001800cd510     decoder_data_tables.obj
 0003:0000d520       ?g_kuiZeroLeftBitNumMap@WelsDec@@3QBEB 00000001800cd520     decoder_data_tables.obj
 0003:0000d570       ??_C@_0CK@MIHKCFJK@DoErrorConFrameCopy?$CI?$CJ?3?3EC?5memcp@ 00000001800cd570     error_concealment.obj
 0003:0000d5a0       ??_C@_0CK@ONKJOGLH@DoErrorConSliceCopy?$CI?$CJ?3?3EC?5memcp@ 00000001800cd5a0     error_concealment.obj
 0003:0000d5d0       ??_C@_0CM@LCBGMBBI@DoErrorConSliceMVCopy?$CI?$CJ?3?3EC?5mem@ 00000001800cd5d0     error_concealment.obj
 0003:0000d600       __xmm@80808080808080808080808080808080 00000001800cd600     error_concealment.obj
 0003:0000d610       ??_C@_0BC@EJIDJFHL@_fmo?9?$DOpMbAllocMap@ 00000001800cd610     fmo.obj
 0003:0000d628       ??_C@_0BD@KEJDKJEE@pIter?9?$DOpMbAllocMap@ 00000001800cd628     fmo.obj
 0003:0000d640       __xmm@00000002000000020000000200000002 00000001800cd640     get_intra_predictor.obj
 0003:0000d650       __xmm@00ff00ff00ff00ff00ff00ff00ff00ff 00000001800cd650     get_intra_predictor.obj
 0003:0000d6a0       ??_C@_0CG@LHNJBPKO@WelsInitRefList?$CI?$CJ?3?3EC?5memcpy?5ov@ 00000001800cd6a0     manage_dec_ref.obj
 0003:0000d6c8       ??_C@_0CO@HDIBPEFD@WelsInitRefList?$CI?$CJ?3?3PrefetchPic?5@ 00000001800cd6c8     manage_dec_ref.obj
 0003:0000d6f8       ??_C@_0DP@MEIIEGAL@WelsReorderRefList?$CI?$CJ?3?3?3?3BASE?5LA@ 00000001800cd6f8     manage_dec_ref.obj
 0003:0000d738       ??_C@_0DO@FLHJIDPF@MMCO_SHORT2UNUSED?3?5delete?5an?5em@ 00000001800cd738     manage_dec_ref.obj
 0003:0000d778       ??_C@_0DM@HPJGAMOJ@MMCO_LONG2UNUSED?3?5delete?5an?5emp@ 00000001800cd778     manage_dec_ref.obj
 0003:0000d7b8       ??_C@_0DL@ELNEJDKF@MMCO_LONG2LONG?3?5delete?5an?5empty@ 00000001800cd7b8     manage_dec_ref.obj
 0003:0000d7f8       ??_C@_0DP@ONMKIGIO@ex_mark_avc?$CI?$CJ?3?3?3MMCO_SHORT2LONG@ 00000001800cd7f8     manage_dec_ref.obj
 0003:0000d838       ??_C@_0DJ@MPMJPNLD@ex_mark_avc?$CI?$CJ?3?3?3MMCO_LONG?3?3?3LTR@ 00000001800cd838     manage_dec_ref.obj
 0003:0000d878       ??_C@_0DM@PPLAENDK@No?5reference?5picture?5in?5short?5t@ 00000001800cd878     manage_dec_ref.obj
 0003:0000d8b8       ??_C@_0DK@JJMAFBLB@RemainOneBufferInDpbForEC?$CI?$CJ?3?5em@ 00000001800cd8b8     manage_dec_ref.obj
 0003:0000d8f8       ??_C@_0M@BFFCJMIL@Access?5Unit@ 00000001800cd8f8     memmgr_nal_unit.obj
 0003:0000d9c0       ??_C@_0FB@BJLMFGFM@Colocated?5Ref?5Picture?5for?5B?9Sli@ 00000001800cd9c0     mv_pred.obj
 0003:0000dc48       ??_C@_0BO@EJIPFPII@invalid?5syntax?5vertical?5mv?5?$CFd@ 00000001800cdc48     parse_mb_syn_cabac.obj
 0003:0000dd88       ??_C@_0DB@HIFPAKBN@inter?5parse?3?5iMotionPredFlag?5?$DN?5@ 00000001800cdd88     parse_mb_syn_cavlc.obj
 0003:0000de00       ??_C@_08LBIABIFO@PPicture@ 00000001800cde00     pic_queue.obj
 0003:0000de10       ??_C@_0BA@EDAGFMPF@_pic?9?$DObuffer?$FL0?$FN@ 00000001800cde10     pic_queue.obj
 0003:0000de20       ??_C@_0BO@HNBGPEJF@pPic?9?$DOpMbCorrectlyDecodedFlag@ 00000001800cde20     pic_queue.obj
 0003:0000de40       ??_C@_0L@HIFPCOKN@pPic?9?$DOpNzc@ 00000001800cde40     pic_queue.obj
 0003:0000de50       ??_C@_0O@LGFDGNFL@pPic?9?$DOpMbType@ 00000001800cde50     pic_queue.obj
 0003:0000de60       ??_C@_0M@IAAENCCC@pPic?9?$DOpMv?$FL?$FN@ 00000001800cde60     pic_queue.obj
 0003:0000de70       ??_C@_0BG@DLALDDE@pCtx?9?$DOsMb?4pRefIndex?$FL?$FN@ 00000001800cde70     pic_queue.obj
 0003:0000de88       ??_C@_0BC@FCBJEKIO@pPic?9?$DOpReadyEvent@ 00000001800cde88     pic_queue.obj
 0003:0000dea0       ??_C@_0BB@JLKFIOMB@pPic?9?$DOpBuffer?$FL0?$FN@ 00000001800cdea0     pic_queue.obj
 0003:0000deb8       ??_C@_0BC@NJFHPOJD@pPic?9?$DOpRefIndex?$FL?$FN@ 00000001800cdeb8     pic_queue.obj
 0003:0000df58       ??_7ISVCDecoder@@6B@       00000001800cdf58     welsDecoderExt.obj
 0003:0000dfb8       ??_7CWelsDecoder@WelsDec@@6B@ 00000001800cdfb8     welsDecoderExt.obj
 0003:0000e010       ??_C@_0CD@DKAHALON@CWelsDecoder?3?3CWelsDecoder?$CI?$CJ?5en@ 00000001800ce010     welsDecoderExt.obj
 0003:0000e038       ??_C@_0BO@DDEBJFLI@CWelsDecoder?3?3?$HOCWelsDecoder?$CI?$CJ@ 00000001800ce038     welsDecoderExt.obj
 0003:0000e058       ??_C@_0DE@GCCLONGP@CWelsDecoder?3?3Initialize?$CI?$CJ?0?5inv@ 00000001800ce058     welsDecoderExt.obj
 0003:0000e090       ??_C@_0DP@MBANOICI@CWelsDecoder?3?3UninitDecoderCtx?$CI@ 00000001800ce090     welsDecoderExt.obj
 0003:0000e0d0       ??_C@_0EL@IFHILDPH@CWelsDecoder?3?3UninitDecoder?$CI?$CJ?0?5@ 00000001800ce0d0     welsDecoderExt.obj
 0003:0000e120       ??_C@_0O@NCGLFBMO@m_pDecContext@ 00000001800ce120     welsDecoderExt.obj
 0003:0000e130       ??_C@_0EK@PBJCFGGB@CWelsDecoder?3?3init_decoder?$CI?$CJ?0?5o@ 00000001800ce130     welsDecoderExt.obj
 0003:0000e180       ??_C@_0P@DDPBGGAF@SDecodingParam@ 00000001800ce180     welsDecoderExt.obj
 0003:0000e190       ??_C@_0CJ@FFBLPHMN@ResetDecoder?$CI?$CJ?0?5context?5error?5c@ 00000001800ce190     welsDecoderExt.obj
 0003:0000e1c0       ??_C@_0CO@NGLMIKP@ResetDecoder?$CI?$CJ?5failed?5as?5decode@ 00000001800ce1c0     welsDecoderExt.obj
 0003:0000e1f0       ??_C@_0EL@MAHKGELC@CWelsDecoder?3?3SetOption?5for?5ERR@ 00000001800ce1f0     welsDecoderExt.obj
 0003:0000e240       ??_C@_0DA@MLBPADKK@CWelsDecoder?3?3SetOption?5for?5ERR@ 00000001800ce240     welsDecoderExt.obj
 0003:0000e270       ??_C@_0EH@PFIFHJJF@CWelsDecoder?3?3SetOption?$CI?$CJ?3DECOD@ 00000001800ce270     welsDecoderExt.obj
 0003:0000e2c0       ??_C@_0FC@NFFLDLGK@CWelsDecoder?3?3SetOption?$CI?$CJ?3DECOD@ 00000001800ce2c0     welsDecoderExt.obj
 0003:0000e320       ??_C@_0FA@KINLBPAB@CWelsDecoder?3?3SetOption?$CI?$CJ?3DECOD@ 00000001800ce320     welsDecoderExt.obj
 0003:0000e370       ??_C@_0CH@CGGFLCBD@Call?5DecodeFrame2?5without?5Initi@ 00000001800ce370     welsDecoderExt.obj
 0003:0000e398       ??_C@_0DD@NDKAEBCM@bParseOnly?5should?5be?5false?5for?5@ 00000001800ce398     welsDecoderExt.obj
 0003:0000e3d0       ??_C@_0CB@OBEDBINN@decode?5failed?0?5failure?5type?3?$CFd?5@ 00000001800ce3d0     welsDecoderExt.obj
 0003:0000e3f8       ??_C@_0DA@DCPKNGFG@continuous?5error?5reached?5INT_MA@ 00000001800ce3f8     welsDecoderExt.obj
 0003:0000e430       ??_C@_0CHC@IFGCFFDG@DecoderStatistics?3?5uiWidth?$DN?$CFd?0?5@ 00000001800ce430     welsDecoderExt.obj
 0003:0000e6a8       ??_C@_0CH@JHGOJMNE@Call?5DecodeParser?5without?5Initi@ 00000001800ce6a8     welsDecoderExt.obj
 0003:0000e6d0       ??_C@_0DC@KNAANIJE@bParseOnly?5should?5be?5true?5for?5t@ 00000001800ce6d0     welsDecoderExt.obj
 0003:0000e710       ??_7IWelsVP@@6B@           00000001800ce710     AdaptiveQuantization.obj
 0003:0000e758       ??_7CAdaptiveQuantization@WelsVP@@6B@ 00000001800ce758     AdaptiveQuantization.obj
 0003:0000e7a0       ??_7CBackgroundDetection@WelsVP@@6B@ 00000001800ce7a0     BackgroundDetection.obj
 0003:0000e7e0       ?kaOUPos@?1??ForegroundDilation23Chroma@CBackgroundDetection@WelsVP@@AEAA_NCHHPEAUvBGDParam@23@@Z@4QBCB 00000001800ce7e0     BackgroundDetection.obj
 0003:0000e7f0       __xmm@00000000000000180000000000000018 00000001800ce7f0     BackgroundDetection.obj
 0003:0000e808       ??_7CVpFrameWork@WelsVP@@6B@ 00000001800ce808     WelsFrameWork.obj
 0003:0000e850       ??_7CScrollDetection@WelsVP@@6B@ 00000001800ce850     WelsFrameWork.obj
 0003:0000e898       ??_7CComplexityAnalysis@WelsVP@@6B@ 00000001800ce898     ComplexityAnalysis.obj
 0003:0000e8e0       ??_7CComplexityAnalysisScreen@WelsVP@@6B@ 00000001800ce8e0     ComplexityAnalysis.obj
 0003:0000e928       ??_7CDenoiser@WelsVP@@6B@  00000001800ce928     denoise.obj
 0003:0000e970       ??_7CDownsampling@WelsVP@@6B@ 00000001800ce970     downsample.obj
 0003:0000e9b0       __real@47000000            00000001800ce9b0     downsamplefuncs.obj
 0003:0000e9b4       __real@47800000            00000001800ce9b4     downsamplefuncs.obj
 0003:0000e9c0       ??_7CImageRotating@WelsVP@@6B@ 00000001800ce9c0     imagerotate.obj
 0003:0000ea08       ??_7CSceneChangeDetectorVideo@WelsVP@@6B@ 00000001800cea08     SceneChangeDetection.obj
 0003:0000ea18       ??_7CSceneChangeDetectorScreen@WelsVP@@6B@ 00000001800cea18     SceneChangeDetection.obj
 0003:0000ea28       ??_7?$CSceneChangeDetection@VCSceneChangeDetectorVideo@WelsVP@@@WelsVP@@6B@ 00000001800cea28     SceneChangeDetection.obj
 0003:0000ea70       ??_7?$CSceneChangeDetection@VCSceneChangeDetectorScreen@WelsVP@@@WelsVP@@6B@ 00000001800cea70     SceneChangeDetection.obj
 0003:0000eab0       __real@3eb0c6f7a0b5ed8d    00000001800ceab0     SceneChangeDetection.obj
 0003:0000eac0       ??_7CVAACalculation@WelsVP@@6B@ 00000001800ceac0     vaacalculation.obj
 0003:0000eb00       ?g_ksLevelLimits@WelsCommon@@3QBUTagLevelLimits@1@B 00000001800ceb00     common_tables.obj
 0003:0000ed20       ?g_kuiLevelMaps@WelsCommon@@3QBIB 00000001800ced20     common_tables.obj
 0003:0000ed68       ?g_kuiMbCountScan4Idx@WelsCommon@@3QBEB 00000001800ced68     common_tables.obj
 0003:0000ed80       ?g_kuiCache30ScanIdx@WelsCommon@@3QBEB 00000001800ced80     common_tables.obj
 0003:0000ed90       ?g_kuiCache48CountScan4Idx@WelsCommon@@3QBEB 00000001800ced90     common_tables.obj
 0003:0000edb0       ?g_kuiMatrixV@WelsCommon@@3QAY177$$CBEA 00000001800cedb0     common_tables.obj
 0003:0000ef30       ?g_kuiDequantScaling4x4Default@WelsCommon@@3QAY0BA@$$CBEA 00000001800cef30     common_tables.obj
 0003:0000ef50       ?g_kuiDequantScaling8x8Default@WelsCommon@@3QAY0EA@$$CBEA 00000001800cef50     common_tables.obj
 0003:0000efd0       ?g_kuiDequantCoeff@WelsCommon@@3QAY07$$CBGA 00000001800cefd0     common_tables.obj
 0003:0000f310       ?g_kuiDequantCoeff8x8@WelsCommon@@3QAY0EA@$$CBGA 00000001800cf310     common_tables.obj
 0003:00010d10       ?g_kuiChromaQpTable@WelsCommon@@3QBEB 00000001800d0d10     common_tables.obj
 0003:00010d50       ?g_kuiCabacRangeLps@WelsCommon@@3QAY03$$CBEA 00000001800d0d50     common_tables.obj
 0003:00010e50       ?g_kiCabacGlobalContextIdx@WelsCommon@@3QAY131$$CBCA 00000001800d0e50     common_tables.obj
 0003:00011cb0       ?g_kuiStateTransTable@WelsCommon@@3QAY01$$CBEA 00000001800d1cb0     common_tables.obj
 0003:00011d30       ?g_kuiGolombUELength@WelsCommon@@3QBIB 00000001800d1d30     common_tables.obj
 0003:00012130       ?g_keTypeMap@WelsCommon@@3QAY01$$CBW4EVclType@1@A 00000001800d2130     common_tables.obj
 0003:00012230       ??_C@_0N@BDDFKIGD@GenuineIntel@ 00000001800d2230     cpu.obj
 0003:00012240       ??_C@_0N@FFJGBINN@AuthenticAMD@ 00000001800d2240     cpu.obj
 0003:00012250       ??_C@_0N@KBCLIFKD@CyrixInstead@ 00000001800d2250     cpu.obj
 0003:00012260       __xmm@01010101010101010101010101010101 00000001800d2260     deblocking_common.obj
 0003:000125a0       __xmm@00000020000000200000002000000020 00000001800d25a0     mc.obj
 0003:000125b8       ??_7CMemoryAlign@WelsCommon@@6B@ 00000001800d25b8     memory_align.obj
 0003:000125c0       ??_C@_0BP@BLKOEBMA@?$FLOpenH264?$FN?5this?5?$DN?50x?$CFp?0?5Error?3@ 00000001800d25c0     utils.obj
 0003:000125e0       ??_C@_0CB@EKBBAPMG@?$FLOpenH264?$FN?5this?5?$DN?50x?$CFp?0?5Warning@ 00000001800d25e0     utils.obj
 0003:00012608       ??_C@_0BO@FMOBNNNK@?$FLOpenH264?$FN?5this?5?$DN?50x?$CFp?0?5Info?3@ 00000001800d2608     utils.obj
 0003:00012628       ??_C@_0BP@OGKDDJLF@?$FLOpenH264?$FN?5this?5?$DN?50x?$CFp?0?5Debug?3@ 00000001800d2628     utils.obj
 0003:00012648       ??_C@_0CA@FGEFMPLG@?$FLOpenH264?$FN?5this?5?$DN?50x?$CFp?0?5Detail?3@ 00000001800d2648     utils.obj
 0003:00012668       ??_C@_03OFAPEBGM@?$CFs?6@  00000001800d2668     welsCodecTrace.obj
 0003:00012678       ??_7CWelsTaskThread@WelsCommon@@6B@ 00000001800d2678     WelsTaskThread.obj
 0003:000126a0       ??_C@_0BA@IIDHLFMD@CWelsTaskThread@ 00000001800d26a0     WelsTaskThread.obj
 0003:000126b8       ??_7CWelsThread@WelsCommon@@6B@ 00000001800d26b8     WelsThread.obj
 0003:000126e8       ??_7CWelsThreadPool@WelsCommon@@6BCWelsThread@1@@ 00000001800d26e8     WelsThreadPool.obj
 0003:00012718       ??_7CWelsThreadPool@WelsCommon@@6BIWelsTaskThreadSink@1@@ 00000001800d2718     WelsThreadPool.obj
 0003:00012730       ??_7type_info@@6B@         00000001800d2730     LIBCMT:std_type_info_static.obj
 0003:00012748       _pDefaultRawDllMain        00000001800d2748     LIBCMT:dll_dllmain.obj
 0003:00012748       _pRawDllMain               00000001800d2748     LIBCMT:dll_dllmain.obj
 0003:00012758       ??_7exception@std@@6B@     00000001800d2758     LIBCMT:throw_bad_alloc.obj
 0003:00012768       ??_C@_0BC@EOODALEL@Unknown?5exception@ 00000001800d2768     LIBCMT:throw_bad_alloc.obj
 0003:00012788       ??_7bad_alloc@std@@6B@     00000001800d2788     LIBCMT:throw_bad_alloc.obj
 0003:00012798       ??_C@_0P@GHFPNOJB@bad?5allocation@ 00000001800d2798     LIBCMT:throw_bad_alloc.obj
 0003:000127b0       ??_7bad_array_new_length@std@@6B@ 00000001800d27b0     LIBCMT:throw_bad_alloc.obj
 0003:000127c0       ??_C@_0BF@KINCDENJ@bad?5array?5new?5length@ 00000001800d27c0     LIBCMT:throw_bad_alloc.obj
 0003:000127d8       ?s_negLengthTab@FH4@@3QBCB 00000001800d27d8     libvcruntime:risctrnsctrl.obj
 0003:000127e8       ?s_shiftTab@FH4@@3QBEB     00000001800d27e8     libvcruntime:risctrnsctrl.obj
 0003:00012938       _pDestructExceptionObject  00000001800d2938     libvcruntime:ehhelpers.obj
 0003:00012948       ??_7bad_exception@std@@6B@ 00000001800d2948     libvcruntime:frame.obj
 0003:00012958       ??_C@_0O@DPKOEFFH@bad?5exception@ 00000001800d2958     libvcruntime:frame.obj
 0003:00013080       ??_C@_08EHJDFFNH@__based?$CI@ 00000001800d3080     libvcruntime:undname.obj
 0003:00013090       ??_C@_07KOLFKCDI@__cdecl@  00000001800d3090     libvcruntime:undname.obj
 0003:00013098       ??_C@_08GHMPAG@__pascal@   00000001800d3098     libvcruntime:undname.obj
 0003:000130a8       ??_C@_09IFJBGAPI@__stdcall@ 00000001800d30a8     libvcruntime:undname.obj
 0003:000130b8       ??_C@_0L@NPHFGOKO@__thiscall@ 00000001800d30b8     libvcruntime:undname.obj
 0003:000130c8       ??_C@_0L@JMKHOMEK@__fastcall@ 00000001800d30c8     libvcruntime:undname.obj
 0003:000130d8       ??_C@_0N@BCKKPABJ@__vectorcall@ 00000001800d30d8     libvcruntime:undname.obj
 0003:000130e8       ??_C@_09HIJEGCPM@__clrcall@ 00000001800d30e8     libvcruntime:undname.obj
 0003:000130f4       ??_C@_06GHPCKEAG@__eabi@   00000001800d30f4     libvcruntime:undname.obj
 0003:00013100       ??_C@_09IOPIDJLG@__swift_1@ 00000001800d3100     libvcruntime:undname.obj
 0003:00013110       ??_C@_09KFNFGKHF@__swift_2@ 00000001800d3110     libvcruntime:undname.obj
 0003:00013120       ??_C@_09LMMOFLDE@__swift_3@ 00000001800d3120     libvcruntime:undname.obj
 0003:00013130       ??_C@_07JOMMBBKO@__ptr64@  00000001800d3130     libvcruntime:undname.obj
 0003:00013138       ??_C@_0L@PILCLIHE@__restrict@ 00000001800d3138     libvcruntime:undname.obj
 0003:00013148       ??_C@_0M@GFIIJFMG@__unaligned@ 00000001800d3148     libvcruntime:undname.obj
 0003:00013158       ??_C@_09DHDLOLLB@restrict?$CI@ 00000001800d3158     libvcruntime:undname.obj
 0003:00013162       ??_C@_00CNPNBAHC@@         00000001800d3162     libvcruntime:undname.obj
 0003:00013164       ??_C@_04NIHEBCM@?5new@     00000001800d3164     libvcruntime:undname.obj
 0003:00013170       ??_C@_07FPCDHGMM@?5delete@ 00000001800d3170     libvcruntime:undname.obj
 0003:00013178       ??_C@_01NEMOKFLO@?$DN@     00000001800d3178     libvcruntime:undname.obj
 0003:0001317c       ??_C@_02GPIOPFAK@?$DO?$DO@ 00000001800d317c     libvcruntime:undname.obj
 0003:00013180       ??_C@_02FODMEDOG@?$DM?$DM@ 00000001800d3180     libvcruntime:undname.obj
 0003:00013184       ??_C@_01DCLJPIOD@?$CB@     00000001800d3184     libvcruntime:undname.obj
 0003:00013188       ??_C@_02EGOFBIJA@?$DN?$DN@ 00000001800d3188     libvcruntime:undname.obj
 0003:0001318c       ??_C@_02FDNJECIE@?$CB?$DN@ 00000001800d318c     libvcruntime:undname.obj
 0003:00013190       ??_C@_02GPECMEKF@?$FL?$FN@ 00000001800d3190     libvcruntime:undname.obj
 0003:00013198       ??_C@_08LHJFAFGD@operator@ 00000001800d3198     libvcruntime:undname.obj
 0003:000131a4       ??_C@_02HBOOOICD@?9?$DO@   00000001800d31a4     libvcruntime:undname.obj
 0003:000131a8       ??_C@_01NBENCBCI@?$CK@     00000001800d31a8     libvcruntime:undname.obj
 0003:000131ac       ??_C@_02ECNGHCIF@?$CL?$CL@ 00000001800d31ac     libvcruntime:undname.obj
 0003:000131b0       ??_C@_02BAABKJLB@?9?9@     00000001800d31b0     libvcruntime:undname.obj
 0003:000131b4       ??_C@_01JOAMLHOP@?9@       00000001800d31b4     libvcruntime:undname.obj
 0003:000131b8       ??_C@_01MIFGBAGJ@?$CL@     00000001800d31b8     libvcruntime:undname.obj
 0003:000131bc       ??_C@_01HNPIGOCE@?$CG@     00000001800d31bc     libvcruntime:undname.obj
 0003:000131c0       ??_C@_03MNHNFDLC@?9?$DO?$CK@ 00000001800d31c0     libvcruntime:undname.obj
 0003:000131c4       ??_C@_01KMDKNFGN@?1@       00000001800d31c4     libvcruntime:undname.obj
 0003:000131c8       ??_C@_01FGNFDNOH@?$CF@     00000001800d31c8     libvcruntime:undname.obj
 0003:000131cc       ??_C@_01MNNFJEPP@?$DM@     00000001800d31cc     libvcruntime:undname.obj
 0003:000131d0       ??_C@_02EHCHHCKH@?$DM?$DN@ 00000001800d31d0     libvcruntime:undname.obj
 0003:000131d4       ??_C@_01PPODPGHN@?$DO@     00000001800d31d4     libvcruntime:undname.obj
 0003:000131d8       ??_C@_02EEKDKGMJ@?$DO?$DN@ 00000001800d31d8     libvcruntime:undname.obj
 0003:000131dc       ??_C@_01IHBHIGKO@?0@       00000001800d31dc     libvcruntime:undname.obj
 0003:000131e0       ??_C@_02HCKGKOFO@?$CI?$CJ@ 00000001800d31e0     libvcruntime:undname.obj
 0003:000131e4       ??_C@_01PJKLJHI@?$HO@      00000001800d31e4     libvcruntime:undname.obj
 0003:000131e8       ??_C@_01JKBOJNNK@?$FO@     00000001800d31e8     libvcruntime:undname.obj
 0003:000131ec       ??_C@_01DNKMNLPK@?$HM@     00000001800d31ec     libvcruntime:undname.obj
 0003:000131f0       ??_C@_02PPKAJPJL@?$CG?$CG@ 00000001800d31f0     libvcruntime:undname.obj
 0003:000131f4       ??_C@_02NONPIBCD@?$HM?$HM@ 00000001800d31f4     libvcruntime:undname.obj
 0003:000131f8       ??_C@_02FPIMKNGF@?$CK?$DN@ 00000001800d31f8     libvcruntime:undname.obj
 0003:000131fc       ??_C@_02FOEOMHFC@?$CL?$DN@ 00000001800d31fc     libvcruntime:undname.obj
 0003:00013200       ??_C@_02FKMDLLOA@?9?$DN@   00000001800d3200     libvcruntime:undname.obj
 0003:00013204       ??_C@_02FJEHGPIO@?1?$DN@   00000001800d3204     libvcruntime:undname.obj
 0003:00013208       ??_C@_02FENAOKFI@?$CF?$DN@ 00000001800d3208     libvcruntime:undname.obj
 0003:0001320c       ??_C@_03IKFCCPFF@?$DO?$DO?$DN@ 00000001800d320c     libvcruntime:undname.obj
 0003:00013210       ??_C@_03CDNPDDLA@?$DM?$DM?$DN@ 00000001800d3210     libvcruntime:undname.obj
 0003:00013214       ??_C@_02FGJGFEAB@?$CG?$DN@ 00000001800d3214     libvcruntime:undname.obj
 0003:00013218       ??_C@_02DHLNPPGH@?$HM?$DN@ 00000001800d3218     libvcruntime:undname.obj
 0003:0001321c       ??_C@_02MHEGNOJ@?$FO?$DN@  00000001800d321c     libvcruntime:undname.obj
 0003:00013220       ??_C@_09IFPLHPGF@?$GAvftable?8@ 00000001800d3220     libvcruntime:undname.obj
 0003:00013230       ??_C@_09BLBHBJP@?$GAvbtable?8@ 00000001800d3230     libvcruntime:undname.obj
 0003:00013240       ??_C@_07FEEIOKP@?$GAvcall?8@ 00000001800d3240     libvcruntime:undname.obj
 0003:00013248       ??_C@_08LLFFHHDJ@?$GAtypeof?8@ 00000001800d3248     libvcruntime:undname.obj
 0003:00013258       ??_C@_0BF@KDPPACIK@?$GAlocal?5static?5guard?8@ 00000001800d3258     libvcruntime:undname.obj
 0003:00013270       ??_C@_08OBABFOLI@?$GAstring?8@ 00000001800d3270     libvcruntime:undname.obj
 0003:00013280       ??_C@_0BD@JDLKDPAB@?$GAvbase?5destructor?8@ 00000001800d3280     libvcruntime:undname.obj
 0003:00013298       ??_C@_0BN@DEGPLNFK@?$GAvector?5deleting?5destructor?8@ 00000001800d3298     libvcruntime:undname.obj
 0003:000132b8       ??_C@_0BO@OBMKPJIG@?$GAdefault?5constructor?5closure?8@ 00000001800d32b8     libvcruntime:undname.obj
 0003:000132d8       ??_C@_0BN@IMDCHIKM@?$GAscalar?5deleting?5destructor?8@ 00000001800d32d8     libvcruntime:undname.obj
 0003:000132f8       ??_C@_0BO@PFGOCPJJ@?$GAvector?5constructor?5iterator?8@ 00000001800d32f8     libvcruntime:undname.obj
 0003:00013318       ??_C@_0BN@LFPFMEDL@?$GAvector?5destructor?5iterator?8@ 00000001800d3318     libvcruntime:undname.obj
 0003:00013338       ??_C@_0CE@IKBNEHA@?$GAvector?5vbase?5constructor?5itera@ 00000001800d3338     libvcruntime:undname.obj
 0003:00013360       ??_C@_0BL@NILFHHPC@?$GAvirtual?5displacement?5map?8@ 00000001800d3360     libvcruntime:undname.obj
 0003:00013380       ??_C@_0CB@JONCMFFK@?$GAeh?5vector?5constructor?5iterator@ 00000001800d3380     libvcruntime:undname.obj
 0003:000133a8       ??_C@_0CA@GCEOPDGL@?$GAeh?5vector?5destructor?5iterator?8@ 00000001800d33a8     libvcruntime:undname.obj
 0003:000133c8       ??_C@_0CH@OOJPLCPH@?$GAeh?5vector?5vbase?5constructor?5it@ 00000001800d33c8     libvcruntime:undname.obj
 0003:000133f0       ??_C@_0BL@LLKPOHJI@?$GAcopy?5constructor?5closure?8@ 00000001800d33f0     libvcruntime:undname.obj
 0003:00013410       ??_C@_0BA@KBCDOMBN@?$GAudt?5returning?8@ 00000001800d3410     libvcruntime:undname.obj
 0003:00013420       ??_C@_03KLGMFNMG@?$GAEH@   00000001800d3420     libvcruntime:undname.obj
 0003:00013424       ??_C@_05KHLCHHI@?$GARTTI@  00000001800d3424     libvcruntime:undname.obj
 0003:00013430       ??_C@_0BA@KKLDJDLB@?$GAlocal?5vftable?8@ 00000001800d3430     libvcruntime:undname.obj
 0003:00013440       ??_C@_0CE@IIHCMGGL@?$GAlocal?5vftable?5constructor?5clos@ 00000001800d3440     libvcruntime:undname.obj
 0003:00013464       ??_C@_06FHBGPFGH@?5new?$FL?$FN@ 00000001800d3464     libvcruntime:undname.obj
 0003:00013470       ??_C@_09LBNFPBCA@?5delete?$FL?$FN@ 00000001800d3470     libvcruntime:undname.obj
 0003:00013480       ??_C@_0P@HJKNJFNN@?$GAomni?5callsig?8@ 00000001800d3480     libvcruntime:undname.obj
 0003:00013490       ??_C@_0BL@CNOONJFP@?$GAplacement?5delete?5closure?8@ 00000001800d3490     libvcruntime:undname.obj
 0003:000134b0       ??_C@_0BN@CKNJLHMB@?$GAplacement?5delete?$FL?$FN?5closure?8@ 00000001800d34b0     libvcruntime:undname.obj
 0003:000134d0       ??_C@_0CG@CFDHKGGD@?$GAmanaged?5vector?5constructor?5ite@ 00000001800d34d0     libvcruntime:undname.obj
 0003:000134f8       ??_C@_0CF@IMGKMJNO@?$GAmanaged?5vector?5destructor?5iter@ 00000001800d34f8     libvcruntime:undname.obj
 0003:00013520       ??_C@_0CG@HLDDJMAG@?$GAeh?5vector?5copy?5constructor?5ite@ 00000001800d3520     libvcruntime:undname.obj
 0003:00013548       ??_C@_0CM@FCBBDIGB@?$GAeh?5vector?5vbase?5copy?5construct@ 00000001800d3548     libvcruntime:undname.obj
 0003:00013578       ??_C@_0BL@CLIPGLGB@?$GAdynamic?5initializer?5for?5?8@ 00000001800d3578     libvcruntime:undname.obj
 0003:00013598       ??_C@_0CB@PDBIFEP@?$GAdynamic?5atexit?5destructor?5for?5@ 00000001800d3598     libvcruntime:undname.obj
 0003:000135c0       ??_C@_0CD@CGAJBKEJ@?$GAvector?5copy?5constructor?5iterat@ 00000001800d35c0     libvcruntime:undname.obj
 0003:000135e8       ??_C@_0CJ@GJELGAMM@?$GAvector?5vbase?5copy?5constructor?5@ 00000001800d35e8     libvcruntime:undname.obj
 0003:00013618       ??_C@_0CL@FGIJHLCE@?$GAmanaged?5vector?5copy?5constructo@ 00000001800d3618     libvcruntime:undname.obj
 0003:00013648       ??_C@_0BM@PMGGMLDN@?$GAlocal?5static?5thread?5guard?8@ 00000001800d3648     libvcruntime:undname.obj
 0003:00013668       ??_C@_0N@BDNMDMOL@operator?5?$CC?$CC?5@ 00000001800d3668     libvcruntime:undname.obj
 0003:00013678       ??_C@_0BC@GGEBGALA@operator?5co_await@ 00000001800d3678     libvcruntime:undname.obj
 0003:00013690       ??_C@_0M@GAAIMMOH@operator?$DM?$DN?$DO@ 00000001800d3690     libvcruntime:undname.obj
 0003:000136a0       ??_C@_0BC@DAFEJGAK@?5Type?5Descriptor?8@ 00000001800d36a0     libvcruntime:undname.obj
 0003:000136b8       ??_C@_0BM@LDKODKLH@?5Base?5Class?5Descriptor?5at?5?$CI@ 00000001800d36b8     libvcruntime:undname.obj
 0003:000136d8       ??_C@_0BD@LGICGFMM@?5Base?5Class?5Array?8@ 00000001800d36d8     libvcruntime:undname.obj
 0003:000136f0       ??_C@_0BN@MECKDCOJ@?5Class?5Hierarchy?5Descriptor?8@ 00000001800d36f0     libvcruntime:undname.obj
 0003:00013710       ??_C@_0BK@CFCOFLF@?5Complete?5Object?5Locator?8@ 00000001800d3710     libvcruntime:undname.obj
 0003:00013730       ??_C@_0BG@JNJLAMPM@?$GAanonymous?5namespace?8@ 00000001800d3730     libvcruntime:undname.obj
 0003:00013760       ??_C@_1DM@KHCHBNEB@?$AAa?$AAp?$AAi?$AA?9?$AAm?$AAs?$AA?9?$AAw?$AAi?$AAn?$AA?9?$AAc?$AAo?$AAr?$AAe@ 00000001800d3760     libvcruntime:winapi_downlevel.obj
 0003:000137a0       ??_C@_1DK@LPPGFMPP@?$AAa?$AAp?$AAi?$AA?9?$AAm?$AAs?$AA?9?$AAw?$AAi?$AAn?$AA?9?$AAc?$AAo?$AAr?$AAe@ 00000001800d37a0     libvcruntime:winapi_downlevel.obj
 0003:000137e0       ??_C@_1BC@GDMECMAK@?$AAk?$AAe?$AAr?$AAn?$AAe?$AAl?$AA3?$AA2@ 00000001800d37e0     libvcruntime:winapi_downlevel.obj
 0003:000137f8       ??_C@_1BA@PFFKHIOG@?$AAa?$AAp?$AAi?$AA?9?$AAm?$AAs?$AA?9@ 00000001800d37f8     libvcruntime:winapi_downlevel.obj
 0003:00013810       ??_C@_08KNHFBNJ@FlsAlloc@  00000001800d3810     libvcruntime:winapi_downlevel.obj
 0003:00013828       ??_C@_07PEJMOBNF@FlsFree@  00000001800d3828     libvcruntime:winapi_downlevel.obj
 0003:00013838       ??_C@_0M@GDNOONDI@FlsGetValue@ 00000001800d3838     libvcruntime:winapi_downlevel.obj
 0003:00013850       ??_C@_0M@JCPCPOEF@FlsSetValue@ 00000001800d3850     libvcruntime:winapi_downlevel.obj
 0003:00013868       ??_C@_0BM@HCFOFFN@InitializeCriticalSectionEx@ 00000001800d3868     libvcruntime:winapi_downlevel.obj
 0003:00013888       __real@bff0000000000000    00000001800d3888     libucrt:floor.obj
 0003:00013cec       ??_C@_05KGFAIMPG@sqrtf@    00000001800d3cec     libucrt:sqrtf.obj
 0003:00013d00       ?standard_lookup_table_spectre@__crt_stdio_output@@3V?$spectre_mitigated_lookup_table@Ustate_transition_pair@__crt_stdio_output@@$0IA@@1@B 00000001800d3d00     libucrt:output.obj
 0003:00013e00       ?format_validation_lookup_table_spectre@__crt_stdio_output@@3V?$spectre_mitigated_lookup_table@Ustate_transition_pair@__crt_stdio_output@@$0IA@@1@B 00000001800d3e00     libucrt:output.obj
 0003:00013f00       ??_C@_1O@CEDCILHN@?$AA?$CI?$AAn?$AAu?$AAl?$AAl?$AA?$CJ@ 00000001800d3f00     libucrt:output.obj
 0003:00013f10       ??_C@_06OJHGLDPL@?$CInull?$CJ@ 00000001800d3f10     libucrt:output.obj
 0003:00013f20       __acrt_exception_action_table 00000001800d3f20     libucrt:exception_filter.obj
 0003:00013fe0       __acrt_signal_action_table_count 00000001800d3fe0     libucrt:exception_filter.obj
 0003:00013fe8       __acrt_signal_action_first_fpe_index 00000001800d3fe8     libucrt:exception_filter.obj
 0003:00013ff0       __acrt_signal_action_fpe_count 00000001800d3ff0     libucrt:exception_filter.obj
 0003:00014048       ??_C@_1BI@BGOHAHKC@?$AAm?$AAs?$AAc?$AAo?$AAr?$AAe?$AAe?$AA?4?$AAd?$AAl?$AAl@ 00000001800d4048     libucrt:exit.obj
 0003:00014060       ??_C@_0P@MIGLKIOC@CorExitProcess@ 00000001800d4060     libucrt:exit.obj
 0003:000141c0       __log10_256_lead           00000001800d41c0     libucrt:log10_256_lead_tail_table.obj
 0003:000149d0       __log10_256_tail           00000001800d49d0     libucrt:log10_256_lead_tail_table.obj
 0003:000151e0       __log_F_inv_qword          00000001800d51e0     libucrt:log_f_inv_qword_table.obj
 0003:000159f0       ??_C@_03MGHMBJCF@log@      00000001800d59f0     libucrt:log_special.obj
 0003:000159f4       ??_C@_05HGHHAHAP@log10@    00000001800d59f4     libucrt:log_special.obj
 0003:00015a00       __log_256_lead             00000001800d5a00     libucrt:log_256_lead_tail_table.obj
 0003:00016210       __log_256_tail             00000001800d6210     libucrt:log_256_lead_tail_table.obj
 0003:00016b90       __lc_time_c                00000001800d6b90     libucrt:nlsdata.obj
 0003:00016e50       ??_C@_03KOEHGMDN@Sun@      00000001800d6e50     libucrt:nlsdata.obj
 0003:00016e54       ??_C@_03PDAGKDH@Mon@       00000001800d6e54     libucrt:nlsdata.obj
 0003:00016e58       ??_C@_03NAGEINEP@Tue@      00000001800d6e58     libucrt:nlsdata.obj
 0003:00016e5c       ??_C@_03MHOMLAJA@Wed@      00000001800d6e5c     libucrt:nlsdata.obj
 0003:00016e60       ??_C@_03IOFIKPDN@Thu@      00000001800d6e60     libucrt:nlsdata.obj
 0003:00016e64       ??_C@_03IDIOELNC@Fri@      00000001800d6e64     libucrt:nlsdata.obj
 0003:00016e68       ??_C@_03FEFJNEK@Sat@       00000001800d6e68     libucrt:nlsdata.obj
 0003:00016e6c       ??_C@_06OOPIFAJ@Sunday@    00000001800d6e6c     libucrt:nlsdata.obj
 0003:00016e74       ??_C@_06JLEDEDGH@Monday@   00000001800d6e74     libucrt:nlsdata.obj
 0003:00016e80       ??_C@_07BAAGCFCM@Tuesday@  00000001800d6e80     libucrt:nlsdata.obj
 0003:00016e88       ??_C@_09DLIGFAKA@Wednesday@ 00000001800d6e88     libucrt:nlsdata.obj
 0003:00016e98       ??_C@_08HACCIKIA@Thursday@ 00000001800d6e98     libucrt:nlsdata.obj
 0003:00016ea4       ??_C@_06JECMNKMI@Friday@   00000001800d6ea4     libucrt:nlsdata.obj
 0003:00016eb0       ??_C@_08INBOOONO@Saturday@ 00000001800d6eb0     libucrt:nlsdata.obj
 0003:00016ebc       ??_C@_03JIHJHPIE@Jan@      00000001800d6ebc     libucrt:nlsdata.obj
 0003:00016ec0       ??_C@_03HJBDCHOM@Feb@      00000001800d6ec0     libucrt:nlsdata.obj
 0003:00016ec4       ??_C@_03ODNJBKGA@Mar@      00000001800d6ec4     libucrt:nlsdata.obj
 0003:00016ec8       ??_C@_03LEOLGMJP@Apr@      00000001800d6ec8     libucrt:nlsdata.obj
 0003:00016ecc       ??_C@_03CNMDKL@May@        00000001800d6ecc     libucrt:nlsdata.obj
 0003:00016ed0       ??_C@_03IDFGHECI@Jun@      00000001800d6ed0     libucrt:nlsdata.obj
 0003:00016ed4       ??_C@_03LBGABGKK@Jul@      00000001800d6ed4     libucrt:nlsdata.obj
 0003:00016ed8       ??_C@_03IFJFEIGA@Aug@      00000001800d6ed8     libucrt:nlsdata.obj
 0003:00016edc       ??_C@_03GGCAPAJC@Sep@      00000001800d6edc     libucrt:nlsdata.obj
 0003:00016ee0       ??_C@_03BMAOKBAD@Oct@      00000001800d6ee0     libucrt:nlsdata.obj
 0003:00016ee4       ??_C@_03JPJOFNIA@Nov@      00000001800d6ee4     libucrt:nlsdata.obj
 0003:00016ee8       ??_C@_03MKABNOCG@Dec@      00000001800d6ee8     libucrt:nlsdata.obj
 0003:00016ef0       ??_C@_07CGJPFGJA@January@  00000001800d6ef0     libucrt:nlsdata.obj
 0003:00016ef8       ??_C@_08GNJGEPFN@February@ 00000001800d6ef8     libucrt:nlsdata.obj
 0003:00016f04       ??_C@_05HPCKOFNC@March@    00000001800d6f04     libucrt:nlsdata.obj
 0003:00016f0c       ??_C@_05DMJDNLEJ@April@    00000001800d6f0c     libucrt:nlsdata.obj
 0003:00016f14       ??_C@_04CNLMGBGM@June@     00000001800d6f14     libucrt:nlsdata.obj
 0003:00016f1c       ??_C@_04MIEPOIFP@July@     00000001800d6f1c     libucrt:nlsdata.obj
 0003:00016f24       ??_C@_06LBBHFDDG@August@   00000001800d6f24     libucrt:nlsdata.obj
 0003:00016f30       ??_C@_09BHHEALKD@September@ 00000001800d6f30     libucrt:nlsdata.obj
 0003:00016f40       ??_C@_07JJNFCEND@October@  00000001800d6f40     libucrt:nlsdata.obj
 0003:00016f48       ??_C@_08HCHEGEOA@November@ 00000001800d6f48     libucrt:nlsdata.obj
 0003:00016f58       ??_C@_08EDHMEBNP@December@ 00000001800d6f58     libucrt:nlsdata.obj
 0003:00016f64       ??_C@_02DEDBPAFC@AM@       00000001800d6f64     libucrt:nlsdata.obj
 0003:00016f68       ??_C@_02CJNFDJBF@PM@       00000001800d6f68     libucrt:nlsdata.obj
 0003:00016f70       ??_C@_08BPBNCDIB@MM?1dd?1yy@ 00000001800d6f70     libucrt:nlsdata.obj
 0003:00016f80       ??_C@_0BE@CKGJFCPC@dddd?0?5MMMM?5dd?0?5yyyy@ 00000001800d6f80     libucrt:nlsdata.obj
 0003:00016f98       ??_C@_08JCCMCCIL@HH?3mm?3ss@ 00000001800d6f98     libucrt:nlsdata.obj
 0003:00016fa8       ??_C@_17MBGCMIPB@?$AAS?$AAu?$AAn@ 00000001800d6fa8     libucrt:nlsdata.obj
 0003:00016fb0       ??_C@_17KBOMKBF@?$AAM?$AAo?$AAn@ 00000001800d6fb0     libucrt:nlsdata.obj
 0003:00016fb8       ??_C@_17BMKGEGOJ@?$AAT?$AAu?$AAe@ 00000001800d6fb8     libucrt:nlsdata.obj
 0003:00016fc0       ??_C@_17CJEDCEPE@?$AAW?$AAe?$AAd@ 00000001800d6fc0     libucrt:nlsdata.obj
 0003:00016fc8       ??_C@_17PDPHAADD@?$AAT?$AAh?$AAu@ 00000001800d6fc8     libucrt:nlsdata.obj
 0003:00016fd0       ??_C@_17HFOLPPLP@?$AAF?$AAr?$AAi@ 00000001800d6fd0     libucrt:nlsdata.obj
 0003:00016fd8       ??_C@_17GGIBDPIH@?$AAS?$AAa?$AAt@ 00000001800d6fd8     libucrt:nlsdata.obj
 0003:00016fe0       ??_C@_1O@IHNHDHPB@?$AAS?$AAu?$AAn?$AAd?$AAa?$AAy@ 00000001800d6fe0     libucrt:nlsdata.obj
 0003:00016ff0       ??_C@_1O@MMNBFLIA@?$AAM?$AAo?$AAn?$AAd?$AAa?$AAy@ 00000001800d6ff0     libucrt:nlsdata.obj
 0003:00017000       ??_C@_1BA@ENFBFFEK@?$AAT?$AAu?$AAe?$AAs?$AAd?$AAa?$AAy@ 00000001800d7000     libucrt:nlsdata.obj
 0003:00017010       ??_C@_1BE@EBOGMDOH@?$AAW?$AAe?$AAd?$AAn?$AAe?$AAs?$AAd?$AAa?$AAy@ 00000001800d7010     libucrt:nlsdata.obj
 0003:00017028       ??_C@_1BC@HHMNLIHE@?$AAT?$AAh?$AAu?$AAr?$AAs?$AAd?$AAa?$AAy@ 00000001800d7028     libucrt:nlsdata.obj
 0003:00017040       ??_C@_1O@PDICJHAG@?$AAF?$AAr?$AAi?$AAd?$AAa?$AAy@ 00000001800d7040     libucrt:nlsdata.obj
 0003:00017050       ??_C@_1BC@ENMNNPAJ@?$AAS?$AAa?$AAt?$AAu?$AAr?$AAd?$AAa?$AAy@ 00000001800d7050     libucrt:nlsdata.obj
 0003:00017068       ??_C@_17DKNBKCHM@?$AAJ?$AAa?$AAn@ 00000001800d7068     libucrt:nlsdata.obj
 0003:00017070       ??_C@_17LMDJEKJN@?$AAF?$AAe?$AAb@ 00000001800d7070     libucrt:nlsdata.obj
 0003:00017078       ??_C@_17CKNLEDEC@?$AAM?$AAa?$AAr@ 00000001800d7078     libucrt:nlsdata.obj
 0003:00017080       ??_C@_17LFPOIHDD@?$AAA?$AAp?$AAr@ 00000001800d7080     libucrt:nlsdata.obj
 0003:00017088       ??_C@_17PNNKMEED@?$AAM?$AAa?$AAy@ 00000001800d7088     libucrt:nlsdata.obj
 0003:00017090       ??_C@_17KCJGOCPB@?$AAJ?$AAu?$AAn@ 00000001800d7090     libucrt:nlsdata.obj
 0003:00017098       ??_C@_17IJPCKHK@?$AAJ?$AAu?$AAl@ 00000001800d7098     libucrt:nlsdata.obj
 0003:000170a0       ??_C@_17ICPELBCN@?$AAA?$AAu?$AAg@ 00000001800d70a0     libucrt:nlsdata.obj
 0003:000170a8       ??_C@_17HCHCOKMG@?$AAS?$AAe?$AAp@ 00000001800d70a8     libucrt:nlsdata.obj
 0003:000170b0       ??_C@_17FNLKOI@?$AAO?$AAc?$AAt@ 00000001800d70b0     libucrt:nlsdata.obj
 0003:000170b8       ??_C@_17BBDMLCIG@?$AAN?$AAo?$AAv@ 00000001800d70b8     libucrt:nlsdata.obj
 0003:000170c0       ??_C@_17EGKACKIF@?$AAD?$AAe?$AAc@ 00000001800d70c0     libucrt:nlsdata.obj
 0003:000170c8       ??_C@_1BA@EFMEIEBA@?$AAJ?$AAa?$AAn?$AAu?$AAa?$AAr?$AAy@ 00000001800d70c8     libucrt:nlsdata.obj
 0003:000170d8       ??_C@_1BC@JGDDFFAM@?$AAF?$AAe?$AAb?$AAr?$AAu?$AAa?$AAr?$AAy@ 00000001800d70d8     libucrt:nlsdata.obj
 0003:000170f0       ??_C@_1M@IKEENEDF@?$AAM?$AAa?$AAr?$AAc?$AAh@ 00000001800d70f0     libucrt:nlsdata.obj
 0003:00017100       ??_C@_1M@GJNLMHFD@?$AAA?$AAp?$AAr?$AAi?$AAl@ 00000001800d7100     libucrt:nlsdata.obj
 0003:00017110       ??_C@_19EPFLPGAP@?$AAJ?$AAu?$AAn?$AAe@ 00000001800d7110     libucrt:nlsdata.obj
 0003:00017120       ??_C@_19BIFMLPCD@?$AAJ?$AAu?$AAl?$AAy@ 00000001800d7120     libucrt:nlsdata.obj
 0003:00017130       ??_C@_1O@PAHLKOAC@?$AAA?$AAu?$AAg?$AAu?$AAs?$AAt@ 00000001800d7130     libucrt:nlsdata.obj
 0003:00017140       ??_C@_1BE@DKAAMBJL@?$AAS?$AAe?$AAp?$AAt?$AAe?$AAm?$AAb?$AAe?$AAr@ 00000001800d7140     libucrt:nlsdata.obj
 0003:00017158       ??_C@_1BA@EPANDLNG@?$AAO?$AAc?$AAt?$AAo?$AAb?$AAe?$AAr@ 00000001800d7158     libucrt:nlsdata.obj
 0003:00017168       ??_C@_1BC@BGLIFPF@?$AAN?$AAo?$AAv?$AAe?$AAm?$AAb?$AAe?$AAr@ 00000001800d7168     libucrt:nlsdata.obj
 0003:00017180       ??_C@_1BC@FEMKIFH@?$AAD?$AAe?$AAc?$AAe?$AAm?$AAb?$AAe?$AAr@ 00000001800d7180     libucrt:nlsdata.obj
 0003:00017194       ??_C@_15ODEHAHHF@?$AAA?$AAM@ 00000001800d7194     libucrt:nlsdata.obj
 0003:0001719c       ??_C@_15CLMNNGEL@?$AAP?$AAM@ 00000001800d719c     libucrt:nlsdata.obj
 0003:000171a8       ??_C@_1BC@IEBCMHCM@?$AAM?$AAM?$AA?1?$AAd?$AAd?$AA?1?$AAy?$AAy@ 00000001800d71a8     libucrt:nlsdata.obj
 0003:000171c0       ??_C@_1CI@KNAKOEBC@?$AAd?$AAd?$AAd?$AAd?$AA?0?$AA?5?$AAM?$AAM?$AAM?$AAM?$AA?5?$AAd?$AAd?$AA?0?$AA?5@ 00000001800d71c0     libucrt:nlsdata.obj
 0003:000171e8       ??_C@_1BC@GDGBMEMK@?$AAH?$AAH?$AA?3?$AAm?$AAm?$AA?3?$AAs?$AAs@ 00000001800d71e8     libucrt:nlsdata.obj
 0003:00017200       ??_C@_1M@BMHNFIME@?$AAe?$AAn?$AA?9?$AAU?$AAS@ 00000001800d7200     libucrt:nlsdata.obj
 0003:000172b0       ??_C@_1EA@JGEFHKEI@?$AAa?$AAp?$AAi?$AA?9?$AAm?$AAs?$AA?9?$AAw?$AAi?$AAn?$AA?9?$AAc?$AAo?$AAr?$AAe@ 00000001800d72b0     libucrt:winapi_thunks.obj
 0003:000172f0       ??_C@_1DI@IJCEHOCB@?$AAa?$AAp?$AAi?$AA?9?$AAm?$AAs?$AA?9?$AAw?$AAi?$AAn?$AA?9?$AAc?$AAo?$AAr?$AAe@ 00000001800d72f0     libucrt:winapi_thunks.obj
 0003:00017330       ??_C@_1EI@MPIAOHOC@?$AAa?$AAp?$AAi?$AA?9?$AAm?$AAs?$AA?9?$AAw?$AAi?$AAn?$AA?9?$AAc?$AAo?$AAr?$AAe@ 00000001800d7330     libucrt:winapi_thunks.obj
 0003:00017380       ??_C@_1FK@FPHCKFIE@?$AAa?$AAp?$AAi?$AA?9?$AAm?$AAs?$AA?9?$AAw?$AAi?$AAn?$AA?9?$AAc?$AAo?$AAr?$AAe@ 00000001800d7380     libucrt:winapi_thunks.obj
 0003:000173e0       ??_C@_1EM@DILCGIIO@?$AAa?$AAp?$AAi?$AA?9?$AAm?$AAs?$AA?9?$AAw?$AAi?$AAn?$AA?9?$AAc?$AAo?$AAr?$AAe@ 00000001800d73e0     libucrt:winapi_thunks.obj
 0003:00017430       ??_C@_1DM@LNCGDDPN@?$AAa?$AAp?$AAi?$AA?9?$AAm?$AAs?$AA?9?$AAw?$AAi?$AAn?$AA?9?$AAc?$AAo?$AAr?$AAe@ 00000001800d7430     libucrt:winapi_thunks.obj
 0003:00017470       ??_C@_1DO@FPAPJEMD@?$AAa?$AAp?$AAi?$AA?9?$AAm?$AAs?$AA?9?$AAw?$AAi?$AAn?$AA?9?$AAc?$AAo?$AAr?$AAe@ 00000001800d7470     libucrt:winapi_thunks.obj
 0003:000174b0       ??_C@_1DK@NDHNAHIO@?$AAa?$AAp?$AAi?$AA?9?$AAm?$AAs?$AA?9?$AAw?$AAi?$AAn?$AA?9?$AAc?$AAo?$AAr?$AAe@ 00000001800d74b0     libucrt:winapi_thunks.obj
 0003:000174f0       ??_C@_1DM@KGHDGBCM@?$AAa?$AAp?$AAi?$AA?9?$AAm?$AAs?$AA?9?$AAw?$AAi?$AAn?$AA?9?$AAc?$AAo?$AAr?$AAe@ 00000001800d74f0     libucrt:winapi_thunks.obj
 0003:00017530       ??_C@_1EO@IJIOEFOH@?$AAa?$AAp?$AAi?$AA?9?$AAm?$AAs?$AA?9?$AAw?$AAi?$AAn?$AA?9?$AAr?$AAt?$AAc?$AAo@ 00000001800d7530     libucrt:winapi_thunks.obj
 0003:00017580       ??_C@_1FG@HHGEKANL@?$AAa?$AAp?$AAi?$AA?9?$AAm?$AAs?$AA?9?$AAw?$AAi?$AAn?$AA?9?$AAs?$AAe?$AAc?$AAu@ 00000001800d7580     libucrt:winapi_thunks.obj
 0003:000175e0       ??_C@_1EG@DBIOJECG@?$AAe?$AAx?$AAt?$AA?9?$AAm?$AAs?$AA?9?$AAw?$AAi?$AAn?$AA?9?$AAn?$AAt?$AAu?$AAs@ 00000001800d75e0     libucrt:winapi_thunks.obj
 0003:00017630       ??_C@_1EO@FIHMJCLF@?$AAe?$AAx?$AAt?$AA?9?$AAm?$AAs?$AA?9?$AAw?$AAi?$AAn?$AA?9?$AAn?$AAt?$AAu?$AAs@ 00000001800d7630     libucrt:winapi_thunks.obj
 0003:00017680       ??_C@_1BC@DNHGCMLG@?$AAa?$AAd?$AAv?$AAa?$AAp?$AAi?$AA3?$AA2@ 00000001800d7680     libucrt:winapi_thunks.obj
 0003:00017698       ??_C@_1M@OAIMIKLP@?$AAn?$AAt?$AAd?$AAl?$AAl@ 00000001800d7698     libucrt:winapi_thunks.obj
 0003:000176b0       ??_C@_1EG@DPGNFKGC@?$AAa?$AAp?$AAi?$AA?9?$AAm?$AAs?$AA?9?$AAw?$AAi?$AAn?$AA?9?$AAa?$AAp?$AAp?$AAm@ 00000001800d76b0     libucrt:winapi_thunks.obj
 0003:000176f8       ??_C@_1O@BCCLBEOE@?$AAu?$AAs?$AAe?$AAr?$AA3?$AA2@ 00000001800d76f8     libucrt:winapi_thunks.obj
 0003:00017708       ??_C@_1BA@IAIFMGEF@?$AAe?$AAx?$AAt?$AA?9?$AAm?$AAs?$AA?9@ 00000001800d7708     libucrt:winapi_thunks.obj
 0003:00017720       ??_C@_0BA@FHFNEAED@AreFileApisANSI@ 00000001800d7720     libucrt:winapi_thunks.obj
 0003:00017740       ??_C@_0O@KKBNKAPF@LCMapStringEx@ 00000001800d7740     libucrt:winapi_thunks.obj
 0003:00017758       ??_C@_0BB@HBDEELFH@LocaleNameToLCID@ 00000001800d7758     libucrt:winapi_thunks.obj
 0003:00017770       ??_C@_0CF@OJOFEIGO@AppPolicyGetProcessTerminationM@ 00000001800d7770     libucrt:winapi_thunks.obj
 0003:00017840       ??_C@_03OEIAHPBN@INF@      00000001800d7840     libucrt:cvt.obj
 0003:00017844       ??_C@_03OJHLLCGB@inf@      00000001800d7844     libucrt:cvt.obj
 0003:00017848       ??_C@_03LKNCIKJB@NAN@      00000001800d7848     libucrt:cvt.obj
 0003:0001784c       ??_C@_03LHCJEHON@nan@      00000001800d784c     libucrt:cvt.obj
 0003:00017850       ??_C@_09OFJJIMPC@NAN?$CISNAN?$CJ@ 00000001800d7850     libucrt:cvt.obj
 0003:00017860       ??_C@_09IPFBKMDL@nan?$CIsnan?$CJ@ 00000001800d7860     libucrt:cvt.obj
 0003:00017870       ??_C@_08IKHNHAJ@NAN?$CIIND?$CJ@ 00000001800d7870     libucrt:cvt.obj
 0003:00017880       ??_C@_08OFCDMILK@nan?$CIind?$CJ@ 00000001800d7880     libucrt:cvt.obj
 0003:0001788c       ??_C@_05KLBDPFGC@e?$CL000@ 00000001800d788c     libucrt:cvt.obj
 0003:000178b8       ??_C@_1M@HPNHIDJI@?$AAj?$AAa?$AA?9?$AAJ?$AAP@ 00000001800d78b8     libucrt:mbctype.obj
 0003:000178c8       ??_C@_1M@BIBDDEMK@?$AAz?$AAh?$AA?9?$AAC?$AAN@ 00000001800d78c8     libucrt:mbctype.obj
 0003:000178d8       ??_C@_1M@JLOOOEGK@?$AAk?$AAo?$AA?9?$AAK?$AAR@ 00000001800d78d8     libucrt:mbctype.obj
 0003:000178e8       ??_C@_1M@CLNBBOPM@?$AAz?$AAh?$AA?9?$AAT?$AAW@ 00000001800d78e8     libucrt:mbctype.obj
 0003:00017900       __newctype                 00000001800d7900     libucrt:ctype.obj
 0003:00017c00       __newclmap                 00000001800d7c00     libucrt:ctype.obj
 0003:00017d80       __newcumap                 00000001800d7d80     libucrt:ctype.obj
 0003:00017f00       ??_C@_15PJPFLCCM@?$AAu?$AAk@ 00000001800d7f00     libucrt:get_qualified_locale.obj
 0003:00018d50       ??_C@_15EMKDOKLE@?$AAa?$AAr@ 00000001800d8d50     libucrt:lcidtoname_downlevel.obj
 0003:00018d58       ??_C@_15KNPADPLH@?$AAb?$AAg@ 00000001800d8d58     libucrt:lcidtoname_downlevel.obj
 0003:00018d60       ??_C@_15EDMHLDMO@?$AAc?$AAa@ 00000001800d8d60     libucrt:lcidtoname_downlevel.obj
 0003:00018d68       ??_C@_1O@BPEAJADD@?$AAz?$AAh?$AA?9?$AAC?$AAH?$AAS@ 00000001800d8d68     libucrt:lcidtoname_downlevel.obj
 0003:00018d78       ??_C@_15LJNHCMNK@?$AAc?$AAs@ 00000001800d8d78     libucrt:lcidtoname_downlevel.obj
 0003:00018d80       ??_C@_15FOMCIDHG@?$AAd?$AAa@ 00000001800d8d80     libucrt:lcidtoname_downlevel.obj
 0003:00018d88       ??_C@_15NBKABECB@?$AAd?$AAe@ 00000001800d8d88     libucrt:lcidtoname_downlevel.obj
 0003:00018d90       ??_C@_15GHPEIIAO@?$AAe?$AAl@ 00000001800d8d90     libucrt:lcidtoname_downlevel.obj
 0003:00018d98       ??_C@_15MNPNEAIF@?$AAe?$AAn@ 00000001800d8d98     libucrt:lcidtoname_downlevel.obj
 0003:00018da0       ??_C@_15GPIOMPMH@?$AAe?$AAs@ 00000001800d8da0     libucrt:lcidtoname_downlevel.obj
 0003:00018da8       ??_C@_15NGLOAKJC@?$AAf?$AAi@ 00000001800d8da8     libucrt:lcidtoname_downlevel.obj
 0003:00018db0       ??_C@_15FBKGNKAM@?$AAf?$AAr@ 00000001800d8db0     libucrt:lcidtoname_downlevel.obj
 0003:00018db8       ??_C@_15KGGCNEFK@?$AAh?$AAe@ 00000001800d8db8     libucrt:lcidtoname_downlevel.obj
 0003:00018dc0       ??_C@_15PGHLIDMF@?$AAh?$AAu@ 00000001800d8dc0     libucrt:lcidtoname_downlevel.obj
 0003:00018dc8       ??_C@_15BIEMAPLM@?$AAi?$AAs@ 00000001800d8dc8     libucrt:lcidtoname_downlevel.obj
 0003:00018dd0       ??_C@_15IFJLDHAF@?$AAi?$AAt@ 00000001800d8dd0     libucrt:lcidtoname_downlevel.obj
 0003:00018dd8       ??_C@_15GEMIOCAG@?$AAj?$AAa@ 00000001800d8dd8     libucrt:lcidtoname_downlevel.obj
 0003:00018de0       ??_C@_15EPELEGJA@?$AAk?$AAo@ 00000001800d8de0     libucrt:lcidtoname_downlevel.obj
 0003:00018de8       ??_C@_15NDDHIMN@?$AAn?$AAl@ 00000001800d8de8     libucrt:lcidtoname_downlevel.obj
 0003:00018df0       ??_C@_15BPIGNHCD@?$AAn?$AAo@ 00000001800d8df0     libucrt:lcidtoname_downlevel.obj
 0003:00018df8       ??_C@_15DEOPBLCG@?$AAp?$AAl@ 00000001800d8df8     libucrt:lcidtoname_downlevel.obj
 0003:00018e00       ??_C@_15KBECGEFG@?$AAp?$AAt@ 00000001800d8e00     libucrt:lcidtoname_downlevel.obj
 0003:00018e08       ??_C@_15GLJCBFMD@?$AAr?$AAo@ 00000001800d8e08     libucrt:lcidtoname_downlevel.obj
 0003:00018e10       ??_C@_15FEDGKCDI@?$AAr?$AAu@ 00000001800d8e10     libucrt:lcidtoname_downlevel.obj
 0003:00018e18       ??_C@_15GLKMLLHM@?$AAh?$AAr@ 00000001800d8e18     libucrt:lcidtoname_downlevel.obj
 0003:00018e20       ??_C@_15CPKMFBDB@?$AAs?$AAk@ 00000001800d8e20     libucrt:lcidtoname_downlevel.obj
 0003:00018e28       ??_C@_15BAAIOGMK@?$AAs?$AAq@ 00000001800d8e28     libucrt:lcidtoname_downlevel.obj
 0003:00018e30       ??_C@_15INNPNOHD@?$AAs?$AAv@ 00000001800d8e30     libucrt:lcidtoname_downlevel.obj
 0003:00018e38       ??_C@_15CABMMOGH@?$AAt?$AAh@ 00000001800d8e38     libucrt:lcidtoname_downlevel.obj
 0003:00018e40       ??_C@_15BPLIHJJM@?$AAt?$AAr@ 00000001800d8e40     libucrt:lcidtoname_downlevel.obj
 0003:00018e48       ??_C@_15NEOEKKDJ@?$AAu?$AAr@ 00000001800d8e48     libucrt:lcidtoname_downlevel.obj
 0003:00018e50       ??_C@_15NFICGAJK@?$AAi?$AAd@ 00000001800d8e50     libucrt:lcidtoname_downlevel.obj
 0003:00018e58       ??_C@_15HPJPHDM@?$AAb?$AAe@ 00000001800d8e58     libucrt:lcidtoname_downlevel.obj
 0003:00018e60       ??_C@_15LCHLGJII@?$AAs?$AAl@ 00000001800d8e60     libucrt:lcidtoname_downlevel.obj
 0003:00018e68       ??_C@_15PCFJPHHO@?$AAe?$AAt@ 00000001800d8e68     libucrt:lcidtoname_downlevel.obj
 0003:00018e70       ??_C@_15HPFPGODN@?$AAl?$AAv@ 00000001800d8e70     libucrt:lcidtoname_downlevel.obj
 0003:00018e78       ??_C@_15NFFGKGLG@?$AAl?$AAt@ 00000001800d8e78     libucrt:lcidtoname_downlevel.obj
 0003:00018e80       ??_C@_15BDAKCCHN@?$AAf?$AAa@ 00000001800d8e80     libucrt:lcidtoname_downlevel.obj
 0003:00018e88       ??_C@_15NFGIAIAJ@?$AAv?$AAi@ 00000001800d8e88     libucrt:lcidtoname_downlevel.obj
 0003:00018e90       ??_C@_15LMKNDMHN@?$AAh?$AAy@ 00000001800d8e90     libucrt:lcidtoname_downlevel.obj
 0003:00018e98       ??_C@_15IJBHMCFL@?$AAa?$AAz@ 00000001800d8e98     libucrt:lcidtoname_downlevel.obj
 0003:00018ea0       ??_C@_15EKOFJABL@?$AAe?$AAu@ 00000001800d8ea0     libucrt:lcidtoname_downlevel.obj
 0003:00018ea8       ??_C@_15BGHADCNK@?$AAm?$AAk@ 00000001800d8ea8     libucrt:lcidtoname_downlevel.obj
 0003:00018eb0       ??_C@_15JDNICKHM@?$AAa?$AAf@ 00000001800d8eb0     libucrt:lcidtoname_downlevel.obj
 0003:00018eb8       ??_C@_15KPJEDBKD@?$AAk?$AAa@ 00000001800d8eb8     libucrt:lcidtoname_downlevel.obj
 0003:00018ec0       ??_C@_15PDNFFFEO@?$AAf?$AAo@ 00000001800d8ec0     libucrt:lcidtoname_downlevel.obj
 0003:00018ec8       ??_C@_15OMLEGLOC@?$AAh?$AAi@ 00000001800d8ec8     libucrt:lcidtoname_downlevel.obj
 0003:00018ed0       ??_C@_15IDNNENKK@?$AAm?$AAs@ 00000001800d8ed0     libucrt:lcidtoname_downlevel.obj
 0003:00018ed8       ??_C@_15MACJNBMH@?$AAk?$AAk@ 00000001800d8ed8     libucrt:lcidtoname_downlevel.obj
 0003:00018ee0       ??_C@_15DKDJEOND@?$AAk?$AAy@ 00000001800d8ee0     libucrt:lcidtoname_downlevel.obj
 0003:00018ee8       ??_C@_15DFGDLJBG@?$AAs?$AAw@ 00000001800d8ee8     libucrt:lcidtoname_downlevel.obj
 0003:00018ef0       ??_C@_15BBFAICNG@?$AAu?$AAz@ 00000001800d8ef0     libucrt:lcidtoname_downlevel.obj
 0003:00018ef8       ??_C@_15DKNDCGEA@?$AAt?$AAt@ 00000001800d8ef8     libucrt:lcidtoname_downlevel.obj
 0003:00018f00       ??_C@_15MGIFMDPL@?$AAp?$AAa@ 00000001800d8f00     libucrt:lcidtoname_downlevel.obj
 0003:00018f08       ??_C@_15HCNDBBA@?$AAg?$AAu@ 00000001800d8f08     libucrt:lcidtoname_downlevel.obj
 0003:00018f10       ??_C@_15FNBEIBON@?$AAt?$AAa@ 00000001800d8f10     libucrt:lcidtoname_downlevel.obj
 0003:00018f18       ??_C@_15NCHGBGLK@?$AAt?$AAe@ 00000001800d8f18     libucrt:lcidtoname_downlevel.obj
 0003:00018f20       ??_C@_15PHPHCBPF@?$AAk?$AAn@ 00000001800d8f20     libucrt:lcidtoname_downlevel.obj
 0003:00018f28       ??_C@_15DLGBCKMP@?$AAm?$AAr@ 00000001800d8f28     libucrt:lcidtoname_downlevel.obj
 0003:00018f30       ??_C@_15EABBLBFF@?$AAs?$AAa@ 00000001800d8f30     libucrt:lcidtoname_downlevel.obj
 0003:00018f38       ??_C@_15CBKOMCOI@?$AAm?$AAn@ 00000001800d8f38     libucrt:lcidtoname_downlevel.obj
 0003:00018f40       ??_C@_15CKDMCJAF@?$AAg?$AAl@ 00000001800d8f40     libucrt:lcidtoname_downlevel.obj
 0003:00018f48       ??_C@_17CNJFBPG@?$AAk?$AAo?$AAk@ 00000001800d8f48     libucrt:lcidtoname_downlevel.obj
 0003:00018f50       ??_C@_17FFBJICPL@?$AAs?$AAy?$AAr@ 00000001800d8f50     libucrt:lcidtoname_downlevel.obj
 0003:00018f58       ??_C@_17KPNDCPAF@?$AAd?$AAi?$AAv@ 00000001800d8f58     libucrt:lcidtoname_downlevel.obj
 0003:00018f60       ??_C@_11LOCGONAA@@         00000001800d8f60     libucrt:lcidtoname_downlevel.obj
 0003:00018f68       ??_C@_1M@OKAHONE@?$AAa?$AAr?$AA?9?$AAS?$AAA@ 00000001800d8f68     libucrt:lcidtoname_downlevel.obj
 0003:00018f78       ??_C@_1M@FFFIGIGK@?$AAb?$AAg?$AA?9?$AAB?$AAG@ 00000001800d8f78     libucrt:lcidtoname_downlevel.obj
 0003:00018f88       ??_C@_1M@BJNKEDC@?$AAc?$AAa?$AA?9?$AAE?$AAS@ 00000001800d8f88     libucrt:lcidtoname_downlevel.obj
 0003:00018f98       ??_C@_1M@IJJHFJHA@?$AAc?$AAs?$AA?9?$AAC?$AAZ@ 00000001800d8f98     libucrt:lcidtoname_downlevel.obj
 0003:00018fa8       ??_C@_1M@CLPEOBGI@?$AAd?$AAa?$AA?9?$AAD?$AAK@ 00000001800d8fa8     libucrt:lcidtoname_downlevel.obj
 0003:00018fb8       ??_C@_1M@MCMADGCB@?$AAd?$AAe?$AA?9?$AAD?$AAE@ 00000001800d8fb8     libucrt:lcidtoname_downlevel.obj
 0003:00018fc8       ??_C@_1M@OOCKEMAM@?$AAe?$AAl?$AA?9?$AAG?$AAR@ 00000001800d8fc8     libucrt:lcidtoname_downlevel.obj
 0003:00018fd8       ??_C@_1M@DDNJFGID@?$AAf?$AAi?$AA?9?$AAF?$AAI@ 00000001800d8fd8     libucrt:lcidtoname_downlevel.obj
 0003:00018fe8       ??_C@_1M@GLIPPMAC@?$AAf?$AAr?$AA?9?$AAF?$AAR@ 00000001800d8fe8     libucrt:lcidtoname_downlevel.obj
 0003:00018ff8       ??_C@_1M@GFMCHPE@?$AAh?$AAe?$AA?9?$AAI?$AAL@ 00000001800d8ff8     libucrt:lcidtoname_downlevel.obj
 0003:00019008       ??_C@_1M@MHLPGNKM@?$AAh?$AAu?$AA?9?$AAH?$AAU@ 00000001800d9008     libucrt:lcidtoname_downlevel.obj
 0003:00019018       ??_C@_1M@LPDDNNPN@?$AAi?$AAs?$AA?9?$AAI?$AAS@ 00000001800d9018     libucrt:lcidtoname_downlevel.obj
 0003:00019028       ??_C@_1M@MADIPODN@?$AAi?$AAt?$AA?9?$AAI?$AAT@ 00000001800d9028     libucrt:lcidtoname_downlevel.obj
 0003:00019038       ??_C@_1M@IHBJJGG@?$AAn?$AAl?$AA?9?$AAN?$AAL@ 00000001800d9038     libucrt:lcidtoname_downlevel.obj
 0003:00019048       ??_C@_1M@EANAGDL@?$AAn?$AAb?$AA?9?$AAN?$AAO@ 00000001800d9048     libucrt:lcidtoname_downlevel.obj
 0003:00019058       ??_C@_1M@NEIEMEGP@?$AAp?$AAl?$AA?9?$AAP?$AAL@ 00000001800d9058     libucrt:lcidtoname_downlevel.obj
 0003:00019068       ??_C@_1M@BOCFIGEP@?$AAp?$AAt?$AA?9?$AAB?$AAR@ 00000001800d9068     libucrt:lcidtoname_downlevel.obj
 0003:00019078       ??_C@_1M@IMPFOPBG@?$AAr?$AAo?$AA?9?$AAR?$AAO@ 00000001800d9078     libucrt:lcidtoname_downlevel.obj
 0003:00019088       ??_C@_1M@IDNNEJMM@?$AAr?$AAu?$AA?9?$AAR?$AAU@ 00000001800d9088     libucrt:lcidtoname_downlevel.obj
 0003:00019098       ??_C@_1M@LILEEOGM@?$AAh?$AAr?$AA?9?$AAH?$AAR@ 00000001800d9098     libucrt:lcidtoname_downlevel.obj
 0003:000190a8       ??_C@_1M@FKIFEHPB@?$AAs?$AAk?$AA?9?$AAS?$AAK@ 00000001800d90a8     libucrt:lcidtoname_downlevel.obj
 0003:000190b8       ??_C@_1M@LJMAMNPJ@?$AAs?$AAq?$AA?9?$AAA?$AAL@ 00000001800d90b8     libucrt:lcidtoname_downlevel.obj
 0003:000190c8       ??_C@_1M@GIAKDKJK@?$AAs?$AAv?$AA?9?$AAS?$AAE@ 00000001800d90c8     libucrt:lcidtoname_downlevel.obj
 0003:000190d8       ??_C@_1M@MKJKIKCL@?$AAt?$AAh?$AA?9?$AAT?$AAH@ 00000001800d90d8     libucrt:lcidtoname_downlevel.obj
 0003:000190e8       ??_C@_1M@MFLCCMPB@?$AAt?$AAr?$AA?9?$AAT?$AAR@ 00000001800d90e8     libucrt:lcidtoname_downlevel.obj
 0003:000190f8       ??_C@_1M@OIJHDKJN@?$AAu?$AAr?$AA?9?$AAP?$AAK@ 00000001800d90f8     libucrt:lcidtoname_downlevel.obj
 0003:00019108       ??_C@_1M@LHIPCIEK@?$AAi?$AAd?$AA?9?$AAI?$AAD@ 00000001800d9108     libucrt:lcidtoname_downlevel.obj
 0003:00019118       ??_C@_1M@MFMOBGI@?$AAu?$AAk?$AA?9?$AAU?$AAA@ 00000001800d9118     libucrt:lcidtoname_downlevel.obj
 0003:00019128       ??_C@_1M@OBGLJIPL@?$AAb?$AAe?$AA?9?$AAB?$AAY@ 00000001800d9128     libucrt:lcidtoname_downlevel.obj
 0003:00019138       ??_C@_1M@BCFAJEAD@?$AAs?$AAl?$AA?9?$AAS?$AAI@ 00000001800d9138     libucrt:lcidtoname_downlevel.obj
 0003:00019148       ??_C@_1M@FKFFEDDN@?$AAe?$AAt?$AA?9?$AAE?$AAE@ 00000001800d9148     libucrt:lcidtoname_downlevel.obj
 0003:00019158       ??_C@_1M@KGKKAACI@?$AAl?$AAv?$AA?9?$AAL?$AAV@ 00000001800d9158     libucrt:lcidtoname_downlevel.obj
 0003:00019168       ??_C@_1M@IFGBIJO@?$AAl?$AAt?$AA?9?$AAL?$AAT@ 00000001800d9168     libucrt:lcidtoname_downlevel.obj
 0003:00019178       ??_C@_1M@FGEAHEDM@?$AAf?$AAa?$AA?9?$AAI?$AAR@ 00000001800d9178     libucrt:lcidtoname_downlevel.obj
 0003:00019188       ??_C@_1M@KBMAIBFN@?$AAv?$AAi?$AA?9?$AAV?$AAN@ 00000001800d9188     libucrt:lcidtoname_downlevel.obj
 0003:00019198       ??_C@_1M@GPCBKDJK@?$AAh?$AAy?$AA?9?$AAA?$AAM@ 00000001800d9198     libucrt:lcidtoname_downlevel.obj
 0003:000191a8       ??_C@_1BG@BECMDDJB@?$AAa?$AAz?$AA?9?$AAA?$AAZ?$AA?9?$AAL?$AAa?$AAt?$AAn@ 00000001800d91a8     libucrt:lcidtoname_downlevel.obj
 0003:000191c0       ??_C@_1M@MAOFCAEA@?$AAe?$AAu?$AA?9?$AAE?$AAS@ 00000001800d91c0     libucrt:lcidtoname_downlevel.obj
 0003:000191d0       ??_C@_1M@IGHABKPI@?$AAm?$AAk?$AA?9?$AAM?$AAK@ 00000001800d91d0     libucrt:lcidtoname_downlevel.obj
 0003:000191e0       ??_C@_1M@IAIGNEJG@?$AAt?$AAn?$AA?9?$AAZ?$AAA@ 00000001800d91e0     libucrt:lcidtoname_downlevel.obj
 0003:000191f0       ??_C@_1M@IIJCOJFA@?$AAx?$AAh?$AA?9?$AAZ?$AAA@ 00000001800d91f0     libucrt:lcidtoname_downlevel.obj
 0003:00019200       ??_C@_1M@LGPJHNJH@?$AAz?$AAu?$AA?9?$AAZ?$AAA@ 00000001800d9200     libucrt:lcidtoname_downlevel.obj
 0003:00019210       ??_C@_1M@HOKAOIO@?$AAa?$AAf?$AA?9?$AAZ?$AAA@ 00000001800d9210     libucrt:lcidtoname_downlevel.obj
 0003:00019220       ??_C@_1M@DPCLHLIE@?$AAk?$AAa?$AA?9?$AAG?$AAE@ 00000001800d9220     libucrt:lcidtoname_downlevel.obj
 0003:00019230       ??_C@_1M@BLKMHJBI@?$AAf?$AAo?$AA?9?$AAF?$AAO@ 00000001800d9230     libucrt:lcidtoname_downlevel.obj
 0003:00019240       ??_C@_1M@LGGJAPPB@?$AAh?$AAi?$AA?9?$AAI?$AAN@ 00000001800d9240     libucrt:lcidtoname_downlevel.obj
 0003:00019250       ??_C@_1M@FIKPIHFE@?$AAm?$AAt?$AA?9?$AAM?$AAT@ 00000001800d9250     libucrt:lcidtoname_downlevel.obj
 0003:00019260       ??_C@_1M@HEGGPBFA@?$AAs?$AAe?$AA?9?$AAN?$AAO@ 00000001800d9260     libucrt:lcidtoname_downlevel.obj
 0003:00019270       ??_C@_1M@EIBJEEPA@?$AAm?$AAs?$AA?9?$AAM?$AAY@ 00000001800d9270     libucrt:lcidtoname_downlevel.obj
 0003:00019280       ??_C@_1M@FHLBGMPP@?$AAk?$AAk?$AA?9?$AAK?$AAZ@ 00000001800d9280     libucrt:lcidtoname_downlevel.obj
 0003:00019290       ??_C@_1M@NGJJLCGI@?$AAk?$AAy?$AA?9?$AAK?$AAG@ 00000001800d9290     libucrt:lcidtoname_downlevel.obj
 0003:000192a0       ??_C@_1M@GIENNBFC@?$AAs?$AAw?$AA?9?$AAK?$AAE@ 00000001800d92a0     libucrt:lcidtoname_downlevel.obj
 0003:000192b0       ??_C@_1BG@NDGMJIMJ@?$AAu?$AAz?$AA?9?$AAU?$AAZ?$AA?9?$AAL?$AAa?$AAt?$AAn@ 00000001800d92b0     libucrt:lcidtoname_downlevel.obj
 0003:000192c8       ??_C@_1M@IDCCIHBC@?$AAt?$AAt?$AA?9?$AAR?$AAU@ 00000001800d92c8     libucrt:lcidtoname_downlevel.obj
 0003:000192d8       ??_C@_1M@LOICPMOJ@?$AAb?$AAn?$AA?9?$AAI?$AAN@ 00000001800d92d8     libucrt:lcidtoname_downlevel.obj
 0003:000192e8       ??_C@_1M@KPKKNEAH@?$AAp?$AAa?$AA?9?$AAI?$AAN@ 00000001800d92e8     libucrt:lcidtoname_downlevel.obj
 0003:000192f8       ??_C@_1M@PJGPPBOG@?$AAg?$AAu?$AA?9?$AAI?$AAN@ 00000001800d92f8     libucrt:lcidtoname_downlevel.obj
 0003:00019308       ??_C@_1M@KMKMOPHI@?$AAt?$AAa?$AA?9?$AAI?$AAN@ 00000001800d9308     libucrt:lcidtoname_downlevel.obj
 0003:00019318       ??_C@_1M@KFEHEPAC@?$AAt?$AAe?$AA?9?$AAI?$AAN@ 00000001800d9318     libucrt:lcidtoname_downlevel.obj
 0003:00019328       ??_C@_1M@CDCLMGHI@?$AAk?$AAn?$AA?9?$AAI?$AAN@ 00000001800d9328     libucrt:lcidtoname_downlevel.obj
 0003:00019338       ??_C@_1M@MIODLDKF@?$AAm?$AAl?$AA?9?$AAI?$AAN@ 00000001800d9338     libucrt:lcidtoname_downlevel.obj
 0003:00019348       ??_C@_1M@PBIEACPO@?$AAm?$AAr?$AA?9?$AAI?$AAN@ 00000001800d9348     libucrt:lcidtoname_downlevel.obj
 0003:00019358       ??_C@_1M@NIDEAGPH@?$AAs?$AAa?$AA?9?$AAI?$AAN@ 00000001800d9358     libucrt:lcidtoname_downlevel.obj
 0003:00019368       ??_C@_1M@FHIHCBIO@?$AAm?$AAn?$AA?9?$AAM?$AAN@ 00000001800d9368     libucrt:lcidtoname_downlevel.obj
 0003:00019378       ??_C@_1M@JAIJPENP@?$AAc?$AAy?$AA?9?$AAG?$AAB@ 00000001800d9378     libucrt:lcidtoname_downlevel.obj
 0003:00019388       ??_C@_1M@PHGFBEPN@?$AAg?$AAl?$AA?9?$AAE?$AAS@ 00000001800d9388     libucrt:lcidtoname_downlevel.obj
 0003:00019398       ??_C@_1O@KPIPDNCP@?$AAk?$AAo?$AAk?$AA?9?$AAI?$AAN@ 00000001800d9398     libucrt:lcidtoname_downlevel.obj
 0003:000193a8       ??_C@_1O@KNHJLDJA@?$AAs?$AAy?$AAr?$AA?9?$AAS?$AAY@ 00000001800d93a8     libucrt:lcidtoname_downlevel.obj
 0003:000193b8       ??_C@_1O@MKEKBLAH@?$AAd?$AAi?$AAv?$AA?9?$AAM?$AAV@ 00000001800d93b8     libucrt:lcidtoname_downlevel.obj
 0003:000193c8       ??_C@_1O@OHDCKDDF@?$AAq?$AAu?$AAz?$AA?9?$AAB?$AAO@ 00000001800d93c8     libucrt:lcidtoname_downlevel.obj
 0003:000193d8       ??_C@_1M@LEPJNLFD@?$AAn?$AAs?$AA?9?$AAZ?$AAA@ 00000001800d93d8     libucrt:lcidtoname_downlevel.obj
 0003:000193e8       ??_C@_1M@OMLEIIJB@?$AAm?$AAi?$AA?9?$AAN?$AAZ@ 00000001800d93e8     libucrt:lcidtoname_downlevel.obj
 0003:000193f8       ??_C@_1M@PMPEAILG@?$AAa?$AAr?$AA?9?$AAI?$AAQ@ 00000001800d93f8     libucrt:lcidtoname_downlevel.obj
 0003:00019408       ??_C@_1M@CNKPNOEE@?$AAd?$AAe?$AA?9?$AAC?$AAH@ 00000001800d9408     libucrt:lcidtoname_downlevel.obj
 0003:00019418       ??_C@_1M@LKMGMLKO@?$AAe?$AAn?$AA?9?$AAG?$AAB@ 00000001800d9418     libucrt:lcidtoname_downlevel.obj
 0003:00019428       ??_C@_1M@PGKJFFGL@?$AAe?$AAs?$AA?9?$AAM?$AAX@ 00000001800d9428     libucrt:lcidtoname_downlevel.obj
 0003:00019438       ??_C@_1M@DNNANBDC@?$AAf?$AAr?$AA?9?$AAB?$AAE@ 00000001800d9438     libucrt:lcidtoname_downlevel.obj
 0003:00019448       ??_C@_1M@HLGMDFHM@?$AAi?$AAt?$AA?9?$AAC?$AAH@ 00000001800d9448     libucrt:lcidtoname_downlevel.obj
 0003:00019458       ??_C@_1M@CLLBGJH@?$AAn?$AAl?$AA?9?$AAB?$AAE@ 00000001800d9458     libucrt:lcidtoname_downlevel.obj
 0003:00019468       ??_C@_1M@BODBOGLF@?$AAn?$AAn?$AA?9?$AAN?$AAO@ 00000001800d9468     libucrt:lcidtoname_downlevel.obj
 0003:00019478       ??_C@_1M@HFFAHKAD@?$AAp?$AAt?$AA?9?$AAP?$AAT@ 00000001800d9478     libucrt:lcidtoname_downlevel.obj
 0003:00019488       ??_C@_1BG@LNOAKHIE@?$AAs?$AAr?$AA?9?$AAS?$AAP?$AA?9?$AAL?$AAa?$AAt?$AAn@ 00000001800d9488     libucrt:lcidtoname_downlevel.obj
 0003:000194a0       ??_C@_1M@HBMHBGAK@?$AAs?$AAv?$AA?9?$AAF?$AAI@ 00000001800d94a0     libucrt:lcidtoname_downlevel.obj
 0003:000194b0       ??_C@_1BG@DGCJGJBE@?$AAa?$AAz?$AA?9?$AAA?$AAZ?$AA?9?$AAC?$AAy?$AAr?$AAl@ 00000001800d94b0     libucrt:lcidtoname_downlevel.obj
 0003:000194c8       ??_C@_1M@KEJDAAHB@?$AAs?$AAe?$AA?9?$AAS?$AAE@ 00000001800d94c8     libucrt:lcidtoname_downlevel.obj
 0003:000194d8       ??_C@_1M@HEIBJJAD@?$AAm?$AAs?$AA?9?$AAB?$AAN@ 00000001800d94d8     libucrt:lcidtoname_downlevel.obj
 0003:000194e8       ??_C@_1BG@PBGJMCEM@?$AAu?$AAz?$AA?9?$AAU?$AAZ?$AA?9?$AAC?$AAy?$AAr?$AAl@ 00000001800d94e8     libucrt:lcidtoname_downlevel.obj
 0003:00019500       ??_C@_1O@LAOBCMDF@?$AAq?$AAu?$AAz?$AA?9?$AAE?$AAC@ 00000001800d9500     libucrt:lcidtoname_downlevel.obj
 0003:00019510       ??_C@_1M@POEEMAIO@?$AAa?$AAr?$AA?9?$AAE?$AAG@ 00000001800d9510     libucrt:lcidtoname_downlevel.obj
 0003:00019520       ??_C@_1M@EFAKDEDL@?$AAz?$AAh?$AA?9?$AAH?$AAK@ 00000001800d9520     libucrt:lcidtoname_downlevel.obj
 0003:00019530       ??_C@_1M@HKKIJHGI@?$AAd?$AAe?$AA?9?$AAA?$AAT@ 00000001800d9530     libucrt:lcidtoname_downlevel.obj
 0003:00019540       ??_C@_1M@KBFBEHJF@?$AAe?$AAn?$AA?9?$AAA?$AAU@ 00000001800d9540     libucrt:lcidtoname_downlevel.obj
 0003:00019550       ??_C@_1M@MNPLFAAH@?$AAe?$AAs?$AA?9?$AAE?$AAS@ 00000001800d9550     libucrt:lcidtoname_downlevel.obj
 0003:00019560       ??_C@_1M@HJOOJFMA@?$AAf?$AAr?$AA?9?$AAC?$AAA@ 00000001800d9560     libucrt:lcidtoname_downlevel.obj
 0003:00019570       ??_C@_1BG@JPOFPNAB@?$AAs?$AAr?$AA?9?$AAS?$AAP?$AA?9?$AAC?$AAy?$AAr?$AAl@ 00000001800d9570     libucrt:lcidtoname_downlevel.obj
 0003:00019588       ??_C@_1M@LNFOCMOB@?$AAs?$AAe?$AA?9?$AAF?$AAI@ 00000001800d9588     libucrt:lcidtoname_downlevel.obj
 0003:00019598       ??_C@_1O@MGJBOAMB@?$AAq?$AAu?$AAz?$AA?9?$AAP?$AAE@ 00000001800d9598     libucrt:lcidtoname_downlevel.obj
 0003:000195a8       ??_C@_1M@GJINLBOK@?$AAa?$AAr?$AA?9?$AAL?$AAY@ 00000001800d95a8     libucrt:lcidtoname_downlevel.obj
 0003:000195b8       ??_C@_1M@GGMNHJNL@?$AAz?$AAh?$AA?9?$AAS?$AAG@ 00000001800d95b8     libucrt:lcidtoname_downlevel.obj
 0003:000195c8       ??_C@_1M@HOIKODND@?$AAd?$AAe?$AA?9?$AAL?$AAU@ 00000001800d95c8     libucrt:lcidtoname_downlevel.obj
 0003:000195d8       ??_C@_1M@DDOCCGFG@?$AAe?$AAn?$AA?9?$AAC?$AAA@ 00000001800d95d8     libucrt:lcidtoname_downlevel.obj
 0003:000195e8       ??_C@_1M@BNOEMJLF@?$AAe?$AAs?$AA?9?$AAG?$AAT@ 00000001800d95e8     libucrt:lcidtoname_downlevel.obj
 0003:000195f8       ??_C@_1M@EOGNKEK@?$AAf?$AAr?$AA?9?$AAC?$AAH@ 00000001800d95f8     libucrt:lcidtoname_downlevel.obj
 0003:00019608       ??_C@_1M@FLIDJFHL@?$AAh?$AAr?$AA?9?$AAB?$AAA@ 00000001800d9608     libucrt:lcidtoname_downlevel.obj
 0003:00019618       ??_C@_1O@FMCELNAJ@?$AAs?$AAm?$AAj?$AA?9?$AAN?$AAO@ 00000001800d9618     libucrt:lcidtoname_downlevel.obj
 0003:00019628       ??_C@_1M@JHGLJMGJ@?$AAa?$AAr?$AA?9?$AAD?$AAZ@ 00000001800d9628     libucrt:lcidtoname_downlevel.obj
 0003:00019638       ??_C@_1M@JKKFDCNP@?$AAz?$AAh?$AA?9?$AAM?$AAO@ 00000001800d9638     libucrt:lcidtoname_downlevel.obj
 0003:00019648       ??_C@_1M@GEEFALPE@?$AAd?$AAe?$AA?9?$AAL?$AAI@ 00000001800d9648     libucrt:lcidtoname_downlevel.obj
 0003:00019658       ??_C@_1M@IGEOFBG@?$AAe?$AAn?$AA?9?$AAN?$AAZ@ 00000001800d9658     libucrt:lcidtoname_downlevel.obj
 0003:00019668       ??_C@_1M@KDBONEHP@?$AAe?$AAs?$AA?9?$AAC?$AAR@ 00000001800d9668     libucrt:lcidtoname_downlevel.obj
 0003:00019678       ??_C@_1M@FHMDOHNN@?$AAf?$AAr?$AA?9?$AAL?$AAU@ 00000001800d9678     libucrt:lcidtoname_downlevel.obj
 0003:00019688       ??_C@_1BG@NFKKMAFG@?$AAb?$AAs?$AA?9?$AAB?$AAA?$AA?9?$AAL?$AAa?$AAt?$AAn@ 00000001800d9688     libucrt:lcidtoname_downlevel.obj
 0003:000196a0       ??_C@_1O@IMNBEMCI@?$AAs?$AAm?$AAj?$AA?9?$AAS?$AAE@ 00000001800d96a0     libucrt:lcidtoname_downlevel.obj
 0003:000196b0       ??_C@_1M@DHHMBNDP@?$AAa?$AAr?$AA?9?$AAM?$AAA@ 00000001800d96b0     libucrt:lcidtoname_downlevel.obj
 0003:000196c0       ??_C@_1M@BNBLJCGH@?$AAe?$AAn?$AA?9?$AAI?$AAE@ 00000001800d96c0     libucrt:lcidtoname_downlevel.obj
 0003:000196d0       ??_C@_1M@GEPAFMDL@?$AAe?$AAs?$AA?9?$AAP?$AAA@ 00000001800d96d0     libucrt:lcidtoname_downlevel.obj
 0003:000196e0       ??_C@_1M@OJONDMDL@?$AAf?$AAr?$AA?9?$AAM?$AAC@ 00000001800d96e0     libucrt:lcidtoname_downlevel.obj
 0003:000196f0       ??_C@_1BG@OBCNFJB@?$AAs?$AAr?$AA?9?$AAB?$AAA?$AA?9?$AAL?$AAa?$AAt?$AAn@ 00000001800d96f0     libucrt:lcidtoname_downlevel.obj
 0003:00019708       ??_C@_1O@KEMEEGPO@?$AAs?$AAm?$AAa?$AA?9?$AAN?$AAO@ 00000001800d9708     libucrt:lcidtoname_downlevel.obj
 0003:00019718       ??_C@_1M@ELMGFODK@?$AAa?$AAr?$AA?9?$AAT?$AAN@ 00000001800d9718     libucrt:lcidtoname_downlevel.obj
 0003:00019728       ??_C@_1M@BHDLHFAF@?$AAe?$AAn?$AA?9?$AAZ?$AAA@ 00000001800d9728     libucrt:lcidtoname_downlevel.obj
 0003:00019738       ??_C@_1M@BMGIGLIF@?$AAe?$AAs?$AA?9?$AAD?$AAO@ 00000001800d9738     libucrt:lcidtoname_downlevel.obj
 0003:00019748       ??_C@_1BG@CMBHIPBE@?$AAs?$AAr?$AA?9?$AAB?$AAA?$AA?9?$AAC?$AAy?$AAr?$AAl@ 00000001800d9748     libucrt:lcidtoname_downlevel.obj
 0003:00019760       ??_C@_1O@HEDBLHNP@?$AAs?$AAm?$AAa?$AA?9?$AAS?$AAE@ 00000001800d9760     libucrt:lcidtoname_downlevel.obj
 0003:00019770       ??_C@_1M@DAGCADIM@?$AAa?$AAr?$AA?9?$AAO?$AAM@ 00000001800d9770     libucrt:lcidtoname_downlevel.obj
 0003:00019780       ??_C@_1M@FODLMICG@?$AAe?$AAn?$AA?9?$AAJ?$AAM@ 00000001800d9780     libucrt:lcidtoname_downlevel.obj
 0003:00019790       ??_C@_1M@DNMLCIHB@?$AAe?$AAs?$AA?9?$AAV?$AAE@ 00000001800d9790     libucrt:lcidtoname_downlevel.obj
 0003:000197a0       ??_C@_1O@EOKHMKJK@?$AAs?$AAm?$AAs?$AA?9?$AAF?$AAI@ 00000001800d97a0     libucrt:lcidtoname_downlevel.obj
 0003:000197b0       ??_C@_1M@CAFJMKOF@?$AAa?$AAr?$AA?9?$AAY?$AAE@ 00000001800d97b0     libucrt:lcidtoname_downlevel.obj
 0003:000197c0       ??_C@_1M@CBFHIJLI@?$AAe?$AAn?$AA?9?$AAC?$AAB@ 00000001800d97c0     libucrt:lcidtoname_downlevel.obj
 0003:000197d0       ??_C@_1M@BGNFLDN@?$AAe?$AAs?$AA?9?$AAC?$AAO@ 00000001800d97d0     libucrt:lcidtoname_downlevel.obj
 0003:000197e0       ??_C@_1O@JMPHMAMC@?$AAs?$AAm?$AAn?$AA?9?$AAF?$AAI@ 00000001800d97e0     libucrt:lcidtoname_downlevel.obj
 0003:000197f0       ??_C@_1M@JLANABKE@?$AAa?$AAr?$AA?9?$AAS?$AAY@ 00000001800d97f0     libucrt:lcidtoname_downlevel.obj
 0003:00019800       ??_C@_1M@HPKGCFGN@?$AAe?$AAn?$AA?9?$AAB?$AAZ@ 00000001800d9800     libucrt:lcidtoname_downlevel.obj
 0003:00019810       ??_C@_1M@OLJCMLGM@?$AAe?$AAs?$AA?9?$AAP?$AAE@ 00000001800d9810     libucrt:lcidtoname_downlevel.obj
 0003:00019820       ??_C@_1M@MKKGFKLE@?$AAa?$AAr?$AA?9?$AAJ?$AAO@ 00000001800d9820     libucrt:lcidtoname_downlevel.obj
 0003:00019830       ??_C@_1M@EKPGLDNI@?$AAe?$AAn?$AA?9?$AAT?$AAT@ 00000001800d9830     libucrt:lcidtoname_downlevel.obj
 0003:00019840       ??_C@_1M@OONGHFHE@?$AAe?$AAs?$AA?9?$AAA?$AAR@ 00000001800d9840     libucrt:lcidtoname_downlevel.obj
 0003:00019850       ??_C@_1M@OOJFGBHE@?$AAa?$AAr?$AA?9?$AAL?$AAB@ 00000001800d9850     libucrt:lcidtoname_downlevel.obj
 0003:00019860       ??_C@_1M@GCEJHNEG@?$AAe?$AAn?$AA?9?$AAZ?$AAW@ 00000001800d9860     libucrt:lcidtoname_downlevel.obj
 0003:00019870       ??_C@_1M@JNOCAHJI@?$AAe?$AAs?$AA?9?$AAE?$AAC@ 00000001800d9870     libucrt:lcidtoname_downlevel.obj
 0003:00019880       ??_C@_1M@JEFHPGGB@?$AAa?$AAr?$AA?9?$AAK?$AAW@ 00000001800d9880     libucrt:lcidtoname_downlevel.obj
 0003:00019890       ??_C@_1M@MLKIBJOJ@?$AAe?$AAn?$AA?9?$AAP?$AAH@ 00000001800d9890     libucrt:lcidtoname_downlevel.obj
 0003:000198a0       ??_C@_1M@BDNIPEND@?$AAe?$AAs?$AA?9?$AAC?$AAL@ 00000001800d98a0     libucrt:lcidtoname_downlevel.obj
 0003:000198b0       ??_C@_1M@MPNMEKBD@?$AAa?$AAr?$AA?9?$AAA?$AAE@ 00000001800d98b0     libucrt:lcidtoname_downlevel.obj
 0003:000198c0       ??_C@_1M@KBJALCPI@?$AAe?$AAs?$AA?9?$AAU?$AAY@ 00000001800d98c0     libucrt:lcidtoname_downlevel.obj
 0003:000198d0       ??_C@_1M@LLCCOAGA@?$AAa?$AAr?$AA?9?$AAB?$AAH@ 00000001800d98d0     libucrt:lcidtoname_downlevel.obj
 0003:000198e0       ??_C@_1M@PBFNCDEL@?$AAe?$AAs?$AA?9?$AAP?$AAY@ 00000001800d98e0     libucrt:lcidtoname_downlevel.obj
 0003:000198f0       ??_C@_1M@EDGINPNP@?$AAa?$AAr?$AA?9?$AAQ?$AAA@ 00000001800d98f0     libucrt:lcidtoname_downlevel.obj
 0003:00019900       ??_C@_1M@MKDBIIJI@?$AAe?$AAs?$AA?9?$AAB?$AAO@ 00000001800d9900     libucrt:lcidtoname_downlevel.obj
 0003:00019910       ??_C@_1M@CPKKEBLD@?$AAe?$AAs?$AA?9?$AAS?$AAV@ 00000001800d9910     libucrt:lcidtoname_downlevel.obj
 0003:00019920       ??_C@_1M@NDBGMMJL@?$AAe?$AAs?$AA?9?$AAH?$AAN@ 00000001800d9920     libucrt:lcidtoname_downlevel.obj
 0003:00019930       ??_C@_1M@JIJIBHDP@?$AAe?$AAs?$AA?9?$AAN?$AAI@ 00000001800d9930     libucrt:lcidtoname_downlevel.obj
 0003:00019940       ??_C@_1M@CGFMKEEK@?$AAe?$AAs?$AA?9?$AAP?$AAR@ 00000001800d9940     libucrt:lcidtoname_downlevel.obj
 0003:00019950       ??_C@_1O@ICJHKIIK@?$AAz?$AAh?$AA?9?$AAC?$AAH?$AAT@ 00000001800d9950     libucrt:lcidtoname_downlevel.obj
 0003:00019960       ??_C@_15CLNEJCE@?$AAs?$AAr@ 00000001800d9960     libucrt:lcidtoname_downlevel.obj
 0003:0001a7b0       ??_C@_1M@KAHEKEIG@?$AAa?$AAf?$AA?9?$AAz?$AAa@ 00000001800da7b0     libucrt:lcidtoname_downlevel.obj
 0003:0001a7c0       ??_C@_1M@GIECOABL@?$AAa?$AAr?$AA?9?$AAa?$AAe@ 00000001800da7c0     libucrt:lcidtoname_downlevel.obj
 0003:0001a7d0       ??_C@_1M@BMLMEKGI@?$AAa?$AAr?$AA?9?$AAb?$AAh@ 00000001800da7d0     libucrt:lcidtoname_downlevel.obj
 0003:0001a7e0       ??_C@_1M@DAPFDGGB@?$AAa?$AAr?$AA?9?$AAd?$AAz@ 00000001800da7e0     libucrt:lcidtoname_downlevel.obj
 0003:0001a7f0       ??_C@_1M@FJNKGKIG@?$AAa?$AAr?$AA?9?$AAe?$AAg@ 00000001800da7f0     libucrt:lcidtoname_downlevel.obj
 0003:0001a800       ??_C@_1M@FLGKKCLO@?$AAa?$AAr?$AA?9?$AAi?$AAq@ 00000001800da800     libucrt:lcidtoname_downlevel.obj
 0003:0001a810       ??_C@_1M@GNDIPALM@?$AAa?$AAr?$AA?9?$AAj?$AAo@ 00000001800da810     libucrt:lcidtoname_downlevel.obj
 0003:0001a820       ??_C@_1M@DDMJFMGJ@?$AAa?$AAr?$AA?9?$AAk?$AAw@ 00000001800da820     libucrt:lcidtoname_downlevel.obj
 0003:0001a830       ??_C@_1M@EJALMLHM@?$AAa?$AAr?$AA?9?$AAl?$AAb@ 00000001800da830     libucrt:lcidtoname_downlevel.obj
 0003:0001a840       ??_C@_1M@MOBDBLOC@?$AAa?$AAr?$AA?9?$AAl?$AAy@ 00000001800da840     libucrt:lcidtoname_downlevel.obj
 0003:0001a850       ??_C@_1M@JAOCLHDH@?$AAa?$AAr?$AA?9?$AAm?$AAa@ 00000001800da850     libucrt:lcidtoname_downlevel.obj
 0003:0001a860       ??_C@_1M@JHPMKJIE@?$AAa?$AAr?$AA?9?$AAo?$AAm@ 00000001800da860     libucrt:lcidtoname_downlevel.obj
 0003:0001a870       ??_C@_1M@OEPGHFNH@?$AAa?$AAr?$AA?9?$AAq?$AAa@ 00000001800da870     libucrt:lcidtoname_downlevel.obj
 0003:0001a880       ??_C@_1M@KJDONENM@?$AAa?$AAr?$AA?9?$AAs?$AAa@ 00000001800da880     libucrt:lcidtoname_downlevel.obj
 0003:0001a890       ??_C@_1M@DMJDKLKM@?$AAa?$AAr?$AA?9?$AAs?$AAy@ 00000001800da890     libucrt:lcidtoname_downlevel.obj
 0003:0001a8a0       ??_C@_1M@OMFIPEDC@?$AAa?$AAr?$AA?9?$AAt?$AAn@ 00000001800da8a0     libucrt:lcidtoname_downlevel.obj
 0003:0001a8b0       ??_C@_1M@IHMHGAON@?$AAa?$AAr?$AA?9?$AAy?$AAe@ 00000001800da8b0     libucrt:lcidtoname_downlevel.obj
 0003:0001a8c0       ??_C@_1BG@KDCPGJGB@?$AAa?$AAz?$AA?9?$AAa?$AAz?$AA?9?$AAc?$AAy?$AAr?$AAl@ 00000001800da8c0     libucrt:lcidtoname_downlevel.obj
 0003:0001a8d8       ??_C@_1BG@IBCKDDOE@?$AAa?$AAz?$AA?9?$AAa?$AAz?$AA?9?$AAl?$AAa?$AAt?$AAn@ 00000001800da8d8     libucrt:lcidtoname_downlevel.obj
 0003:0001a8f0       ??_C@_1M@EGPFDCPD@?$AAb?$AAe?$AA?9?$AAb?$AAy@ 00000001800da8f0     libucrt:lcidtoname_downlevel.obj
 0003:0001a900       ??_C@_1M@PCMGMCGC@?$AAb?$AAg?$AA?9?$AAb?$AAg@ 00000001800da900     libucrt:lcidtoname_downlevel.obj
 0003:0001a910       ??_C@_1M@BJBMFGOB@?$AAb?$AAn?$AA?9?$AAi?$AAn@ 00000001800da910     libucrt:lcidtoname_downlevel.obj
 0003:0001a920       ??_C@_1BG@EAKMMACD@?$AAb?$AAs?$AA?9?$AAb?$AAa?$AA?9?$AAl?$AAa?$AAt?$AAn@ 00000001800da920     libucrt:lcidtoname_downlevel.obj
 0003:0001a938       ??_C@_1M@KGADAODK@?$AAc?$AAa?$AA?9?$AAe?$AAs@ 00000001800da938     libucrt:lcidtoname_downlevel.obj
 0003:0001a948       ??_C@_1M@COAJPDHI@?$AAc?$AAs?$AA?9?$AAc?$AAz@ 00000001800da948     libucrt:lcidtoname_downlevel.obj
 0003:0001a958       ??_C@_1M@DHBHFONH@?$AAc?$AAy?$AA?9?$AAg?$AAb@ 00000001800da958     libucrt:lcidtoname_downlevel.obj
 0003:0001a968       ??_C@_1M@IMGKELGA@?$AAd?$AAa?$AA?9?$AAd?$AAk@ 00000001800da968     libucrt:lcidtoname_downlevel.obj
 0003:0001a978       ??_C@_1M@NNDGDNGA@?$AAd?$AAe?$AA?9?$AAa?$AAt@ 00000001800da978     libucrt:lcidtoname_downlevel.obj
 0003:0001a988       ??_C@_1M@IKDBHEEM@?$AAd?$AAe?$AA?9?$AAc?$AAh@ 00000001800da988     libucrt:lcidtoname_downlevel.obj
 0003:0001a998       ??_C@_1M@GFFOJMCJ@?$AAd?$AAe?$AA?9?$AAd?$AAe@ 00000001800da998     libucrt:lcidtoname_downlevel.obj
 0003:0001a9a8       ??_C@_1M@MDNLKBPM@?$AAd?$AAe?$AA?9?$AAl?$AAi@ 00000001800da9a8     libucrt:lcidtoname_downlevel.obj
 0003:0001a9b8       ??_C@_1M@NJBEEJNL@?$AAd?$AAe?$AA?9?$AAl?$AAu@ 00000001800da9b8     libucrt:lcidtoname_downlevel.obj
 0003:0001a9c8       ??_C@_1O@GNNELBAP@?$AAd?$AAi?$AAv?$AA?9?$AAm?$AAv@ 00000001800da9c8     libucrt:lcidtoname_downlevel.obj
 0003:0001a9d8       ??_C@_1M@EJLEOGAE@?$AAe?$AAl?$AA?9?$AAg?$AAr@ 00000001800da9d8     libucrt:lcidtoname_downlevel.obj
 0003:0001a9e8       ??_C@_1M@GMPONJN@?$AAe?$AAn?$AA?9?$AAa?$AAu@ 00000001800da9e8     libucrt:lcidtoname_downlevel.obj
 0003:0001a9f8       ??_C@_1M@NIDIIPGF@?$AAe?$AAn?$AA?9?$AAb?$AAz@ 00000001800da9f8     libucrt:lcidtoname_downlevel.obj
 0003:0001aa08       ??_C@_1M@JEHMIMFO@?$AAe?$AAn?$AA?9?$AAc?$AAa@ 00000001800daa08     libucrt:lcidtoname_downlevel.obj
 0003:0001aa18       ??_C@_1M@IGMJCDLA@?$AAe?$AAn?$AA?9?$AAc?$AAb@ 00000001800daa18     libucrt:lcidtoname_downlevel.obj
 0003:0001aa28       ??_C@_1M@BNFIGBKG@?$AAe?$AAn?$AA?9?$AAg?$AAb@ 00000001800daa28     libucrt:lcidtoname_downlevel.obj
 0003:0001aa38       ??_C@_1M@LKIFDIGP@?$AAe?$AAn?$AA?9?$AAi?$AAe@ 00000001800daa38     libucrt:lcidtoname_downlevel.obj
 0003:0001aa48       ??_C@_1M@PJKFGCCO@?$AAe?$AAn?$AA?9?$AAj?$AAm@ 00000001800daa48     libucrt:lcidtoname_downlevel.obj
 0003:0001aa58       ??_C@_1M@KPPKEPBO@?$AAe?$AAn?$AA?9?$AAn?$AAz@ 00000001800daa58     libucrt:lcidtoname_downlevel.obj
 0003:0001aa68       ??_C@_1M@GMDGLDOB@?$AAe?$AAn?$AA?9?$AAp?$AAh@ 00000001800daa68     libucrt:lcidtoname_downlevel.obj
 0003:0001aa78       ??_C@_1M@ONGIBJNA@?$AAe?$AAn?$AA?9?$AAt?$AAt@ 00000001800daa78     libucrt:lcidtoname_downlevel.obj
 0003:0001aa88       ??_C@_1M@LLODPCMM@?$AAe?$AAn?$AA?9?$AAu?$AAs@ 00000001800daa88     libucrt:lcidtoname_downlevel.obj
 0003:0001aa98       ??_C@_1M@LAKFNPAN@?$AAe?$AAn?$AA?9?$AAz?$AAa@ 00000001800daa98     libucrt:lcidtoname_downlevel.obj
 0003:0001aaa8       ??_C@_1M@MFNHNHEO@?$AAe?$AAn?$AA?9?$AAz?$AAw@ 00000001800daaa8     libucrt:lcidtoname_downlevel.obj
 0003:0001aab8       ??_C@_1M@EJEINPHM@?$AAe?$AAs?$AA?9?$AAa?$AAr@ 00000001800daab8     libucrt:lcidtoname_downlevel.obj
 0003:0001aac8       ??_C@_1M@GNKPCCJA@?$AAe?$AAs?$AA?9?$AAb?$AAo@ 00000001800daac8     libucrt:lcidtoname_downlevel.obj
 0003:0001aad8       ??_C@_1M@LEEGFONL@?$AAe?$AAs?$AA?9?$AAc?$AAl@ 00000001800daad8     libucrt:lcidtoname_downlevel.obj
 0003:0001aae8       ??_C@_1M@KGPDPBDF@?$AAe?$AAs?$AA?9?$AAc?$AAo@ 00000001800daae8     libucrt:lcidtoname_downlevel.obj
 0003:0001aaf8       ??_C@_1M@EIAHOHH@?$AAe?$AAs?$AA?9?$AAc?$AAr@ 00000001800daaf8     libucrt:lcidtoname_downlevel.obj
 0003:0001ab08       ??_C@_1M@LLPGMBIN@?$AAe?$AAs?$AA?9?$AAd?$AAo@ 00000001800dab08     libucrt:lcidtoname_downlevel.obj
 0003:0001ab18       ??_C@_1M@DKHMKNJA@?$AAe?$AAs?$AA?9?$AAe?$AAc@ 00000001800dab18     libucrt:lcidtoname_downlevel.obj
 0003:0001ab28       ??_C@_1M@GKGFPKAP@?$AAe?$AAs?$AA?9?$AAe?$AAs@ 00000001800dab28     libucrt:lcidtoname_downlevel.obj
 0003:0001ab38       ??_C@_1M@LKHKGDLN@?$AAe?$AAs?$AA?9?$AAg?$AAt@ 00000001800dab38     libucrt:lcidtoname_downlevel.obj
 0003:0001ab48       ??_C@_1M@HEIIGGJD@?$AAe?$AAs?$AA?9?$AAh?$AAn@ 00000001800dab48     libucrt:lcidtoname_downlevel.obj
 0003:0001ab58       ??_C@_1M@FBDHPPGD@?$AAe?$AAs?$AA?9?$AAm?$AAx@ 00000001800dab58     libucrt:lcidtoname_downlevel.obj
 0003:0001ab68       ??_C@_1M@DPAGLNDH@?$AAe?$AAs?$AA?9?$AAn?$AAi@ 00000001800dab68     libucrt:lcidtoname_downlevel.obj
 0003:0001ab78       ??_C@_1M@MDGOPGDD@?$AAe?$AAs?$AA?9?$AAp?$AAa@ 00000001800dab78     libucrt:lcidtoname_downlevel.obj
 0003:0001ab88       ??_C@_1M@EMAMGBGE@?$AAe?$AAs?$AA?9?$AAp?$AAe@ 00000001800dab88     libucrt:lcidtoname_downlevel.obj
 0003:0001ab98       ??_C@_1M@IBMCAOEC@?$AAe?$AAs?$AA?9?$AAp?$AAr@ 00000001800dab98     libucrt:lcidtoname_downlevel.obj
 0003:0001aba8       ??_C@_1M@FGMDIJED@?$AAe?$AAs?$AA?9?$AAp?$AAy@ 00000001800daba8     libucrt:lcidtoname_downlevel.obj
 0003:0001abb8       ??_C@_1M@IIDEOLLL@?$AAe?$AAs?$AA?9?$AAs?$AAv@ 00000001800dabb8     libucrt:lcidtoname_downlevel.obj
 0003:0001abc8       ??_C@_1M@GAOBIPA@?$AAe?$AAs?$AA?9?$AAu?$AAy@ 00000001800dabc8     libucrt:lcidtoname_downlevel.obj
 0003:0001abd8       ??_C@_1M@JKFFICHJ@?$AAe?$AAs?$AA?9?$AAv?$AAe@ 00000001800dabd8     libucrt:lcidtoname_downlevel.obj
 0003:0001abe8       ??_C@_1M@PNMLOJDF@?$AAe?$AAt?$AA?9?$AAe?$AAe@ 00000001800dabe8     libucrt:lcidtoname_downlevel.obj
 0003:0001abf8       ??_C@_1M@GHHLIKEI@?$AAe?$AAu?$AA?9?$AAe?$AAs@ 00000001800dabf8     libucrt:lcidtoname_downlevel.obj
 0003:0001ac08       ??_C@_1M@PBNONODE@?$AAf?$AAa?$AA?9?$AAi?$AAr@ 00000001800dac08     libucrt:lcidtoname_downlevel.obj
 0003:0001ac18       ??_C@_1M@JEEHPMIL@?$AAf?$AAi?$AA?9?$AAf?$AAi@ 00000001800dac18     libucrt:lcidtoname_downlevel.obj
 0003:0001ac28       ??_C@_1M@LMDCNDBA@?$AAf?$AAo?$AA?9?$AAf?$AAo@ 00000001800dac28     libucrt:lcidtoname_downlevel.obj
 0003:0001ac38       ??_C@_1M@JKEOHLDK@?$AAf?$AAr?$AA?9?$AAb?$AAe@ 00000001800dac38     libucrt:lcidtoname_downlevel.obj
 0003:0001ac48       ??_C@_1M@NOHADPMI@?$AAf?$AAr?$AA?9?$AAc?$AAa@ 00000001800dac48     libucrt:lcidtoname_downlevel.obj
 0003:0001ac58       ??_C@_1M@KDHIHAEC@?$AAf?$AAr?$AA?9?$AAc?$AAh@ 00000001800dac58     libucrt:lcidtoname_downlevel.obj
 0003:0001ac68       ??_C@_1M@MMBBFGAK@?$AAf?$AAr?$AA?9?$AAf?$AAr@ 00000001800dac68     libucrt:lcidtoname_downlevel.obj
 0003:0001ac78       ??_C@_1M@PAFNENNF@?$AAf?$AAr?$AA?9?$AAl?$AAu@ 00000001800dac78     libucrt:lcidtoname_downlevel.obj
 0003:0001ac88       ??_C@_1M@EOHDJGDD@?$AAf?$AAr?$AA?9?$AAm?$AAc@ 00000001800dac88     libucrt:lcidtoname_downlevel.obj
 0003:0001ac98       ??_C@_1M@FAPLLOPF@?$AAg?$AAl?$AA?9?$AAe?$AAs@ 00000001800dac98     libucrt:lcidtoname_downlevel.obj
 0003:0001aca8       ??_C@_1M@FOPBFLOO@?$AAg?$AAu?$AA?9?$AAi?$AAn@ 00000001800daca8     libucrt:lcidtoname_downlevel.obj
 0003:0001acb8       ??_C@_1M@KBMCINPM@?$AAh?$AAe?$AA?9?$AAi?$AAl@ 00000001800dacb8     libucrt:lcidtoname_downlevel.obj
 0003:0001acc8       ??_C@_1M@BBPHKFPJ@?$AAh?$AAi?$AA?9?$AAi?$AAn@ 00000001800dacc8     libucrt:lcidtoname_downlevel.obj
 0003:0001acd8       ??_C@_1M@PMBNDPHD@?$AAh?$AAr?$AA?9?$AAb?$AAa@ 00000001800dacd8     libucrt:lcidtoname_downlevel.obj
 0003:0001ace8       ??_C@_1M@BPCKOEGE@?$AAh?$AAr?$AA?9?$AAh?$AAr@ 00000001800dace8     libucrt:lcidtoname_downlevel.obj
 0003:0001acf8       ??_C@_1M@GACBMHKE@?$AAh?$AAu?$AA?9?$AAh?$AAu@ 00000001800dacf8     libucrt:lcidtoname_downlevel.obj
 0003:0001ad08       ??_C@_1M@MILPAJJC@?$AAh?$AAy?$AA?9?$AAa?$AAm@ 00000001800dad08     libucrt:lcidtoname_downlevel.obj
 0003:0001ad18       ??_C@_1M@BABBICEC@?$AAi?$AAd?$AA?9?$AAi?$AAd@ 00000001800dad18     libucrt:lcidtoname_downlevel.obj
 0003:0001ad28       ??_C@_1M@BIKNHHPF@?$AAi?$AAs?$AA?9?$AAi?$AAs@ 00000001800dad28     libucrt:lcidtoname_downlevel.obj
 0003:0001ad38       ??_C@_1M@NMPCJPHE@?$AAi?$AAt?$AA?9?$AAc?$AAh@ 00000001800dad38     libucrt:lcidtoname_downlevel.obj
 0003:0001ad48       ??_C@_1M@GHKGFEDF@?$AAi?$AAt?$AA?9?$AAi?$AAt@ 00000001800dad48     libucrt:lcidtoname_downlevel.obj
 0003:0001ad58       ??_C@_1M@NIEJCJJA@?$AAj?$AAa?$AA?9?$AAj?$AAp@ 00000001800dad58     libucrt:lcidtoname_downlevel.obj
 0003:0001ad68       ??_C@_1M@JILFNBIM@?$AAk?$AAa?$AA?9?$AAg?$AAe@ 00000001800dad68     libucrt:lcidtoname_downlevel.obj
 0003:0001ad78       ??_C@_1M@PACPMGPH@?$AAk?$AAk?$AA?9?$AAk?$AAz@ 00000001800dad78     libucrt:lcidtoname_downlevel.obj
 0003:0001ad88       ??_C@_1M@IELFGMHA@?$AAk?$AAn?$AA?9?$AAi?$AAn@ 00000001800dad88     libucrt:lcidtoname_downlevel.obj
 0003:0001ad98       ??_C@_1O@IBBJHCH@?$AAk?$AAo?$AAk?$AA?9?$AAi?$AAn@ 00000001800dad98     libucrt:lcidtoname_downlevel.obj
 0003:0001ada8       ??_C@_1M@DMHAEOGC@?$AAk?$AAo?$AA?9?$AAk?$AAr@ 00000001800dada8     libucrt:lcidtoname_downlevel.obj
 0003:0001adb8       ??_C@_1M@HBAHBIGA@?$AAk?$AAy?$AA?9?$AAk?$AAg@ 00000001800dadb8     libucrt:lcidtoname_downlevel.obj
 0003:0001adc8       ??_C@_1M@KPMILCJG@?$AAl?$AAt?$AA?9?$AAl?$AAt@ 00000001800dadc8     libucrt:lcidtoname_downlevel.obj
 0003:0001add8       ??_C@_1M@BDEKKCA@?$AAl?$AAv?$AA?9?$AAl?$AAv@ 00000001800dadd8     libucrt:lcidtoname_downlevel.obj
 0003:0001ade8       ??_C@_1M@ELCKCCJJ@?$AAm?$AAi?$AA?9?$AAn?$AAz@ 00000001800dade8     libucrt:lcidtoname_downlevel.obj
 0003:0001adf8       ??_C@_1M@CBOOLAPA@?$AAm?$AAk?$AA?9?$AAm?$AAk@ 00000001800dadf8     libucrt:lcidtoname_downlevel.obj
 0003:0001ae08       ??_C@_1M@GPHNBJKN@?$AAm?$AAl?$AA?9?$AAi?$AAn@ 00000001800dae08     libucrt:lcidtoname_downlevel.obj
 0003:0001ae18       ??_C@_1M@PABJILIG@?$AAm?$AAn?$AA?9?$AAm?$AAn@ 00000001800dae18     libucrt:lcidtoname_downlevel.obj
 0003:0001ae28       ??_C@_1M@FGBKKIPG@?$AAm?$AAr?$AA?9?$AAi?$AAn@ 00000001800dae28     libucrt:lcidtoname_downlevel.obj
 0003:0001ae38       ??_C@_1M@NDBPDDAL@?$AAm?$AAs?$AA?9?$AAb?$AAn@ 00000001800dae38     libucrt:lcidtoname_downlevel.obj
 0003:0001ae48       ??_C@_1M@OPIHOOPI@?$AAm?$AAs?$AA?9?$AAm?$AAy@ 00000001800dae48     libucrt:lcidtoname_downlevel.obj
 0003:0001ae58       ??_C@_1M@PPDBCNFM@?$AAm?$AAt?$AA?9?$AAm?$AAt@ 00000001800dae58     libucrt:lcidtoname_downlevel.obj
 0003:0001ae68       ??_C@_1M@KDJDKMDD@?$AAn?$AAb?$AA?9?$AAn?$AAo@ 00000001800dae68     libucrt:lcidtoname_downlevel.obj
 0003:0001ae78       ??_C@_1M@KFCFLMJP@?$AAn?$AAl?$AA?9?$AAb?$AAe@ 00000001800dae78     libucrt:lcidtoname_downlevel.obj
 0003:0001ae88       ??_C@_1M@KPOPDDGO@?$AAn?$AAl?$AA?9?$AAn?$AAl@ 00000001800dae88     libucrt:lcidtoname_downlevel.obj
 0003:0001ae98       ??_C@_1M@LJKPEMLN@?$AAn?$AAn?$AA?9?$AAn?$AAo@ 00000001800dae98     libucrt:lcidtoname_downlevel.obj
 0003:0001aea8       ??_C@_1M@BDGHHBFL@?$AAn?$AAs?$AA?9?$AAz?$AAa@ 00000001800daea8     libucrt:lcidtoname_downlevel.obj
 0003:0001aeb8       ??_C@_1M@IDEHOAP@?$AAp?$AAa?$AA?9?$AAi?$AAn@ 00000001800daeb8     libucrt:lcidtoname_downlevel.obj
 0003:0001aec8       ??_C@_1M@HDBKGOGH@?$AAp?$AAl?$AA?9?$AAp?$AAl@ 00000001800daec8     libucrt:lcidtoname_downlevel.obj
 0003:0001aed8       ??_C@_1M@LJLLCMEH@?$AAp?$AAt?$AA?9?$AAb?$AAr@ 00000001800daed8     libucrt:lcidtoname_downlevel.obj
 0003:0001aee8       ??_C@_1M@NCMONAAL@?$AAp?$AAt?$AA?9?$AAp?$AAt@ 00000001800daee8     libucrt:lcidtoname_downlevel.obj
 0003:0001aef8       ??_C@_1O@EAKMAJDN@?$AAq?$AAu?$AAz?$AA?9?$AAb?$AAo@ 00000001800daef8     libucrt:lcidtoname_downlevel.obj
 0003:0001af08       ??_C@_1O@BHHPIGDN@?$AAq?$AAu?$AAz?$AA?9?$AAe?$AAc@ 00000001800daf08     libucrt:lcidtoname_downlevel.obj
 0003:0001af18       ??_C@_1O@GBAPEKMJ@?$AAq?$AAu?$AAz?$AA?9?$AAp?$AAe@ 00000001800daf18     libucrt:lcidtoname_downlevel.obj
 0003:0001af28       ??_C@_1M@CLGLEFBO@?$AAr?$AAo?$AA?9?$AAr?$AAo@ 00000001800daf28     libucrt:lcidtoname_downlevel.obj
 0003:0001af38       ??_C@_1M@CEEDODME@?$AAr?$AAu?$AA?9?$AAr?$AAu@ 00000001800daf38     libucrt:lcidtoname_downlevel.obj
 0003:0001af48       ??_C@_1M@HPKKKMPP@?$AAs?$AAa?$AA?9?$AAi?$AAn@ 00000001800daf48     libucrt:lcidtoname_downlevel.obj
 0003:0001af58       ??_C@_1M@BKMAIGOJ@?$AAs?$AAe?$AA?9?$AAf?$AAi@ 00000001800daf58     libucrt:lcidtoname_downlevel.obj
 0003:0001af68       ??_C@_1M@NDPIFLFI@?$AAs?$AAe?$AA?9?$AAn?$AAo@ 00000001800daf68     libucrt:lcidtoname_downlevel.obj
 0003:0001af78       ??_C@_1M@DANKKHJ@?$AAs?$AAe?$AA?9?$AAs?$AAe@ 00000001800daf78     libucrt:lcidtoname_downlevel.obj
 0003:0001af88       ??_C@_1M@PNBLONPJ@?$AAs?$AAk?$AA?9?$AAs?$AAk@ 00000001800daf88     libucrt:lcidtoname_downlevel.obj
 0003:0001af98       ??_C@_1M@LFMODOAL@?$AAs?$AAl?$AA?9?$AAs?$AAi@ 00000001800daf98     libucrt:lcidtoname_downlevel.obj
 0003:0001afa8       ??_C@_1O@DFKOMPG@?$AAs?$AAm?$AAa?$AA?9?$AAn?$AAo@ 00000001800dafa8     libucrt:lcidtoname_downlevel.obj
 0003:0001afb8       ??_C@_1O@NDKPBNNH@?$AAs?$AAm?$AAa?$AA?9?$AAs?$AAe@ 00000001800dafb8     libucrt:lcidtoname_downlevel.obj
 0003:0001afc8       ??_C@_1O@PLLKBHAB@?$AAs?$AAm?$AAj?$AA?9?$AAn?$AAo@ 00000001800dafc8     libucrt:lcidtoname_downlevel.obj
 0003:0001afd8       ??_C@_1O@CLEPOGCA@?$AAs?$AAm?$AAj?$AA?9?$AAs?$AAe@ 00000001800dafd8     libucrt:lcidtoname_downlevel.obj
 0003:0001afe8       ??_C@_1O@DLGJGKMK@?$AAs?$AAm?$AAn?$AA?9?$AAf?$AAi@ 00000001800dafe8     libucrt:lcidtoname_downlevel.obj
 0003:0001aff8       ??_C@_1O@OJDJGAJC@?$AAs?$AAm?$AAs?$AA?9?$AAf?$AAi@ 00000001800daff8     libucrt:lcidtoname_downlevel.obj
 0003:0001b008       ??_C@_1M@BOFOGHPB@?$AAs?$AAq?$AA?9?$AAa?$AAl@ 00000001800db008     libucrt:lcidtoname_downlevel.obj
 0003:0001b018       ??_C@_1BG@LJBBIPGB@?$AAs?$AAr?$AA?9?$AAb?$AAa?$AA?9?$AAc?$AAy?$AAr?$AAl@ 00000001800db018     libucrt:lcidtoname_downlevel.obj
 0003:0001b030       ??_C@_1BG@JLBENFOE@?$AAs?$AAr?$AA?9?$AAb?$AAa?$AA?9?$AAl?$AAa?$AAt?$AAn@ 00000001800db030     libucrt:lcidtoname_downlevel.obj
 0003:0001b048       ??_C@_1BG@KODPNHE@?$AAs?$AAr?$AA?9?$AAs?$AAp?$AA?9?$AAc?$AAy?$AAr?$AAl@ 00000001800db048     libucrt:lcidtoname_downlevel.obj
 0003:0001b060       ??_C@_1BG@CIOGKHPB@?$AAs?$AAr?$AA?9?$AAs?$AAp?$AA?9?$AAl?$AAa?$AAt?$AAn@ 00000001800db060     libucrt:lcidtoname_downlevel.obj
 0003:0001b078       ??_C@_1M@NGFJLMAC@?$AAs?$AAv?$AA?9?$AAf?$AAi@ 00000001800db078     libucrt:lcidtoname_downlevel.obj
 0003:0001b088       ??_C@_1M@MPJEJAJC@?$AAs?$AAv?$AA?9?$AAs?$AAe@ 00000001800db088     libucrt:lcidtoname_downlevel.obj
 0003:0001b098       ??_C@_1M@MPNDHLFK@?$AAs?$AAw?$AA?9?$AAk?$AAe@ 00000001800db098     libucrt:lcidtoname_downlevel.obj
 0003:0001b0a8       ??_C@_1O@KOHBJJI@?$AAs?$AAy?$AAr?$AA?9?$AAs?$AAy@ 00000001800db0a8     libucrt:lcidtoname_downlevel.obj
 0003:0001b0b8       ??_C@_1M@LDCEFHA@?$AAt?$AAa?$AA?9?$AAi?$AAn@ 00000001800db0b8     libucrt:lcidtoname_downlevel.obj
 0003:0001b0c8       ??_C@_1M@CNJOFAK@?$AAt?$AAe?$AA?9?$AAi?$AAn@ 00000001800db0c8     libucrt:lcidtoname_downlevel.obj
 0003:0001b0d8       ??_C@_1M@GNAECACD@?$AAt?$AAh?$AA?9?$AAt?$AAh@ 00000001800db0d8     libucrt:lcidtoname_downlevel.obj
 0003:0001b0e8       ??_C@_1M@CHBIHOJO@?$AAt?$AAn?$AA?9?$AAz?$AAa@ 00000001800db0e8     libucrt:lcidtoname_downlevel.obj
 0003:0001b0f8       ??_C@_1M@GCCMIGPJ@?$AAt?$AAr?$AA?9?$AAt?$AAr@ 00000001800db0f8     libucrt:lcidtoname_downlevel.obj
 0003:0001b108       ??_C@_1M@CELMCNBK@?$AAt?$AAt?$AA?9?$AAr?$AAu@ 00000001800db108     libucrt:lcidtoname_downlevel.obj
 0003:0001b118       ??_C@_1M@KLMCELGA@?$AAu?$AAk?$AA?9?$AAu?$AAa@ 00000001800db118     libucrt:lcidtoname_downlevel.obj
 0003:0001b128       ??_C@_1M@EPAJJAJF@?$AAu?$AAr?$AA?9?$AAp?$AAk@ 00000001800db128     libucrt:lcidtoname_downlevel.obj
 0003:0001b138       ??_C@_1BG@GEGPMCDJ@?$AAu?$AAz?$AA?9?$AAu?$AAz?$AA?9?$AAc?$AAy?$AAr?$AAl@ 00000001800db138     libucrt:lcidtoname_downlevel.obj
 0003:0001b150       ??_C@_1BG@EGGKJILM@?$AAu?$AAz?$AA?9?$AAu?$AAz?$AA?9?$AAl?$AAa?$AAt?$AAn@ 00000001800db150     libucrt:lcidtoname_downlevel.obj
 0003:0001b168       ??_C@_1M@GFOCLFF@?$AAv?$AAi?$AA?9?$AAv?$AAn@ 00000001800db168     libucrt:lcidtoname_downlevel.obj
 0003:0001b178       ??_C@_1M@CPAMEDFI@?$AAx?$AAh?$AA?9?$AAz?$AAa@ 00000001800db178     libucrt:lcidtoname_downlevel.obj
 0003:0001b188       ??_C@_1O@EBKIFIGN@?$AAz?$AAh?$AA?9?$AAc?$AAh?$AAs@ 00000001800db188     libucrt:lcidtoname_downlevel.obj
 0003:0001b198       ??_C@_1O@NMHPGANE@?$AAz?$AAh?$AA?9?$AAc?$AAh?$AAt@ 00000001800db198     libucrt:lcidtoname_downlevel.obj
 0003:0001b1a8       ??_C@_1M@LPINJOMC@?$AAz?$AAh?$AA?9?$AAc?$AAn@ 00000001800db1a8     libucrt:lcidtoname_downlevel.obj
 0003:0001b1b8       ??_C@_1M@OCJEJODD@?$AAz?$AAh?$AA?9?$AAh?$AAk@ 00000001800db1b8     libucrt:lcidtoname_downlevel.obj
 0003:0001b1c8       ??_C@_1M@DNDLJINH@?$AAz?$AAh?$AA?9?$AAm?$AAo@ 00000001800db1c8     libucrt:lcidtoname_downlevel.obj
 0003:0001b1d8       ??_C@_1M@MBFDNDND@?$AAz?$AAh?$AA?9?$AAs?$AAg@ 00000001800db1d8     libucrt:lcidtoname_downlevel.obj
 0003:0001b1e8       ??_C@_1M@IMEPLEPE@?$AAz?$AAh?$AA?9?$AAt?$AAw@ 00000001800db1e8     libucrt:lcidtoname_downlevel.obj
 0003:0001b1f8       ??_C@_1M@BBGHNHJP@?$AAz?$AAu?$AA?9?$AAz?$AAa@ 00000001800db1f8     libucrt:lcidtoname_downlevel.obj
 0003:0001b210       ?large_power_data@?1??multiply_by_power_of_ten@__crt_strtox@@YA_NAEAUbig_integer@2@I@Z@4QBIB 00000001800db210     libucrt:cfout.obj
 0003:0001bb20       ?large_power_indices@?1??multiply_by_power_of_ten@__crt_strtox@@YA_NAEAUbig_integer@2@I@Z@4QBUunpack_index@?1??12@YA_N0I@Z@B 00000001800dbb20     libucrt:cfout.obj
 0003:0001bbb8       ?small_powers_of_ten@?1??multiply_by_power_of_ten@__crt_strtox@@YA_NAEAUbig_integer@2@I@Z@4QBIB 00000001800dbbb8     libucrt:cfout.obj
 0003:0001bbdc       ??_C@_01GBGANLPD@0@        00000001800dbbdc     libucrt:cfout.obj
 0003:0001bbe0       ??_C@_05DNEBIAHO@1?$CDINF@ 00000001800dbbe0     libucrt:cfout.obj
 0003:0001bbe8       ??_C@_06IMKFLFPG@1?$CDQNAN@ 00000001800dbbe8     libucrt:cfout.obj
 0003:0001bbf0       ??_C@_06PGGFOGJG@1?$CDSNAN@ 00000001800dbbf0     libucrt:cfout.obj
 0003:0001bbf8       ??_C@_05PHHOCPM@1?$CDIND@  00000001800dbbf8     libucrt:cfout.obj
 0003:0001bc10       ??_C@_1BA@BALFACEM@?$AAC?$AAO?$AAN?$AAO?$AAU?$AAT?$AA$@ 00000001800dbc10     libucrt:initcon.obj
 0003:0001bc20       _load_config_used          00000001800dbc20     LIBCMT:loadcfg.obj
 0003:0001be00       _tls_used                  00000001800dbe00     LIBCMT:tlssup.obj
 0003:0001be28       ??_R4IWelsParametersetStrategy@WelsEnc@@6B@ 00000001800dbe28     paraset_strategy.obj
 0003:0001be50       ??_R3IWelsParametersetStrategy@WelsEnc@@8 00000001800dbe50     paraset_strategy.obj
 0003:0001be68       ??_R2IWelsParametersetStrategy@WelsEnc@@8 00000001800dbe68     paraset_strategy.obj
 0003:0001be78       ??_R1A@?0A@EA@IWelsParametersetStrategy@WelsEnc@@8 00000001800dbe78     paraset_strategy.obj
 0003:0001bea0       ??_R4CWelsParametersetIdConstant@WelsEnc@@6B@ 00000001800dbea0     paraset_strategy.obj
 0003:0001bec8       ??_R3CWelsParametersetIdConstant@WelsEnc@@8 00000001800dbec8     paraset_strategy.obj
 0003:0001bee0       ??_R2CWelsParametersetIdConstant@WelsEnc@@8 00000001800dbee0     paraset_strategy.obj
 0003:0001bef8       ??_R1A@?0A@EA@CWelsParametersetIdConstant@WelsEnc@@8 00000001800dbef8     paraset_strategy.obj
 0003:0001bf20       ??_R3CWelsParametersetIdNonConstant@WelsEnc@@8 00000001800dbf20     paraset_strategy.obj
 0003:0001bf38       ??_R2CWelsParametersetIdNonConstant@WelsEnc@@8 00000001800dbf38     paraset_strategy.obj
 0003:0001bf58       ??_R1A@?0A@EA@CWelsParametersetIdNonConstant@WelsEnc@@8 00000001800dbf58     paraset_strategy.obj
 0003:0001bf80       ??_R4CWelsParametersetIdIncreasing@WelsEnc@@6B@ 00000001800dbf80     paraset_strategy.obj
 0003:0001bfa8       ??_R3CWelsParametersetIdIncreasing@WelsEnc@@8 00000001800dbfa8     paraset_strategy.obj
 0003:0001bfc0       ??_R2CWelsParametersetIdIncreasing@WelsEnc@@8 00000001800dbfc0     paraset_strategy.obj
 0003:0001bfe8       ??_R1A@?0A@EA@CWelsParametersetIdIncreasing@WelsEnc@@8 00000001800dbfe8     paraset_strategy.obj
 0003:0001c010       ??_R4CWelsParametersetSpsListing@WelsEnc@@6B@ 00000001800dc010     paraset_strategy.obj
 0003:0001c038       ??_R3CWelsParametersetSpsListing@WelsEnc@@8 00000001800dc038     paraset_strategy.obj
 0003:0001c050       ??_R2CWelsParametersetSpsListing@WelsEnc@@8 00000001800dc050     paraset_strategy.obj
 0003:0001c078       ??_R1A@?0A@EA@CWelsParametersetSpsListing@WelsEnc@@8 00000001800dc078     paraset_strategy.obj
 0003:0001c0a0       ??_R4CWelsParametersetSpsPpsListing@WelsEnc@@6B@ 00000001800dc0a0     paraset_strategy.obj
 0003:0001c0c8       ??_R3CWelsParametersetSpsPpsListing@WelsEnc@@8 00000001800dc0c8     paraset_strategy.obj
 0003:0001c0e0       ??_R2CWelsParametersetSpsPpsListing@WelsEnc@@8 00000001800dc0e0     paraset_strategy.obj
 0003:0001c110       ??_R1A@?0A@EA@CWelsParametersetSpsPpsListing@WelsEnc@@8 00000001800dc110     paraset_strategy.obj
 0003:0001c138       ??_R4CWelsParametersetSpsListingPpsIncreasing@WelsEnc@@6B@ 00000001800dc138     paraset_strategy.obj
 0003:0001c160       ??_R3CWelsParametersetSpsListingPpsIncreasing@WelsEnc@@8 00000001800dc160     paraset_strategy.obj
 0003:0001c178       ??_R2CWelsParametersetSpsListingPpsIncreasing@WelsEnc@@8 00000001800dc178     paraset_strategy.obj
 0003:0001c1a8       ??_R1A@?0A@EA@CWelsParametersetSpsListingPpsIncreasing@WelsEnc@@8 00000001800dc1a8     paraset_strategy.obj
 0003:0001c1d0       ??_R4IWelsReferenceStrategy@WelsEnc@@6B@ 00000001800dc1d0     ref_list_mgr_svc.obj
 0003:0001c1f8       ??_R3IWelsReferenceStrategy@WelsEnc@@8 00000001800dc1f8     ref_list_mgr_svc.obj
 0003:0001c210       ??_R2IWelsReferenceStrategy@WelsEnc@@8 00000001800dc210     ref_list_mgr_svc.obj
 0003:0001c220       ??_R1A@?0A@EA@IWelsReferenceStrategy@WelsEnc@@8 00000001800dc220     ref_list_mgr_svc.obj
 0003:0001c248       ??_R4CWelsReference_TemporalLayer@WelsEnc@@6B@ 00000001800dc248     ref_list_mgr_svc.obj
 0003:0001c270       ??_R3CWelsReference_TemporalLayer@WelsEnc@@8 00000001800dc270     ref_list_mgr_svc.obj
 0003:0001c288       ??_R2CWelsReference_TemporalLayer@WelsEnc@@8 00000001800dc288     ref_list_mgr_svc.obj
 0003:0001c2a0       ??_R1A@?0A@EA@CWelsReference_TemporalLayer@WelsEnc@@8 00000001800dc2a0     ref_list_mgr_svc.obj
 0003:0001c2c8       ??_R4CWelsReference_Screen@WelsEnc@@6B@ 00000001800dc2c8     ref_list_mgr_svc.obj
 0003:0001c2f0       ??_R3CWelsReference_Screen@WelsEnc@@8 00000001800dc2f0     ref_list_mgr_svc.obj
 0003:0001c308       ??_R2CWelsReference_Screen@WelsEnc@@8 00000001800dc308     ref_list_mgr_svc.obj
 0003:0001c328       ??_R1A@?0A@EA@CWelsReference_Screen@WelsEnc@@8 00000001800dc328     ref_list_mgr_svc.obj
 0003:0001c350       ??_R4CWelsReference_LosslessWithLtr@WelsEnc@@6B@ 00000001800dc350     ref_list_mgr_svc.obj
 0003:0001c378       ??_R3CWelsReference_LosslessWithLtr@WelsEnc@@8 00000001800dc378     ref_list_mgr_svc.obj
 0003:0001c390       ??_R2CWelsReference_LosslessWithLtr@WelsEnc@@8 00000001800dc390     ref_list_mgr_svc.obj
 0003:0001c3b8       ??_R1A@?0A@EA@CWelsReference_LosslessWithLtr@WelsEnc@@8 00000001800dc3b8     ref_list_mgr_svc.obj
 0003:0001c3e0       ??_R4CWelsPreProcess@WelsEnc@@6B@ 00000001800dc3e0     wels_preprocess.obj
 0003:0001c408       ??_R3CWelsPreProcess@WelsEnc@@8 00000001800dc408     wels_preprocess.obj
 0003:0001c420       ??_R2CWelsPreProcess@WelsEnc@@8 00000001800dc420     wels_preprocess.obj
 0003:0001c430       ??_R1A@?0A@EA@CWelsPreProcess@WelsEnc@@8 00000001800dc430     wels_preprocess.obj
 0003:0001c458       ??_R4CWelsPreProcessVideo@WelsEnc@@6B@ 00000001800dc458     wels_preprocess.obj
 0003:0001c480       ??_R3CWelsPreProcessVideo@WelsEnc@@8 00000001800dc480     wels_preprocess.obj
 0003:0001c498       ??_R2CWelsPreProcessVideo@WelsEnc@@8 00000001800dc498     wels_preprocess.obj
 0003:0001c4b0       ??_R1A@?0A@EA@CWelsPreProcessVideo@WelsEnc@@8 00000001800dc4b0     wels_preprocess.obj
 0003:0001c4d8       ??_R4CWelsPreProcessScreen@WelsEnc@@6B@ 00000001800dc4d8     wels_preprocess.obj
 0003:0001c500       ??_R3CWelsPreProcessScreen@WelsEnc@@8 00000001800dc500     wels_preprocess.obj
 0003:0001c518       ??_R2CWelsPreProcessScreen@WelsEnc@@8 00000001800dc518     wels_preprocess.obj
 0003:0001c530       ??_R1A@?0A@EA@CWelsPreProcessScreen@WelsEnc@@8 00000001800dc530     wels_preprocess.obj
 0003:0001c558       ??_R4IWelsTask@WelsCommon@@6B@ 00000001800dc558     wels_task_base.obj
 0003:0001c580       ??_R3IWelsTask@WelsCommon@@8 00000001800dc580     wels_task_base.obj
 0003:0001c598       ??_R2IWelsTask@WelsCommon@@8 00000001800dc598     wels_task_base.obj
 0003:0001c5a8       ??_R1A@?0A@EA@IWelsTask@WelsCommon@@8 00000001800dc5a8     wels_task_base.obj
 0003:0001c5d0       ??_R3CWelsBaseTask@WelsEnc@@8 00000001800dc5d0     wels_task_encoder.obj
 0003:0001c5e8       ??_R2CWelsBaseTask@WelsEnc@@8 00000001800dc5e8     wels_task_encoder.obj
 0003:0001c600       ??_R1A@?0A@EA@CWelsBaseTask@WelsEnc@@8 00000001800dc600     wels_task_encoder.obj
 0003:0001c628       ??_R4CWelsSliceEncodingTask@WelsEnc@@6B@ 00000001800dc628     wels_task_encoder.obj
 0003:0001c650       ??_R3CWelsSliceEncodingTask@WelsEnc@@8 00000001800dc650     wels_task_encoder.obj
 0003:0001c668       ??_R2CWelsSliceEncodingTask@WelsEnc@@8 00000001800dc668     wels_task_encoder.obj
 0003:0001c688       ??_R1A@?0A@EA@CWelsSliceEncodingTask@WelsEnc@@8 00000001800dc688     wels_task_encoder.obj
 0003:0001c6b0       ??_R4CWelsUpdateMbMapTask@WelsEnc@@6B@ 00000001800dc6b0     wels_task_encoder.obj
 0003:0001c6d8       ??_R3CWelsUpdateMbMapTask@WelsEnc@@8 00000001800dc6d8     wels_task_encoder.obj
 0003:0001c6f0       ??_R2CWelsUpdateMbMapTask@WelsEnc@@8 00000001800dc6f0     wels_task_encoder.obj
 0003:0001c710       ??_R1A@?0A@EA@CWelsUpdateMbMapTask@WelsEnc@@8 00000001800dc710     wels_task_encoder.obj
 0003:0001c738       ??_R4CWelsLock@WelsCommon@@6B@ 00000001800dc738     wels_task_management.obj
 0003:0001c760       ??_R3CWelsLock@WelsCommon@@8 00000001800dc760     wels_task_management.obj
 0003:0001c778       ??_R2CWelsLock@WelsCommon@@8 00000001800dc778     wels_task_management.obj
 0003:0001c788       ??_R1A@?0A@EA@CWelsLock@WelsCommon@@8 00000001800dc788     wels_task_management.obj
 0003:0001c7b0       ??_R4CWelsAutoLock@WelsCommon@@6B@ 00000001800dc7b0     wels_task_management.obj
 0003:0001c7d8       ??_R3CWelsAutoLock@WelsCommon@@8 00000001800dc7d8     wels_task_management.obj
 0003:0001c7f0       ??_R2CWelsAutoLock@WelsCommon@@8 00000001800dc7f0     wels_task_management.obj
 0003:0001c800       ??_R1A@?0A@EA@CWelsAutoLock@WelsCommon@@8 00000001800dc800     wels_task_management.obj
 0003:0001c828       ??_R3IWelsTaskSink@WelsCommon@@8 00000001800dc828     wels_task_management.obj
 0003:0001c840       ??_R2IWelsTaskSink@WelsCommon@@8 00000001800dc840     wels_task_management.obj
 0003:0001c850       ??_R1A@?0A@EA@IWelsTaskSink@WelsCommon@@8 00000001800dc850     wels_task_management.obj
 0003:0001c878       ??_R4IWelsTaskManage@WelsEnc@@6B@ 00000001800dc878     wels_task_management.obj
 0003:0001c8a0       ??_R3IWelsTaskManage@WelsEnc@@8 00000001800dc8a0     wels_task_management.obj
 0003:0001c8b8       ??_R2IWelsTaskManage@WelsEnc@@8 00000001800dc8b8     wels_task_management.obj
 0003:0001c8c8       ??_R1A@?0A@EA@IWelsTaskManage@WelsEnc@@8 00000001800dc8c8     wels_task_management.obj
 0003:0001c8f0       ??_R4CWelsTaskManageBase@WelsEnc@@6BIWelsTaskManage@1@@ 00000001800dc8f0     wels_task_management.obj
 0003:0001c918       ??_R3CWelsTaskManageBase@WelsEnc@@8 00000001800dc918     wels_task_management.obj
 0003:0001c930       ??_R2CWelsTaskManageBase@WelsEnc@@8 00000001800dc930     wels_task_management.obj
 0003:0001c950       ??_R1A@?0A@EA@CWelsTaskManageBase@WelsEnc@@8 00000001800dc950     wels_task_management.obj
 0003:0001c978       ??_R17?0A@EA@IWelsTaskSink@WelsCommon@@8 00000001800dc978     wels_task_management.obj
 0003:0001c9a0       ??_R4CWelsTaskManageBase@WelsEnc@@6BIWelsTaskSink@WelsCommon@@@ 00000001800dc9a0     wels_task_management.obj
 0003:0001c9c8       ??_R4CWelsLoadBalancingSlicingEncodingTask@WelsEnc@@6B@ 00000001800dc9c8     wels_task_management.obj
 0003:0001c9f0       ??_R3CWelsLoadBalancingSlicingEncodingTask@WelsEnc@@8 00000001800dc9f0     wels_task_management.obj
 0003:0001ca08       ??_R2CWelsLoadBalancingSlicingEncodingTask@WelsEnc@@8 00000001800dca08     wels_task_management.obj
 0003:0001ca30       ??_R1A@?0A@EA@CWelsLoadBalancingSlicingEncodingTask@WelsEnc@@8 00000001800dca30     wels_task_management.obj
 0003:0001ca58       ??_R4CWelsConstrainedSizeSlicingEncodingTask@WelsEnc@@6B@ 00000001800dca58     wels_task_management.obj
 0003:0001ca80       ??_R3CWelsConstrainedSizeSlicingEncodingTask@WelsEnc@@8 00000001800dca80     wels_task_management.obj
 0003:0001ca98       ??_R2CWelsConstrainedSizeSlicingEncodingTask@WelsEnc@@8 00000001800dca98     wels_task_management.obj
 0003:0001cac8       ??_R1A@?0A@EA@CWelsConstrainedSizeSlicingEncodingTask@WelsEnc@@8 00000001800dcac8     wels_task_management.obj
 0003:0001caf0       ??_R4ISVCEncoder@@6B@      00000001800dcaf0     welsEncoderExt.obj
 0003:0001cb18       ??_R3ISVCEncoder@@8        00000001800dcb18     welsEncoderExt.obj
 0003:0001cb30       ??_R2ISVCEncoder@@8        00000001800dcb30     welsEncoderExt.obj
 0003:0001cb40       ??_R1A@?0A@EA@ISVCEncoder@@8 00000001800dcb40     welsEncoderExt.obj
 0003:0001cb68       ??_R4CWelsH264SVCEncoder@WelsEnc@@6B@ 00000001800dcb68     welsEncoderExt.obj
 0003:0001cb90       ??_R3CWelsH264SVCEncoder@WelsEnc@@8 00000001800dcb90     welsEncoderExt.obj
 0003:0001cba8       ??_R2CWelsH264SVCEncoder@WelsEnc@@8 00000001800dcba8     welsEncoderExt.obj
 0003:0001cbc0       ??_R1A@?0A@EA@CWelsH264SVCEncoder@WelsEnc@@8 00000001800dcbc0     welsEncoderExt.obj
 0003:0001cbe8       ??_R4ISVCDecoder@@6B@      00000001800dcbe8     welsDecoderExt.obj
 0003:0001cc10       ??_R3ISVCDecoder@@8        00000001800dcc10     welsDecoderExt.obj
 0003:0001cc28       ??_R2ISVCDecoder@@8        00000001800dcc28     welsDecoderExt.obj
 0003:0001cc38       ??_R1A@?0A@EA@ISVCDecoder@@8 00000001800dcc38     welsDecoderExt.obj
 0003:0001cc60       ??_R4CWelsDecoder@WelsDec@@6B@ 00000001800dcc60     welsDecoderExt.obj
 0003:0001cc88       ??_R3CWelsDecoder@WelsDec@@8 00000001800dcc88     welsDecoderExt.obj
 0003:0001cca0       ??_R2CWelsDecoder@WelsDec@@8 00000001800dcca0     welsDecoderExt.obj
 0003:0001ccb8       ??_R1A@?0A@EA@CWelsDecoder@WelsDec@@8 00000001800dccb8     welsDecoderExt.obj
 0003:0001cce0       ??_R4IWelsVP@@6B@          00000001800dcce0     AdaptiveQuantization.obj
 0003:0001cd08       ??_R3IWelsVP@@8            00000001800dcd08     AdaptiveQuantization.obj
 0003:0001cd20       ??_R2IWelsVP@@8            00000001800dcd20     AdaptiveQuantization.obj
 0003:0001cd30       ??_R1A@?0A@EA@IWelsVP@@8   00000001800dcd30     AdaptiveQuantization.obj
 0003:0001cd58       ??_R3IStrategy@WelsVP@@8   00000001800dcd58     AdaptiveQuantization.obj
 0003:0001cd70       ??_R2IStrategy@WelsVP@@8   00000001800dcd70     AdaptiveQuantization.obj
 0003:0001cd88       ??_R1A@?0A@EA@IStrategy@WelsVP@@8 00000001800dcd88     AdaptiveQuantization.obj
 0003:0001cdb0       ??_R4CAdaptiveQuantization@WelsVP@@6B@ 00000001800dcdb0     AdaptiveQuantization.obj
 0003:0001cdd8       ??_R3CAdaptiveQuantization@WelsVP@@8 00000001800dcdd8     AdaptiveQuantization.obj
 0003:0001cdf0       ??_R2CAdaptiveQuantization@WelsVP@@8 00000001800dcdf0     AdaptiveQuantization.obj
 0003:0001ce10       ??_R1A@?0A@EA@CAdaptiveQuantization@WelsVP@@8 00000001800dce10     AdaptiveQuantization.obj
 0003:0001ce38       ??_R4CBackgroundDetection@WelsVP@@6B@ 00000001800dce38     BackgroundDetection.obj
 0003:0001ce60       ??_R3CBackgroundDetection@WelsVP@@8 00000001800dce60     BackgroundDetection.obj
 0003:0001ce78       ??_R2CBackgroundDetection@WelsVP@@8 00000001800dce78     BackgroundDetection.obj
 0003:0001ce98       ??_R1A@?0A@EA@CBackgroundDetection@WelsVP@@8 00000001800dce98     BackgroundDetection.obj
 0003:0001cec0       ??_R4CVpFrameWork@WelsVP@@6B@ 00000001800dcec0     WelsFrameWork.obj
 0003:0001cee8       ??_R3CVpFrameWork@WelsVP@@8 00000001800dcee8     WelsFrameWork.obj
 0003:0001cf00       ??_R2CVpFrameWork@WelsVP@@8 00000001800dcf00     WelsFrameWork.obj
 0003:0001cf18       ??_R1A@?0A@EA@CVpFrameWork@WelsVP@@8 00000001800dcf18     WelsFrameWork.obj
 0003:0001cf40       ??_R4CScrollDetection@WelsVP@@6B@ 00000001800dcf40     WelsFrameWork.obj
 0003:0001cf68       ??_R3CScrollDetection@WelsVP@@8 00000001800dcf68     WelsFrameWork.obj
 0003:0001cf80       ??_R2CScrollDetection@WelsVP@@8 00000001800dcf80     WelsFrameWork.obj
 0003:0001cfa0       ??_R1A@?0A@EA@CScrollDetection@WelsVP@@8 00000001800dcfa0     WelsFrameWork.obj
 0003:0001cfc8       ??_R4CComplexityAnalysis@WelsVP@@6B@ 00000001800dcfc8     ComplexityAnalysis.obj
 0003:0001cff0       ??_R3CComplexityAnalysis@WelsVP@@8 00000001800dcff0     ComplexityAnalysis.obj
 0003:0001d008       ??_R2CComplexityAnalysis@WelsVP@@8 00000001800dd008     ComplexityAnalysis.obj
 0003:0001d028       ??_R1A@?0A@EA@CComplexityAnalysis@WelsVP@@8 00000001800dd028     ComplexityAnalysis.obj
 0003:0001d050       ??_R4CComplexityAnalysisScreen@WelsVP@@6B@ 00000001800dd050     ComplexityAnalysis.obj
 0003:0001d078       ??_R3CComplexityAnalysisScreen@WelsVP@@8 00000001800dd078     ComplexityAnalysis.obj
 0003:0001d090       ??_R2CComplexityAnalysisScreen@WelsVP@@8 00000001800dd090     ComplexityAnalysis.obj
 0003:0001d0b0       ??_R1A@?0A@EA@CComplexityAnalysisScreen@WelsVP@@8 00000001800dd0b0     ComplexityAnalysis.obj
 0003:0001d0d8       ??_R4CDenoiser@WelsVP@@6B@ 00000001800dd0d8     denoise.obj
 0003:0001d100       ??_R3CDenoiser@WelsVP@@8   00000001800dd100     denoise.obj
 0003:0001d118       ??_R2CDenoiser@WelsVP@@8   00000001800dd118     denoise.obj
 0003:0001d138       ??_R1A@?0A@EA@CDenoiser@WelsVP@@8 00000001800dd138     denoise.obj
 0003:0001d160       ??_R4CDownsampling@WelsVP@@6B@ 00000001800dd160     downsample.obj
 0003:0001d188       ??_R3CDownsampling@WelsVP@@8 00000001800dd188     downsample.obj
 0003:0001d1a0       ??_R2CDownsampling@WelsVP@@8 00000001800dd1a0     downsample.obj
 0003:0001d1c0       ??_R1A@?0A@EA@CDownsampling@WelsVP@@8 00000001800dd1c0     downsample.obj
 0003:0001d1e8       ??_R4CImageRotating@WelsVP@@6B@ 00000001800dd1e8     imagerotate.obj
 0003:0001d210       ??_R3CImageRotating@WelsVP@@8 00000001800dd210     imagerotate.obj
 0003:0001d228       ??_R2CImageRotating@WelsVP@@8 00000001800dd228     imagerotate.obj
 0003:0001d248       ??_R1A@?0A@EA@CImageRotating@WelsVP@@8 00000001800dd248     imagerotate.obj
 0003:0001d270       ??_R4CSceneChangeDetectorVideo@WelsVP@@6B@ 00000001800dd270     SceneChangeDetection.obj
 0003:0001d298       ??_R3CSceneChangeDetectorVideo@WelsVP@@8 00000001800dd298     SceneChangeDetection.obj
 0003:0001d2b0       ??_R2CSceneChangeDetectorVideo@WelsVP@@8 00000001800dd2b0     SceneChangeDetection.obj
 0003:0001d2c0       ??_R1A@?0A@EA@CSceneChangeDetectorVideo@WelsVP@@8 00000001800dd2c0     SceneChangeDetection.obj
 0003:0001d2e8       ??_R4CSceneChangeDetectorScreen@WelsVP@@6B@ 00000001800dd2e8     SceneChangeDetection.obj
 0003:0001d310       ??_R3CSceneChangeDetectorScreen@WelsVP@@8 00000001800dd310     SceneChangeDetection.obj
 0003:0001d328       ??_R2CSceneChangeDetectorScreen@WelsVP@@8 00000001800dd328     SceneChangeDetection.obj
 0003:0001d340       ??_R1A@?0A@EA@CSceneChangeDetectorScreen@WelsVP@@8 00000001800dd340     SceneChangeDetection.obj
 0003:0001d368       ??_R4?$CSceneChangeDetection@VCSceneChangeDetectorVideo@WelsVP@@@WelsVP@@6B@ 00000001800dd368     SceneChangeDetection.obj
 0003:0001d390       ??_R3?$CSceneChangeDetection@VCSceneChangeDetectorVideo@WelsVP@@@WelsVP@@8 00000001800dd390     SceneChangeDetection.obj
 0003:0001d3a8       ??_R2?$CSceneChangeDetection@VCSceneChangeDetectorVideo@WelsVP@@@WelsVP@@8 00000001800dd3a8     SceneChangeDetection.obj
 0003:0001d3c8       ??_R1A@?0A@EA@?$CSceneChangeDetection@VCSceneChangeDetectorVideo@WelsVP@@@WelsVP@@8 00000001800dd3c8     SceneChangeDetection.obj
 0003:0001d3f0       ??_R4?$CSceneChangeDetection@VCSceneChangeDetectorScreen@WelsVP@@@WelsVP@@6B@ 00000001800dd3f0     SceneChangeDetection.obj
 0003:0001d418       ??_R3?$CSceneChangeDetection@VCSceneChangeDetectorScreen@WelsVP@@@WelsVP@@8 00000001800dd418     SceneChangeDetection.obj
 0003:0001d430       ??_R2?$CSceneChangeDetection@VCSceneChangeDetectorScreen@WelsVP@@@WelsVP@@8 00000001800dd430     SceneChangeDetection.obj
 0003:0001d450       ??_R1A@?0A@EA@?$CSceneChangeDetection@VCSceneChangeDetectorScreen@WelsVP@@@WelsVP@@8 00000001800dd450     SceneChangeDetection.obj
 0003:0001d478       ??_R4CVAACalculation@WelsVP@@6B@ 00000001800dd478     vaacalculation.obj
 0003:0001d4a0       ??_R3CVAACalculation@WelsVP@@8 00000001800dd4a0     vaacalculation.obj
 0003:0001d4b8       ??_R2CVAACalculation@WelsVP@@8 00000001800dd4b8     vaacalculation.obj
 0003:0001d4d8       ??_R1A@?0A@EA@CVAACalculation@WelsVP@@8 00000001800dd4d8     vaacalculation.obj
 0003:0001d500       ??_R4CMemoryAlign@WelsCommon@@6B@ 00000001800dd500     memory_align.obj
 0003:0001d528       ??_R3CMemoryAlign@WelsCommon@@8 00000001800dd528     memory_align.obj
 0003:0001d540       ??_R2CMemoryAlign@WelsCommon@@8 00000001800dd540     memory_align.obj
 0003:0001d550       ??_R1A@?0A@EA@CMemoryAlign@WelsCommon@@8 00000001800dd550     memory_align.obj
 0003:0001d578       ??_R4CWelsTaskThread@WelsCommon@@6B@ 00000001800dd578     WelsTaskThread.obj
 0003:0001d5a0       ??_R3CWelsTaskThread@WelsCommon@@8 00000001800dd5a0     WelsTaskThread.obj
 0003:0001d5b8       ??_R2CWelsTaskThread@WelsCommon@@8 00000001800dd5b8     WelsTaskThread.obj
 0003:0001d5d0       ??_R1A@?0A@EA@CWelsTaskThread@WelsCommon@@8 00000001800dd5d0     WelsTaskThread.obj
 0003:0001d5f8       ??_R1A@?0A@EA@CWelsThread@WelsCommon@@8 00000001800dd5f8     WelsTaskThread.obj
 0003:0001d620       ??_R3CWelsThread@WelsCommon@@8 00000001800dd620     WelsTaskThread.obj
 0003:0001d638       ??_R2CWelsThread@WelsCommon@@8 00000001800dd638     WelsTaskThread.obj
 0003:0001d648       ??_R4CWelsThread@WelsCommon@@6B@ 00000001800dd648     WelsThread.obj
 0003:0001d670       ??_R3IWelsTaskThreadSink@WelsCommon@@8 00000001800dd670     WelsThreadPool.obj
 0003:0001d688       ??_R2IWelsTaskThreadSink@WelsCommon@@8 00000001800dd688     WelsThreadPool.obj
 0003:0001d698       ??_R1A@?0A@EA@IWelsTaskThreadSink@WelsCommon@@8 00000001800dd698     WelsThreadPool.obj
 0003:0001d6c0       ??_R4CWelsThreadPool@WelsCommon@@6BCWelsThread@1@@ 00000001800dd6c0     WelsThreadPool.obj
 0003:0001d6e8       ??_R3CWelsThreadPool@WelsCommon@@8 00000001800dd6e8     WelsThreadPool.obj
 0003:0001d700       ??_R2CWelsThreadPool@WelsCommon@@8 00000001800dd700     WelsThreadPool.obj
 0003:0001d720       ??_R1A@?0A@EA@CWelsThreadPool@WelsCommon@@8 00000001800dd720     WelsThreadPool.obj
 0003:0001d748       ??_R1HI@?0A@EA@IWelsTaskThreadSink@WelsCommon@@8 00000001800dd748     WelsThreadPool.obj
 0003:0001d770       ??_R4CWelsThreadPool@WelsCommon@@6BIWelsTaskThreadSink@1@@ 00000001800dd770     WelsThreadPool.obj
 0003:0001d798       ??_R4type_info@@6B@        00000001800dd798     LIBCMT:std_type_info_static.obj
 0003:0001d7c0       ??_R3type_info@@8          00000001800dd7c0     LIBCMT:std_type_info_static.obj
 0003:0001d7d8       ??_R2type_info@@8          00000001800dd7d8     LIBCMT:std_type_info_static.obj
 0003:0001d7e8       ??_R1A@?0A@EA@type_info@@8 00000001800dd7e8     LIBCMT:std_type_info_static.obj
 0003:0001d810       ??_R4exception@std@@6B@    00000001800dd810     LIBCMT:throw_bad_alloc.obj
 0003:0001d838       ??_R3exception@std@@8      00000001800dd838     LIBCMT:throw_bad_alloc.obj
 0003:0001d850       ??_R2exception@std@@8      00000001800dd850     LIBCMT:throw_bad_alloc.obj
 0003:0001d860       ??_R1A@?0A@EA@exception@std@@8 00000001800dd860     LIBCMT:throw_bad_alloc.obj
 0003:0001d888       ??_R4bad_alloc@std@@6B@    00000001800dd888     LIBCMT:throw_bad_alloc.obj
 0003:0001d8b0       ??_R3bad_alloc@std@@8      00000001800dd8b0     LIBCMT:throw_bad_alloc.obj
 0003:0001d8c8       ??_R2bad_alloc@std@@8      00000001800dd8c8     LIBCMT:throw_bad_alloc.obj
 0003:0001d8e0       ??_R1A@?0A@EA@bad_alloc@std@@8 00000001800dd8e0     LIBCMT:throw_bad_alloc.obj
 0003:0001d908       ??_R4bad_array_new_length@std@@6B@ 00000001800dd908     LIBCMT:throw_bad_alloc.obj
 0003:0001d930       ??_R3bad_array_new_length@std@@8 00000001800dd930     LIBCMT:throw_bad_alloc.obj
 0003:0001d948       ??_R2bad_array_new_length@std@@8 00000001800dd948     LIBCMT:throw_bad_alloc.obj
 0003:0001d968       ??_R1A@?0A@EA@bad_array_new_length@std@@8 00000001800dd968     LIBCMT:throw_bad_alloc.obj
 0003:0001d990       ??_R4bad_exception@std@@6B@ 00000001800dd990     libvcruntime:frame.obj
 0003:0001d9b8       ??_R3bad_exception@std@@8  00000001800dd9b8     libvcruntime:frame.obj
 0003:0001d9d0       ??_R2bad_exception@std@@8  00000001800dd9d0     libvcruntime:frame.obj
 0003:0001d9e8       ??_R1A@?0A@EA@bad_exception@std@@8 00000001800dd9e8     libvcruntime:frame.obj
 0003:0001da0c       __volatile_metadata        00000001800dda0c     <linker-defined>
 0003:0001def8       __rtc_iaa                  00000001800ddef8     LIBCMT:initsect.obj
 0003:0001df00       __rtc_izz                  00000001800ddf00     LIBCMT:initsect.obj
 0003:0001df08       __rtc_taa                  00000001800ddf08     LIBCMT:initsect.obj
 0003:0001df10       __rtc_tzz                  00000001800ddf10     LIBCMT:initsect.obj
 0003:0001df18       _tls_start                 00000001800ddf18     LIBCMT:tlssup.obj
 0003:0001df1c       _Init_thread_epoch         00000001800ddf1c     LIBCMT:thread_safe_statics.obj
 0003:0001df20       _tls_end                   00000001800ddf20     LIBCMT:tlssup.obj
 0003:00025020       _TI2?AVbad_alloc@std@@     00000001800e5020     LIBCMT:throw_bad_alloc.obj
 0003:00025040       _CTA2?AVbad_alloc@std@@    00000001800e5040     LIBCMT:throw_bad_alloc.obj
 0003:00025058       _CT??_R0?AVbad_alloc@std@@@8??0bad_alloc@std@@QEAA@AEBV01@@Z24 00000001800e5058     LIBCMT:throw_bad_alloc.obj
 0003:00025080       _CT??_R0?AVexception@std@@@8??0exception@std@@QEAA@AEBV01@@Z24 00000001800e5080     LIBCMT:throw_bad_alloc.obj
 0003:000250a8       _TI3?AVbad_array_new_length@std@@ 00000001800e50a8     LIBCMT:throw_bad_alloc.obj
 0003:000250c8       _CTA3?AVbad_array_new_length@std@@ 00000001800e50c8     LIBCMT:throw_bad_alloc.obj
 0003:000250e8       _CT??_R0?AVbad_array_new_length@std@@@8??0bad_array_new_length@std@@QEAA@AEBV01@@Z24 00000001800e50e8     LIBCMT:throw_bad_alloc.obj
 0003:00025110       _TI2?AVbad_exception@std@@ 00000001800e5110     libvcruntime:frame.obj
 0003:00025130       _CTA2?AVbad_exception@std@@ 00000001800e5130     libvcruntime:frame.obj
 0003:00025148       _CT??_R0?AVbad_exception@std@@@8??0bad_exception@std@@QEAA@AEBV01@@Z24 00000001800e5148     libvcruntime:frame.obj
 0003:0002525c       __IMPORT_DESCRIPTOR_KERNEL32 00000001800e525c     kernel32:KERNEL32.dll
 0003:00025270       __NULL_IMPORT_DESCRIPTOR   00000001800e5270     kernel32:KERNEL32.dll
 0004:00000000       ?m_iMaxThreadNum@CWelsThreadPool@WelsCommon@@0HA 00000001800e6000     WelsThreadPool.obj
 0004:00000004       _fltused                   00000001800e6004     LIBCMT:fltused.obj
 0004:00000010       __security_cookie_complement 00000001800e6010     LIBCMT:gs_cookie.obj
 0004:00000018       __security_cookie          00000001800e6018     LIBCMT:gs_cookie.obj
 0004:00000020       __isa_available            00000001800e6020     LIBCMT:cpu_disp.obj
 0004:00000024       __isa_enabled              00000001800e6024     LIBCMT:cpu_disp.obj
 0004:00000028       __memset_fast_string_threshold 00000001800e6028     LIBCMT:cpu_disp.obj
 0004:00000030       __memset_nt_threshold      00000001800e6030     LIBCMT:cpu_disp.obj
 0004:00000038       _Init_global_epoch         00000001800e6038     LIBCMT:thread_safe_statics.obj
 0004:0000003c       __scrt_native_dllmain_reason 00000001800e603c     LIBCMT:utility.obj
 0004:00000050       _iob                       00000001800e6050     libucrt:_file.obj
 0004:00000158       __abort_behavior           00000001800e6158     libucrt:abort.obj
 0004:00000320       __acrt_initial_locale_data 00000001800e6320     libucrt:nlsdata.obj
 0004:00000478       __acrt_initial_locale_pointers 00000001800e6478     libucrt:nlsdata.obj
 0004:00000488       __acrt_wide_c_locale_string 00000001800e6488     libucrt:nlsdata.obj
 0004:00000490       __badioinfo                00000001800e6490     libucrt:ioinit.obj
 0004:000004e0       __acrt_initial_multibyte_data 00000001800e64e0     libucrt:mbctype.obj
 0004:00000a24       __globallocalestatus       00000001800e6a24     libucrt:glstatus.obj
 0004:00000a30       __acrt_lconv_c             00000001800e6a30     libucrt:localeconv.obj
 0004:00000ac8       __acrt_lconv_static_decimal 00000001800e6ac8     libucrt:localeconv.obj
 0004:00000acc       __acrt_lconv_static_W_decimal 00000001800e6acc     libucrt:localeconv.obj
 0004:00000ad0       _lookuptrailbytes          00000001800e6ad0     libucrt:read.obj
 0004:00000be0       ??_R0?AVbad_alloc@std@@@8  00000001800e6be0     LIBCMT:throw_bad_alloc.obj
 0004:00000c08       ??_R0?AVexception@std@@@8  00000001800e6c08     LIBCMT:throw_bad_alloc.obj
 0004:00000c30       ??_R0?AVbad_array_new_length@std@@@8 00000001800e6c30     LIBCMT:throw_bad_alloc.obj
 0004:00000c60       ??_R0?AVbad_exception@std@@@8 00000001800e6c60     libvcruntime:frame.obj
 0004:00000c90       ??_R0?AVIWelsParametersetStrategy@WelsEnc@@@8 00000001800e6c90     paraset_strategy.obj
 0004:00000cc8       ??_R0?AVCWelsParametersetIdConstant@WelsEnc@@@8 00000001800e6cc8     paraset_strategy.obj
 0004:00000d08       ??_R0?AVCWelsParametersetIdNonConstant@WelsEnc@@@8 00000001800e6d08     paraset_strategy.obj
 0004:00000d48       ??_R0?AVCWelsParametersetIdIncreasing@WelsEnc@@@8 00000001800e6d48     paraset_strategy.obj
 0004:00000d88       ??_R0?AVCWelsParametersetSpsListing@WelsEnc@@@8 00000001800e6d88     paraset_strategy.obj
 0004:00000dc8       ??_R0?AVCWelsParametersetSpsPpsListing@WelsEnc@@@8 00000001800e6dc8     paraset_strategy.obj
 0004:00000e10       ??_R0?AVCWelsParametersetSpsListingPpsIncreasing@WelsEnc@@@8 00000001800e6e10     paraset_strategy.obj
 0004:00000e58       ??_R0?AVIWelsReferenceStrategy@WelsEnc@@@8 00000001800e6e58     ref_list_mgr_svc.obj
 0004:00000e90       ??_R0?AVCWelsReference_TemporalLayer@WelsEnc@@@8 00000001800e6e90     ref_list_mgr_svc.obj
 0004:00000ed0       ??_R0?AVCWelsReference_Screen@WelsEnc@@@8 00000001800e6ed0     ref_list_mgr_svc.obj
 0004:00000f08       ??_R0?AVCWelsReference_LosslessWithLtr@WelsEnc@@@8 00000001800e6f08     ref_list_mgr_svc.obj
 0004:00000f48       ??_R0?AVCWelsPreProcess@WelsEnc@@@8 00000001800e6f48     wels_preprocess.obj
 0004:00000f78       ??_R0?AVCWelsPreProcessVideo@WelsEnc@@@8 00000001800e6f78     wels_preprocess.obj
 0004:00000fb0       ??_R0?AVCWelsPreProcessScreen@WelsEnc@@@8 00000001800e6fb0     wels_preprocess.obj
 0004:00000fe8       ??_R0?AVIWelsTask@WelsCommon@@@8 00000001800e6fe8     wels_task_base.obj
 0004:00001018       ??_R0?AVCWelsBaseTask@WelsEnc@@@8 00000001800e7018     wels_task_encoder.obj
 0004:00001048       ??_R0?AVCWelsSliceEncodingTask@WelsEnc@@@8 00000001800e7048     wels_task_encoder.obj
 0004:00001080       ??_R0?AVCWelsUpdateMbMapTask@WelsEnc@@@8 00000001800e7080     wels_task_encoder.obj
 0004:000010b8       ??_R0?AVCWelsLock@WelsCommon@@@8 00000001800e70b8     wels_task_management.obj
 0004:000010e8       ??_R0?AVCWelsAutoLock@WelsCommon@@@8 00000001800e70e8     wels_task_management.obj
 0004:00001118       ??_R0?AVIWelsTaskSink@WelsCommon@@@8 00000001800e7118     wels_task_management.obj
 0004:00001148       ??_R0?AVIWelsTaskManage@WelsEnc@@@8 00000001800e7148     wels_task_management.obj
 0004:00001178       ??_R0?AVCWelsTaskManageBase@WelsEnc@@@8 00000001800e7178     wels_task_management.obj
 0004:000011b0       ??_R0?AVCWelsLoadBalancingSlicingEncodingTask@WelsEnc@@@8 00000001800e71b0     wels_task_management.obj
 0004:00001200       ??_R0?AVCWelsConstrainedSizeSlicingEncodingTask@WelsEnc@@@8 00000001800e7200     wels_task_management.obj
 0004:00001248       ??_R0?AVISVCEncoder@@@8    00000001800e7248     welsEncoderExt.obj
 0004:00001270       ??_R0?AVCWelsH264SVCEncoder@WelsEnc@@@8 00000001800e7270     welsEncoderExt.obj
 0004:000012a8       ??_R0?AVISVCDecoder@@@8    00000001800e72a8     welsDecoderExt.obj
 0004:000012d0       ??_R0?AVCWelsDecoder@WelsDec@@@8 00000001800e72d0     welsDecoderExt.obj
 0004:00001300       ??_R0?AVIWelsVP@@@8        00000001800e7300     AdaptiveQuantization.obj
 0004:00001320       ??_R0?AVIStrategy@WelsVP@@@8 00000001800e7320     AdaptiveQuantization.obj
 0004:00001348       ??_R0?AVCAdaptiveQuantization@WelsVP@@@8 00000001800e7348     AdaptiveQuantization.obj
 0004:00001380       ??_R0?AVCBackgroundDetection@WelsVP@@@8 00000001800e7380     BackgroundDetection.obj
 0004:000013b8       ??_R0?AVCVpFrameWork@WelsVP@@@8 00000001800e73b8     WelsFrameWork.obj
 0004:000013e8       ??_R0?AVCScrollDetection@WelsVP@@@8 00000001800e73e8     WelsFrameWork.obj
 0004:00001418       ??_R0?AVCComplexityAnalysis@WelsVP@@@8 00000001800e7418     ComplexityAnalysis.obj
 0004:00001450       ??_R0?AVCComplexityAnalysisScreen@WelsVP@@@8 00000001800e7450     ComplexityAnalysis.obj
 0004:00001488       ??_R0?AVCDenoiser@WelsVP@@@8 00000001800e7488     denoise.obj
 0004:000014b0       ??_R0?AVCDownsampling@WelsVP@@@8 00000001800e74b0     downsample.obj
 0004:000014e0       ??_R0?AVCImageRotating@WelsVP@@@8 00000001800e74e0     imagerotate.obj
 0004:00001510       ??_R0?AVCSceneChangeDetectorVideo@WelsVP@@@8 00000001800e7510     SceneChangeDetection.obj
 0004:00001548       ??_R0?AVCSceneChangeDetectorScreen@WelsVP@@@8 00000001800e7548     SceneChangeDetection.obj
 0004:00001580       ??_R0?AV?$CSceneChangeDetection@VCSceneChangeDetectorVideo@WelsVP@@@WelsVP@@@8 00000001800e7580     SceneChangeDetection.obj
 0004:000015e0       ??_R0?AV?$CSceneChangeDetection@VCSceneChangeDetectorScreen@WelsVP@@@WelsVP@@@8 00000001800e75e0     SceneChangeDetection.obj
 0004:00001640       ??_R0?AVCVAACalculation@WelsVP@@@8 00000001800e7640     vaacalculation.obj
 0004:00001670       ??_R0?AVCMemoryAlign@WelsCommon@@@8 00000001800e7670     memory_align.obj
 0004:000016a0       ??_R0?AVCWelsTaskThread@WelsCommon@@@8 00000001800e76a0     WelsTaskThread.obj
 0004:000016d8       ??_R0?AVCWelsThread@WelsCommon@@@8 00000001800e76d8     WelsTaskThread.obj
 0004:00001708       ??_R0?AVIWelsTaskThreadSink@WelsCommon@@@8 00000001800e7708     WelsThreadPool.obj
 0004:00001740       ??_R0?AVCWelsThreadPool@WelsCommon@@@8 00000001800e7740     WelsThreadPool.obj
 0004:00001778       ??_R0?AVtype_info@@@8      00000001800e7778     LIBCMT:std_type_info_static.obj
 0004:000017b8       ?_OptionsStorage@?1??__local_stdio_printf_options@@9@4_KA 00000001800e77b8     crt_util_safe_x.obj
 0004:000017c0       ?m_iRefCount@CWelsThreadPool@WelsCommon@@0HA 00000001800e77c0     WelsThreadPool.obj
 0004:000017c8       ?m_pThreadPoolSelf@CWelsThreadPool@WelsCommon@@0PEAV12@EA 00000001800e77c8     WelsThreadPool.obj
 0004:000017dc       __favor                    00000001800e77dc     LIBCMT:cpu_disp.obj
 0004:00001d60       _tls_index                 00000001800e7d60     LIBCMT:tlssup.obj
 0004:00001d70       ?__type_info_root_node@@3U__type_info_node@@A 00000001800e7d70     LIBCMT:tncleanup.obj
 0004:00001d80       ?_OptionsStorage@?1??__local_stdio_scanf_options@@9@4_KA 00000001800e7d80     LIBCMT:default_local_stdio_options.obj
 0004:00001d88       __scrt_current_native_startup_state 00000001800e7d88     LIBCMT:utility.obj
 0004:00001d90       __scrt_native_startup_lock 00000001800e7d90     LIBCMT:utility.obj
 0004:00001dd0       __scrt_debugger_hook_flag  00000001800e7dd0     LIBCMT:utility_desktop.obj
 0004:00001dd8       ?__WinRTOutOfMemoryExceptionCallback@@3P6APEAXXZEA 00000001800e7dd8     libvcruntime:ehhelpers.obj
 0004:00001e60       __pPurecall                00000001800e7e60     libvcruntime:purevirt_data.obj
 0004:00001e68       ?pArgList@UnDecorator@@0PEAVReplicator@@EA 00000001800e7e68     libvcruntime:undname.obj
 0004:00001e70       ?pZNameList@UnDecorator@@0PEAVReplicator@@EA 00000001800e7e70     libvcruntime:undname.obj
 0004:00001e78       ?pTemplateArgList@UnDecorator@@0PEAVReplicator@@EA 00000001800e7e78     libvcruntime:undname.obj
 0004:00001e80       ?gName@UnDecorator@@0PEBDEB 00000001800e7e80     libvcruntime:undname.obj
 0004:00001e88       ?name@UnDecorator@@0PEBDEB 00000001800e7e88     libvcruntime:undname.obj
 0004:00001e90       ?disableFlags@UnDecorator@@0KA 00000001800e7e90     libvcruntime:undname.obj
 0004:00001e94       ?fExplicitTemplateParams@UnDecorator@@0_NA 00000001800e7e94     libvcruntime:undname.obj
 0004:00001e95       ?fGetTemplateArgumentList@UnDecorator@@0_NA 00000001800e7e95     libvcruntime:undname.obj
 0004:00001e98       ?m_pGetParameter@UnDecorator@@0P6APEADJ@ZEA 00000001800e7e98     libvcruntime:undname.obj
 0004:00001ea0       ?m_CHPENameOffset@UnDecorator@@0KA 00000001800e7ea0     libvcruntime:undname.obj
 0004:00001ea4       ?m_recursionLevel@UnDecorator@@0KA 00000001800e7ea4     libvcruntime:undname.obj
 0004:00001f40       _nstream                   00000001800e7f40     libucrt:_file.obj
 0004:00001f48       __piob                     00000001800e7f48     libucrt:_file.obj
 0004:00001f50       _cflush                    00000001800e7f50     libucrt:_file.obj
 0004:00001f70       ?c_exit_complete@?1???R<lambda_6e4b09c48022b2350581041d5f6b0c4c>@@QEBA@XZ@4_NA 00000001800e7f70     libucrt:exit.obj
 0004:00002088       _environ_table             00000001800e8088     libucrt:environment_initialization.obj
 0004:00002090       _wenviron_table            00000001800e8090     libucrt:environment_initialization.obj
 0004:00002098       __dcrt_initial_wide_environment 00000001800e8098     libucrt:environment_initialization.obj
 0004:000020a0       __dcrt_initial_narrow_environment 00000001800e80a0     libucrt:environment_initialization.obj
 0004:000020a8       __acrt_atexit_table        00000001800e80a8     libucrt:onexit.obj
 0004:000020c0       __acrt_at_quick_exit_table 00000001800e80c0     libucrt:onexit.obj
 0004:000020d8       __fma3_is_available        00000001800e80d8     libucrt:fma3_available.obj
 0004:000020dc       __use_fma3_lib             00000001800e80dc     libucrt:fma3_available.obj
 0004:000020e8       ?_timezone@@3V?$dual_state_global@J@__crt_state_management@@A 00000001800e80e8     libucrt:timeset.obj
 0004:000020ec       ?_daylight@@3V?$dual_state_global@H@__crt_state_management@@A 00000001800e80ec     libucrt:timeset.obj
 0004:000020f0       ?_dstbias@@3V?$dual_state_global@J@__crt_state_management@@A 00000001800e80f0     libucrt:timeset.obj
 0004:000021cc       __acrt_locale_changed_data 00000001800e81cc     libucrt:wsetlocale.obj
 0004:000021d0       __acrt_current_locale_data 00000001800e81d0     libucrt:nlsdata.obj
 0004:000025b0       __pioinfo                  00000001800e85b0     libucrt:ioinit.obj
 0004:000029b0       _nhandle                   00000001800e89b0     libucrt:ioinit.obj
 0004:000029b8       __acrt_stdout_buffer       00000001800e89b8     libucrt:_sftbuf.obj
 0004:000029c0       __acrt_stderr_buffer       00000001800e89c0     libucrt:_sftbuf.obj
 0004:000029d8       _mbctype                   00000001800e89d8     libucrt:mbctype.obj
 0004:000029e0       _mbcasemap                 00000001800e89e0     libucrt:mbctype.obj
 0004:000029e8       __acrt_current_multibyte_data 00000001800e89e8     libucrt:mbctype.obj
 0004:000029f8       _pgmptr                    00000001800e89f8     libucrt:argv_data.obj
 0004:00002a00       __argc                     00000001800e8a00     libucrt:argv_data.obj
 0004:00002a08       __argv                     00000001800e8a08     libucrt:argv_data.obj
 0004:00002a10       __wargv                    00000001800e8a10     libucrt:argv_data.obj
 0004:00002a18       _acmdln                    00000001800e8a18     libucrt:argv_data.obj
 0004:00002a20       _wcmdln                    00000001800e8a20     libucrt:argv_data.obj
 0004:00002a28       __acrt_heap                00000001800e8a28     libucrt:heap_handle.obj
 0004:00002a5c       __acrt_lconv_static_null   00000001800e8a5c     libucrt:localeconv.obj
 0004:00002a60       __acrt_lconv_static_W_null 00000001800e8a60     libucrt:localeconv.obj
 0004:00002a70       _fmode                     00000001800e8a70     libucrt:txtmode.obj
 0004:00002a74       __scrt_ucrt_dll_is_in_use  00000001800e8a74     <common>
 0004:00002a78       __dyn_tls_init_callback    00000001800e8a78     <common>

 entry point at        0001:000a6ffc

 Static symbols

 0000:fff0c000       .debug$S                   0000000180000000     openh264_dll.exp
 0000:fff0c000       .debug$S                   0000000180000000     kernel32:KERNEL32.dll
 0000:fff0c000       .debug$S                   0000000180000000     kernel32:KERNEL32.dll
 0000:fff0c000       .debug$S                   0000000180000000     kernel32:KERNEL32.dll
 0000:fff0c000       .debug$S                   0000000180000000     kernel32:KERNEL32.dll
 0000:fff0c000       .debug$S                   0000000180000000     kernel32:KERNEL32.dll
 0000:fff0c000       .debug$S                   0000000180000000     kernel32:KERNEL32.dll
 0000:fff0c000       .debug$S                   0000000180000000     kernel32:KERNEL32.dll
 0000:fff0c000       .debug$S                   0000000180000000     kernel32:KERNEL32.dll
 0000:fff0c000       .debug$S                   0000000180000000     kernel32:KERNEL32.dll
 0000:fff0c000       .debug$S                   0000000180000000     kernel32:KERNEL32.dll
 0000:fff0c000       .debug$S                   0000000180000000     kernel32:KERNEL32.dll
 0000:fff0c000       .debug$S                   0000000180000000     kernel32:KERNEL32.dll
 0000:fff0c000       .debug$S                   0000000180000000     kernel32:KERNEL32.dll
 0000:fff0c000       .debug$S                   0000000180000000     kernel32:KERNEL32.dll
 0000:fff0c000       .debug$S                   0000000180000000     kernel32:KERNEL32.dll
 0000:fff0c000       .debug$S                   0000000180000000     kernel32:KERNEL32.dll
 0000:fff0c000       .debug$S                   0000000180000000     kernel32:KERNEL32.dll
 0000:fff0c000       .debug$S                   0000000180000000     kernel32:KERNEL32.dll
 0000:fff0c000       .debug$S                   0000000180000000     kernel32:KERNEL32.dll
 0000:fff0c000       .debug$S                   0000000180000000     kernel32:KERNEL32.dll
 0000:fff0c000       .debug$S                   0000000180000000     kernel32:KERNEL32.dll
 0000:fff0c000       .debug$S                   0000000180000000     kernel32:KERNEL32.dll
 0000:fff0c000       .debug$S                   0000000180000000     kernel32:KERNEL32.dll
 0000:fff0c000       .debug$S                   0000000180000000     kernel32:KERNEL32.dll
 0000:fff0c000       .debug$S                   0000000180000000     kernel32:KERNEL32.dll
 0000:fff0c000       .debug$S                   0000000180000000     kernel32:KERNEL32.dll
 0000:fff0c000       .debug$S                   0000000180000000     kernel32:KERNEL32.dll
 0000:fff0c000       .debug$S                   0000000180000000     kernel32:KERNEL32.dll
 0000:fff0c000       .debug$S                   0000000180000000     kernel32:KERNEL32.dll
 0000:fff0c000       .debug$S                   0000000180000000     kernel32:KERNEL32.dll
 0000:fff0c000       .debug$S                   0000000180000000     kernel32:KERNEL32.dll
 0000:fff0c000       .debug$S                   0000000180000000     kernel32:KERNEL32.dll
 0000:fff0c000       .debug$S                   0000000180000000     kernel32:KERNEL32.dll
 0000:fff0c000       .debug$S                   0000000180000000     kernel32:KERNEL32.dll
 0000:fff0c000       .debug$S                   0000000180000000     kernel32:KERNEL32.dll
 0000:fff0c000       .debug$S                   0000000180000000     kernel32:KERNEL32.dll
 0000:fff0c000       .debug$S                   0000000180000000     kernel32:KERNEL32.dll
 0000:fff0c000       .debug$S                   0000000180000000     kernel32:KERNEL32.dll
 0000:fff0c000       .debug$S                   0000000180000000     kernel32:KERNEL32.dll
 0000:fff0c000       .debug$S                   0000000180000000     kernel32:KERNEL32.dll
 0000:fff0c000       .debug$S                   0000000180000000     kernel32:KERNEL32.dll
 0000:fff0c000       .debug$S                   0000000180000000     kernel32:KERNEL32.dll
 0000:fff0c000       .debug$S                   0000000180000000     kernel32:KERNEL32.dll
 0000:fff0c000       .debug$S                   0000000180000000     kernel32:KERNEL32.dll
 0000:fff0c000       .debug$S                   0000000180000000     kernel32:KERNEL32.dll
 0000:fff0c000       .debug$S                   0000000180000000     kernel32:KERNEL32.dll
 0000:fff0c000       .debug$S                   0000000180000000     kernel32:KERNEL32.dll
 0000:fff0c000       .debug$S                   0000000180000000     kernel32:KERNEL32.dll
 0000:fff0c000       .debug$S                   0000000180000000     kernel32:KERNEL32.dll
 0000:fff0c000       .debug$S                   0000000180000000     kernel32:KERNEL32.dll
 0000:fff0c000       .debug$S                   0000000180000000     kernel32:KERNEL32.dll
 0000:fff0c000       .debug$S                   0000000180000000     kernel32:KERNEL32.dll
 0000:fff0c000       .debug$S                   0000000180000000     kernel32:KERNEL32.dll
 0000:fff0c000       .debug$S                   0000000180000000     kernel32:KERNEL32.dll
 0000:fff0c000       .debug$S                   0000000180000000     kernel32:KERNEL32.dll
 0000:fff0c000       .debug$S                   0000000180000000     kernel32:KERNEL32.dll
 0000:fff0c000       .debug$S                   0000000180000000     kernel32:KERNEL32.dll
 0000:fff0c000       .debug$S                   0000000180000000     kernel32:KERNEL32.dll
 0000:fff0c000       .debug$S                   0000000180000000     kernel32:KERNEL32.dll
 0000:fff0c000       .debug$S                   0000000180000000     kernel32:KERNEL32.dll
 0000:fff0c000       .debug$S                   0000000180000000     kernel32:KERNEL32.dll
 0000:fff0c000       .debug$S                   0000000180000000     kernel32:KERNEL32.dll
 0000:fff0c000       .debug$S                   0000000180000000     kernel32:KERNEL32.dll
 0000:fff0c000       .debug$S                   0000000180000000     kernel32:KERNEL32.dll
 0000:fff0c000       .debug$S                   0000000180000000     kernel32:KERNEL32.dll
 0000:fff0c000       .debug$S                   0000000180000000     kernel32:KERNEL32.dll
 0000:fff0c000       .debug$S                   0000000180000000     kernel32:KERNEL32.dll
 0000:fff0c000       .debug$S                   0000000180000000     kernel32:KERNEL32.dll
 0000:fff0c000       .debug$S                   0000000180000000     kernel32:KERNEL32.dll
 0000:fff0c000       .debug$S                   0000000180000000     kernel32:KERNEL32.dll
 0000:fff0c000       .debug$S                   0000000180000000     kernel32:KERNEL32.dll
 0000:fff0c000       .debug$S                   0000000180000000     kernel32:KERNEL32.dll
 0000:fff0c000       .debug$S                   0000000180000000     kernel32:KERNEL32.dll
 0000:fff0c000       .debug$S                   0000000180000000     kernel32:KERNEL32.dll
 0000:fff0c000       .debug$S                   0000000180000000     kernel32:KERNEL32.dll
 0000:fff0c000       .debug$S                   0000000180000000     kernel32:KERNEL32.dll
 0000:fff0c000       .debug$S                   0000000180000000     kernel32:KERNEL32.dll
 0000:fff0c000       .debug$S                   0000000180000000     kernel32:KERNEL32.dll
 0000:fff0c000       .debug$S                   0000000180000000     kernel32:KERNEL32.dll
 0000:fff0c000       .debug$S                   0000000180000000     kernel32:KERNEL32.dll
 0000:fff0c000       .debug$S                   0000000180000000     kernel32:KERNEL32.dll
 0000:fff0c000       .debug$S                   0000000180000000     kernel32:KERNEL32.dll
 0000:fff0c000       .debug$S                   0000000180000000     kernel32:KERNEL32.dll
 0000:fff0c000       .debug$S                   0000000180000000     kernel32:KERNEL32.dll
 0000:fff0c000       .debug$S                   0000000180000000     kernel32:KERNEL32.dll
 0000:fff0c000       .debug$S                   0000000180000000     kernel32:KERNEL32.dll
 0000:fff0c000       .debug$S                   0000000180000000     kernel32:KERNEL32.dll
 0000:fff0c000       .debug$S                   0000000180000000     kernel32:KERNEL32.dll
 0000:fff0c000       .debug$S                   0000000180000000     kernel32:KERNEL32.dll
 0000:fff0c000       .debug$S                   0000000180000000     kernel32:KERNEL32.dll
 0000:fff0c000       .debug$S                   0000000180000000     kernel32:KERNEL32.dll
 0000:fff0c000       .debug$S                   0000000180000000     kernel32:KERNEL32.dll
 0000:fff0c000       .debug$S                   0000000180000000     kernel32:KERNEL32.dll
 0000:fff0c000       .debug$S                   0000000180000000     kernel32:KERNEL32.dll
 0000:fff0c000       .debug$S                   0000000180000000     kernel32:KERNEL32.dll
 0000:fff0c000       .debug$S                   0000000180000000     kernel32:KERNEL32.dll
 0000:fff0c000       .debug$S                   0000000180000000     kernel32:KERNEL32.dll
 0000:fff0c000       .debug$S                   0000000180000000     kernel32:KERNEL32.dll
 0000:fff0c000       .debug$S                   0000000180000000     kernel32:KERNEL32.dll
 0000:fff0c000       .debug$S                   0000000180000000     kernel32:KERNEL32.dll
 0000:fff0c000       .debug$S                   0000000180000000     kernel32:KERNEL32.dll
 0000:fff0c000       .debug$S                   0000000180000000     kernel32:KERNEL32.dll
 0000:fff0c000       .debug$S                   0000000180000000     kernel32:KERNEL32.dll
 0000:fff0c000       .debug$S                   0000000180000000     kernel32:KERNEL32.dll
 0000:fff0c000       .debug$S                   0000000180000000     kernel32:KERNEL32.dll
 0000:fff0c000       .debug$S                   0000000180000000     kernel32:KERNEL32.dll
 0001:00000021       CavlcParamCal_sse42.load16 0000000180001021     coeff.obj
 0001:0000002c       CavlcParamCal_sse42.load_done 000000018000102c     coeff.obj
 0001:00000095       CavlcParamCal_sse42.loop   0000000180001095     coeff.obj
 0001:000000d0       CavlcParamCal_sse42.done   00000001800010d0     coeff.obj
 0001:0000051d       get_i16x16_luma_pred_plane_sse2_1 000000018000151d     intra_pred.obj
 0001:000006d7       get_i_chroma_pred_plane_sse2_1 00000001800016d7     intra_pred.obj
 0001:000011bf       TRANSPOSE_LOOP_SSE2        00000001800021bf     matrix_transpose.obj
 0001:0000168a       TRANSPOSE_BLOCKS_X8_LOOP_MMX 000000018000268a     matrix_transpose.obj
 0001:000017da       WelsSetMemZeroAligned64_sse2.memzeroa64_sse2_loops 00000001800027da     memzero.obj
 0001:00001809       WelsSetMemZeroSize64_mmx.memzero64_mmx_loops 0000000180002809     memzero.obj
 0001:00001849       WelsSetMemZeroSize8_mmx.memzero8_mmx_loops 0000000180002849     memzero.obj
 0001:0000220a       FIRST_ROW                  000000018000320a     sample_sc.obj
 0001:0000229a       HEIGHT_LOOP                000000018000329a     sample_sc.obj
 0001:0000229d       WIDTH_LOOP                 000000018000329d     sample_sc.obj
 0001:00002329       FIRST_ROW_SSE4             0000000180003329     sample_sc.obj
 0001:000024ac       HEIGHT_LOOP_SSE4           00000001800034ac     sample_sc.obj
 0001:000024af       WIDTH_LOOP_SSE4            00000001800034af     sample_sc.obj
 0001:000025c6       FIRST_ROW_X16H             00000001800035c6     sample_sc.obj
 0001:000026f1       HEIGHT_LOOP_X16            00000001800036f1     sample_sc.obj
 0001:000026f4       WIDTH_LOOP_X16             00000001800036f4     sample_sc.obj
 0001:00002785       FIRST_ROW_X16_SSE4         0000000180003785     sample_sc.obj
 0001:00002bfa       HEIGHT_LOOP_X16_SSE4       0000000180003bfa     sample_sc.obj
 0001:00002bfd       WIDTH_LOOP_X16_SSE4        0000000180003bfd     sample_sc.obj
 0001:00002d6c       HASH_HEIGHT_LOOP_SSE2      0000000180003d6c     sample_sc.obj
 0001:00002d73       HASH_WIDTH_LOOP_SSE2       0000000180003d73     sample_sc.obj
 0001:00002e70       hash_assign_loop_x4_sse2   0000000180003e70     sample_sc.obj
 0001:00002f10       hash_assign_with_copy_sse2 0000000180003f10     sample_sc.obj
 0001:00002f34       assign_next_sse2           0000000180003f34     sample_sc.obj
 0001:00002f4b       hash_assign_loop_x4_rem_sse2 0000000180003f4b     sample_sc.obj
 0001:00002f73       hash_assign_no_rem_sse2    0000000180003f73     sample_sc.obj
 0001:000035b7       WRITE_INDEX                00000001800045b7     sample_sc.obj
 0001:000038a2       WelsCalculateSingleCtr4x4_sse2.loop_low8_find1 00000001800048a2     score.obj
 0001:000038ad       WelsCalculateSingleCtr4x4_sse2.loop_high8_find1 00000001800048ad     score.obj
 0001:000038bc       WelsCalculateSingleCtr4x4_sse2.find1end 00000001800048bc     score.obj
 0001:00003ccf       get_i16x16_luma_pred_plane_sse2_1 0000000180004ccf     intra_pred.obj
 0001:000040e9       get_i_chroma_pred_plane_sse2_1 00000001800050e9     intra_pred.obj
 0001:00004fbe       DyadicBilinearDownsamplerWidthx32_sse.yloops1 0000000180005fbe     downsample_bilinear.obj
 0001:00004fce       DyadicBilinearDownsamplerWidthx32_sse.xloops1 0000000180005fce     downsample_bilinear.obj
 0001:000050fe       DyadicBilinearDownsamplerWidthx16_sse.yloops2 00000001800060fe     downsample_bilinear.obj
 0001:0000510e       DyadicBilinearDownsamplerWidthx16_sse.xloops2 000000018000610e     downsample_bilinear.obj
 0001:000051ce       DyadicBilinearDownsamplerWidthx8_sse.yloops3 00000001800061ce     downsample_bilinear.obj
 0001:000051de       DyadicBilinearDownsamplerWidthx8_sse.xloops3 00000001800061de     downsample_bilinear.obj
 0001:00005285       DyadicBilinearDownsamplerWidthx32_ssse3.yloops4 0000000180006285     downsample_bilinear.obj
 0001:000052a0       ..@52.end                  00000001800062a0     downsample_bilinear.obj
 0001:000052a0       DyadicBilinearDownsamplerWidthx32_ssse3.xloops4 00000001800062a0     downsample_bilinear.obj
 0001:00005338       DyadicBilinearDownsamplerWidthx16_ssse3.yloops5 0000000180006338     downsample_bilinear.obj
 0001:00005350       ..@69.end                  0000000180006350     downsample_bilinear.obj
 0001:00005350       DyadicBilinearDownsamplerWidthx16_ssse3.xloops5 0000000180006350     downsample_bilinear.obj
 0001:0000544a       DOWNSAMPLE                 000000018000644a     downsample_bilinear.obj
 0001:0000545b       HEIGHT                     000000018000645b     downsample_bilinear.obj
 0001:0000547f       WIDTH                      000000018000647f     downsample_bilinear.obj
 0001:000054f6       WIDTH_END                  00000001800064f6     downsample_bilinear.obj
 0001:00005520       LAST_ROW                   0000000180006520     downsample_bilinear.obj
 0001:00005531       LAST_ROW_WIDTH             0000000180006531     downsample_bilinear.obj
 0001:00005548       LAST_ROW_END               0000000180006548     downsample_bilinear.obj
 0001:00005626       FAST_DOWNSAMPLE            0000000180006626     downsample_bilinear.obj
 0001:0000563c       FAST_HEIGHT                000000018000663c     downsample_bilinear.obj
 0001:00005660       FAST_WIDTH                 0000000180006660     downsample_bilinear.obj
 0001:000056bb       FAST_WIDTH_END             00000001800066bb     downsample_bilinear.obj
 0001:000056e5       FAST_LAST_ROW              00000001800066e5     downsample_bilinear.obj
 0001:000056f6       FAST_LAST_ROW_WIDTH        00000001800066f6     downsample_bilinear.obj
 0001:0000570d       FAST_LAST_ROW_END          000000018000670d     downsample_bilinear.obj
 0001:00005769       DyadicBilinearOneThirdDownsampler_ssse3.yloops_onethird_sse3 0000000180006769     downsample_bilinear.obj
 0001:0000576f       DyadicBilinearOneThirdDownsampler_ssse3.xloops_onethird_sse3 000000018000676f     downsample_bilinear.obj
 0001:00005909       DyadicBilinearOneThirdDownsampler_sse4.yloops_onethird_sse4 0000000180006909     downsample_bilinear.obj
 0001:0000590f       DyadicBilinearOneThirdDownsampler_sse4.xloops_onethird_sse4 000000018000690f     downsample_bilinear.obj
 0001:00005aad       DyadicBilinearQuarterDownsampler_sse.yloops_quarter_sse 0000000180006aad     downsample_bilinear.obj
 0001:00005ab3       DyadicBilinearQuarterDownsampler_sse.xloops_quarter_sse 0000000180006ab3     downsample_bilinear.obj
 0001:00005c15       DyadicBilinearQuarterDownsampler_ssse3.yloops_quarter_sse3 0000000180006c15     downsample_bilinear.obj
 0001:00005c1b       DyadicBilinearQuarterDownsampler_ssse3.xloops_quarter_sse3 0000000180006c1b     downsample_bilinear.obj
 0001:00005d05       DyadicBilinearQuarterDownsampler_sse4.yloops_quarter_sse4 0000000180006d05     downsample_bilinear.obj
 0001:00005d0b       DyadicBilinearQuarterDownsampler_sse4.xloops_quarter_sse4 0000000180006d0b     downsample_bilinear.obj
 0001:00005f31       ..@181.height              0000000180006f31     downsample_bilinear.obj
 0001:00005f86       ..@181.width               0000000180006f86     downsample_bilinear.obj
 0001:0000608b       ..@188.height              000000018000708b     downsample_bilinear.obj
 0001:0000608b       GeneralBilinearFastDownsampler_ssse3.scalex_above2_beloweq4 000000018000708b     downsample_bilinear.obj
 0001:000060e0       ..@188.width               00000001800070e0     downsample_bilinear.obj
 0001:00006211       GeneralBilinearFastDownsampler_ssse3.scalex_above4 0000000180007211     downsample_bilinear.obj
 0001:00006246       ..@196.height              0000000180007246     downsample_bilinear.obj
 0001:0000629b       ..@196.width               000000018000729b     downsample_bilinear.obj
 0001:000063fa       GeneralBilinearFastDownsampler_ssse3.final_row 00000001800073fa     downsample_bilinear.obj
 0001:00006411       GeneralBilinearFastDownsampler_ssse3.final_row_width 0000000180007411     downsample_bilinear.obj
 0001:0000642d       GeneralBilinearFastDownsampler_ssse3.done 000000018000742d     downsample_bilinear.obj
 0001:00006624       ..@214.height              0000000180007624     downsample_bilinear.obj
 0001:00006674       ..@214.width               0000000180007674     downsample_bilinear.obj
 0001:000067be       ..@220.height              00000001800077be     downsample_bilinear.obj
 0001:000067be       GeneralBilinearAccurateDownsampler_sse41.scalex_above2_beloweq4 00000001800077be     downsample_bilinear.obj
 0001:0000680e       ..@220.width               000000018000780e     downsample_bilinear.obj
 0001:0000697b       GeneralBilinearAccurateDownsampler_sse41.scalex_above4 000000018000797b     downsample_bilinear.obj
 0001:000069b1       ..@227.height              00000001800079b1     downsample_bilinear.obj
 0001:00006a01       ..@227.width               0000000180007a01     downsample_bilinear.obj
 0001:00006ba4       GeneralBilinearAccurateDownsampler_sse41.final_row 0000000180007ba4     downsample_bilinear.obj
 0001:00006bbb       GeneralBilinearAccurateDownsampler_sse41.final_row_width 0000000180007bbb     downsample_bilinear.obj
 0001:00006bd7       GeneralBilinearAccurateDownsampler_sse41.done 0000000180007bd7     downsample_bilinear.obj
 0001:00006dc0       ..@244.height              0000000180007dc0     downsample_bilinear.obj
 0001:00006e0c       ..@244.width               0000000180007e0c     downsample_bilinear.obj
 0001:00006f18       GeneralBilinearFastDownsampler_avx2.scalex_above2_beloweq4 0000000180007f18     downsample_bilinear.obj
 0001:00006f1b       ..@251.height              0000000180007f1b     downsample_bilinear.obj
 0001:00006f67       ..@251.width               0000000180007f67     downsample_bilinear.obj
 0001:000070ad       GeneralBilinearFastDownsampler_avx2.scalex_above4 00000001800080ad     downsample_bilinear.obj
 0001:000070bd       ..@258.height              00000001800080bd     downsample_bilinear.obj
 0001:00007109       ..@258.width               0000000180008109     downsample_bilinear.obj
 0001:000072d7       GeneralBilinearFastDownsampler_avx2.scalex_above8 00000001800082d7     downsample_bilinear.obj
 0001:00007308       ..@266.height              0000000180008308     downsample_bilinear.obj
 0001:00007354       ..@266.width               0000000180008354     downsample_bilinear.obj
 0001:000075b2       GeneralBilinearFastDownsampler_avx2.final_row 00000001800085b2     downsample_bilinear.obj
 0001:000075c9       GeneralBilinearFastDownsampler_avx2.final_row_width 00000001800085c9     downsample_bilinear.obj
 0001:000075e5       GeneralBilinearFastDownsampler_avx2.done 00000001800085e5     downsample_bilinear.obj
 0001:000077f4       ..@284.height              00000001800087f4     downsample_bilinear.obj
 0001:00007840       ..@284.width               0000000180008840     downsample_bilinear.obj
 0001:00007996       GeneralBilinearAccurateDownsampler_avx2.scalex_above2_beloweq4 0000000180008996     downsample_bilinear.obj
 0001:00007999       ..@290.height              0000000180008999     downsample_bilinear.obj
 0001:000079e5       ..@290.width               00000001800089e5     downsample_bilinear.obj
 0001:00007b7b       GeneralBilinearAccurateDownsampler_avx2.scalex_above4 0000000180008b7b     downsample_bilinear.obj
 0001:00007b8b       ..@296.height              0000000180008b8b     downsample_bilinear.obj
 0001:00007bd7       ..@296.width               0000000180008bd7     downsample_bilinear.obj
 0001:00007df2       GeneralBilinearAccurateDownsampler_avx2.scalex_above8 0000000180008df2     downsample_bilinear.obj
 0001:00007e23       ..@303.height              0000000180008e23     downsample_bilinear.obj
 0001:00007e6f       ..@303.width               0000000180008e6f     downsample_bilinear.obj
 0001:0000811e       GeneralBilinearAccurateDownsampler_avx2.final_row 000000018000911e     downsample_bilinear.obj
 0001:00008135       GeneralBilinearAccurateDownsampler_avx2.final_row_width 0000000180009135     downsample_bilinear.obj
 0001:00008151       GeneralBilinearAccurateDownsampler_avx2.done 0000000180009151     downsample_bilinear.obj
 0001:000081f0       SampleVariance16x16_sse2.hloops 00000001800091f0     vaa.obj
 0001:00008372       height_loop                0000000180009372     vaa.obj
 0001:00008377       width_loop                 0000000180009377     vaa.obj
 0001:00008596       var_height_loop            0000000180009596     vaa.obj
 0001:0000859e       var_width_loop             000000018000959e     vaa.obj
 0001:00008b0b       sqdiff_height_loop         0000000180009b0b     vaa.obj
 0001:00008b13       sqdiff_width_loop          0000000180009b13     vaa.obj
 0001:0000938e       bgd_height_loop            000000018000a38e     vaa.obj
 0001:00009396       bgd_width_loop             000000018000a396     vaa.obj
 0001:00009993       sqdiff_bgd_height_loop     000000018000a993     vaa.obj
 0001:0000999b       sqdiff_bgd_width_loop      000000018000a99b     vaa.obj
 0001:0000a652       VAACalcSad_avx2.height_loop 000000018000b652     vaa.obj
 0001:0000a664       VAACalcSad_avx2.width_loop_upper8 000000018000b664     vaa.obj
 0001:0000a6fa       VAACalcSad_avx2.width_loop_upper8_remaining16 000000018000b6fa     vaa.obj
 0001:0000a780       VAACalcSad_avx2.width_loop_upper8_end 000000018000b780     vaa.obj
 0001:0000a7a1       VAACalcSad_avx2.width_loop_lower8 000000018000b7a1     vaa.obj
 0001:0000a844       VAACalcSad_avx2.width_loop_lower8_remaining16 000000018000b844     vaa.obj
 0001:0000a8ca       VAACalcSad_avx2.width_loop_lower8_end 000000018000b8ca     vaa.obj
 0001:0000a8f0       VAACalcSad_avx2.done       000000018000b8f0     vaa.obj
 0001:0000a97f       VAACalcSadVar_avx2.height_loop 000000018000b97f     vaa.obj
 0001:0000a99c       VAACalcSadVar_avx2.width_loop_upper8 000000018000b99c     vaa.obj
 0001:0000ab65       VAACalcSadVar_avx2.width_loop_upper8_remaining16 000000018000bb65     vaa.obj
 0001:0000ab82       ..@277.loop                000000018000bb82     vaa.obj
 0001:0000abfd       VAACalcSadVar_avx2.width_loop_upper8_end 000000018000bbfd     vaa.obj
 0001:0000ac1b       VAACalcSadVar_avx2.width_loop_lower8 000000018000bc1b     vaa.obj
 0001:0000ae05       VAACalcSadVar_avx2.width_loop_lower8_remaining16 000000018000be05     vaa.obj
 0001:0000ae22       ..@328.loop                000000018000be22     vaa.obj
 0001:0000aeb1       VAACalcSadVar_avx2.width_loop_lower8_end 000000018000beb1     vaa.obj
 0001:0000aecd       VAACalcSadVar_avx2.done    000000018000becd     vaa.obj
 0001:0000af89       VAACalcSadSsd_avx2.height_loop 000000018000bf89     vaa.obj
 0001:0000afa9       VAACalcSadSsd_avx2.width_loop_upper8 000000018000bfa9     vaa.obj
 0001:0000b2c9       VAACalcSadSsd_avx2.width_loop_upper8_remaining16 000000018000c2c9     vaa.obj
 0001:0000b2ea       ..@409.loop                000000018000c2ea     vaa.obj
 0001:0000b3a2       VAACalcSadSsd_avx2.width_loop_upper8_end 000000018000c3a2     vaa.obj
 0001:0000b3c0       VAACalcSadSsd_avx2.width_loop_lower8 000000018000c3c0     vaa.obj
 0001:0000b709       VAACalcSadSsd_avx2.width_loop_lower8_remaining16 000000018000c709     vaa.obj
 0001:0000b72a       ..@480.loop                000000018000c72a     vaa.obj
 0001:0000b800       VAACalcSadSsd_avx2.width_loop_lower8_end 000000018000c800     vaa.obj
 0001:0000b81c       VAACalcSadSsd_avx2.done    000000018000c81c     vaa.obj
 0001:0000b8e1       VAACalcSadBgd_avx2.height_loop 000000018000c8e1     vaa.obj
 0001:0000b901       VAACalcSadBgd_avx2.width_loop_upper8 000000018000c901     vaa.obj
 0001:0000bb0a       ..@504.preserve_mad        000000018000cb0a     vaa.obj
 0001:0000bb1a       VAACalcSadBgd_avx2.width_loop_upper8_64x_end 000000018000cb1a     vaa.obj
 0001:0000bb28       VAACalcSadBgd_avx2.width_loop_upper8_32x_end 000000018000cb28     vaa.obj
 0001:0000bb71       ..@549.skip                000000018000cb71     vaa.obj
 0001:0000bba0       ..@552.loop                000000018000cba0     vaa.obj
 0001:0000bc37       VAACalcSadBgd_avx2.width_loop_upper8_end 000000018000cc37     vaa.obj
 0001:0000bc5e       VAACalcSadBgd_avx2.width_loop_lower8 000000018000cc5e     vaa.obj
 0001:0000be90       ..@562.preserve_mad        000000018000ce90     vaa.obj
 0001:0000bea0       VAACalcSadBgd_avx2.width_loop_lower8_64x_end 000000018000cea0     vaa.obj
 0001:0000beae       VAACalcSadBgd_avx2.width_loop_lower8_32x_end 000000018000ceae     vaa.obj
 0001:0000bef9       ..@607.skip                000000018000cef9     vaa.obj
 0001:0000bf28       ..@610.loop                000000018000cf28     vaa.obj
 0001:0000bfc3       VAACalcSadBgd_avx2.width_loop_lower8_end 000000018000cfc3     vaa.obj
 0001:0000bfe5       VAACalcSadBgd_avx2.done    000000018000cfe5     vaa.obj
 0001:0000c0e3       VAACalcSadSsdBgd_avx2.height_loop 000000018000d0e3     vaa.obj
 0001:0000c111       VAACalcSadSsdBgd_avx2.width_loop_upper8 000000018000d111     vaa.obj
 0001:0000c51a       ..@633.preserve_mad        000000018000d51a     vaa.obj
 0001:0000c55d       VAACalcSadSsdBgd_avx2.width_loop_upper8_64x_end 000000018000d55d     vaa.obj
 0001:0000c56b       VAACalcSadSsdBgd_avx2.width_loop_upper8_32x_end 000000018000d56b     vaa.obj
 0001:0000c5b9       ..@696.skip                000000018000d5b9     vaa.obj
 0001:0000c5f0       ..@699.loop                000000018000d5f0     vaa.obj
 0001:0000c704       VAACalcSadSsdBgd_avx2.width_loop_upper8_end 000000018000d704     vaa.obj
 0001:0000c72b       VAACalcSadSsdBgd_avx2.width_loop_lower8 000000018000d72b     vaa.obj
 0001:0000cb64       ..@713.preserve_mad        000000018000db64     vaa.obj
 0001:0000cbbb       VAACalcSadSsdBgd_avx2.width_loop_lower8_64x_end 000000018000dbbb     vaa.obj
 0001:0000cbc9       VAACalcSadSsdBgd_avx2.width_loop_lower8_32x_end 000000018000dbc9     vaa.obj
 0001:0000cc19       ..@776.skip                000000018000dc19     vaa.obj
 0001:0000cc50       ..@779.loop                000000018000dc50     vaa.obj
 0001:0000cd85       VAACalcSadSsdBgd_avx2.width_loop_lower8_end 000000018000dd85     vaa.obj
 0001:0000cda7       VAACalcSadSsdBgd_avx2.done 000000018000dda7     vaa.obj
 0001:0000ce58       avx_not_supported          000000018000de58     cpuid.obj
 0001:0000ce88       fma_not_supported          000000018000de88     cpuid.obj
 0001:0000cee0       avx512_not_supported       000000018000dee0     cpuid.obj
 0001:0000d015       WelsIDctT4Rec_mmx.begin    000000018000e015     dct.obj
 0001:0000d995       WelsIDctT4Rec_sse2.begin   000000018000e995     dct.obj
 0001:0000e0e5       WelsIDctFourT4Rec_avx2.begin 000000018000f0e5     dct.obj
 0001:0000e425       WelsIDctT4Rec_avx2.begin   000000018000f425     dct.obj
 0001:0000f6fb       ExpandPictureLuma_sse2.top_bottom_loops 00000001800106fb     expand_picture.obj
 0001:0000f912       ExpandPictureLuma_sse2.left_right_loops 0000000180010912     expand_picture.obj
 0001:000100fe       ExpandPictureChromaAlign_sse2.top_bottom_loops 00000001800110fe     expand_picture.obj
 0001:000102d9       ExpandPictureChromaAlign_sse2.to_be_continued 00000001800112d9     expand_picture.obj
 0001:0001030b       ExpandPictureChromaAlign_sse2.left_right_loops 000000018001130b     expand_picture.obj
 0001:000105fe       ExpandPictureChromaUnalign_sse2.top_bottom_loops 00000001800115fe     expand_picture.obj
 0001:000107d9       ExpandPictureChromaUnalign_sse2.to_be_continued 00000001800117d9     expand_picture.obj
 0001:0001080b       ExpandPictureChromaUnalign_sse2.left_right_loops 000000018001180b     expand_picture.obj
 0001:0001114c       ..@67.end                  000000018001214c     mb_copy.obj
 0001:0001114c       PixelAvgWidthEq4_mmx.height_loop 000000018001214c     mb_copy.obj
 0001:0001118c       ..@80.end                  000000018001218c     mb_copy.obj
 0001:0001118c       PixelAvgWidthEq8_mmx.height_loop 000000018001218c     mb_copy.obj
 0001:000111dc       ..@93.end                  00000001800121dc     mb_copy.obj
 0001:000111dc       PixelAvgWidthEq16_sse2.height_loop 00000001800121dc     mb_copy.obj
 0001:00011280       ..@103.loop                0000000180012280     mb_copy.obj
 0001:00011280       ..@106.end                 0000000180012280     mb_copy.obj
 0001:000112d0       ..@118.end                 00000001800122d0     mb_copy.obj
 0001:000112d0       McCopyWidthEq16_sse2.height_loop 00000001800122d0     mb_copy.obj
 0001:00011340       ..@132.loop                0000000180012340     mb_copy.obj
 0001:00011340       ..@135.end                 0000000180012340     mb_copy.obj
 0001:000113c8       McChromaWidthEq4_mmx.xloop 00000001800123c8     mc_chroma.obj
 0001:0001148b       McChromaWidthEq8_sse2.xloop 000000018001248b     mc_chroma.obj
 0001:0001156d       McChromaWidthEq8_ssse3.hloop_chroma 000000018001256d     mc_chroma.obj
 0001:0001161c       McHorVer20WidthEq4_mmx.height_loop 000000018001261c     mc_luma.obj
 0001:000116a7       McHorVer22Width8HorFirst_sse2.yloop_width_8 00000001800126a7     mc_luma.obj
 0001:0001174d       McHorVer20WidthEq8_sse2.y_loop 000000018001274d     mc_luma.obj
 0001:0001180d       McHorVer20WidthEq16_sse2.y_loop 000000018001280d     mc_luma.obj
 0001:00011972       McHorVer02WidthEq8_sse2.start 0000000180012972     mc_luma.obj
 0001:00011c47       McHorVer02WidthEq8_sse2.xx_exit 0000000180012c47     mc_luma.obj
 0001:00011c9e       McHorVer02Height9Or17_sse2.xloop 0000000180012c9e     mc_luma.obj
 0001:00011d4e       McHorVer02Height9Or17_sse2.start 0000000180012d4e     mc_luma.obj
 0001:00012023       McHorVer02Height9Or17_sse2.x_loop_dec 0000000180013023     mc_luma.obj
 0001:00012048       McHorVer02Height9Or17_sse2.xx_exit 0000000180013048     mc_luma.obj
 0001:0001209e       McHorVer02Height5_sse2.xloop 000000018001309e     mc_luma.obj
 0001:0001214e       McHorVer02Height5_sse2.start 000000018001314e     mc_luma.obj
 0001:00012423       McHorVer02Height5_sse2.x_loop_dec 0000000180013423     mc_luma.obj
 0001:00012448       McHorVer02Height5_sse2.xx_exit 0000000180013448     mc_luma.obj
 0001:00012497       McHorVer20Width9Or17_sse2.yloop_width_9 0000000180013497     mc_luma.obj
 0001:00012571       McHorVer20Width9Or17_sse2.width_17 0000000180013571     mc_luma.obj
 0001:00012571       McHorVer20Width9Or17_sse2.yloop_width_17 0000000180013571     mc_luma.obj
 0001:000126ed       McHorVer20Width5_sse2.yloop_width_5 00000001800136ed     mc_luma.obj
 0001:00012809       McHorVer22HorFirst_sse2.yloop_width_9 0000000180013809     mc_luma.obj
 0001:000128c6       McHorVer22HorFirst_sse2.width_17 00000001800138c6     mc_luma.obj
 0001:000128c6       McHorVer22HorFirst_sse2.yloop_width_17 00000001800138c6     mc_luma.obj
 0001:00012a28       McHorVer22Width8VerLastAlign_sse2.width_loop 0000000180013a28     mc_luma.obj
 0001:00012ab8       McHorVer22Width8VerLastAlign_sse2.start 0000000180013ab8     mc_luma.obj
 0001:00012d6d       McHorVer22Width8VerLastAlign_sse2.x_loop_dec 0000000180013d6d     mc_luma.obj
 0001:00012d8c       McHorVer22Width8VerLastAlign_sse2.exit 0000000180013d8c     mc_luma.obj
 0001:00012de8       McHorVer22Width8VerLastUnAlign_sse2.width_loop 0000000180013de8     mc_luma.obj
 0001:00012e78       McHorVer22Width8VerLastUnAlign_sse2.start 0000000180013e78     mc_luma.obj
 0001:0001312d       McHorVer22Width8VerLastUnAlign_sse2.x_loop_dec 000000018001412d     mc_luma.obj
 0001:0001314c       McHorVer22Width8VerLastUnAlign_sse2.exit 000000018001414c     mc_luma.obj
 0001:0001319f       McHorVer22Width5HorFirst_sse2.yloop_width_5 000000018001419f     mc_luma.obj
 0001:00013298       McHorVer22Width4VerLastAlign_sse2.width_loop 0000000180014298     mc_luma.obj
 0001:00013328       McHorVer22Width4VerLastAlign_sse2.start 0000000180014328     mc_luma.obj
 0001:000135dd       McHorVer22Width4VerLastAlign_sse2.x_loop_dec 00000001800145dd     mc_luma.obj
 0001:000135fc       McHorVer22Width4VerLastAlign_sse2.exit 00000001800145fc     mc_luma.obj
 0001:00013658       McHorVer22Width4VerLastUnAlign_sse2.width_loop 0000000180014658     mc_luma.obj
 0001:000136e8       McHorVer22Width4VerLastUnAlign_sse2.start 00000001800146e8     mc_luma.obj
 0001:0001399d       McHorVer22Width4VerLastUnAlign_sse2.x_loop_dec 000000018001499d     mc_luma.obj
 0001:000139bc       McHorVer22Width4VerLastUnAlign_sse2.exit 00000001800149bc     mc_luma.obj
 0001:00013b6b       McHorVer02_ssse3.width4_height_le5_done 0000000180014b6b     mc_luma.obj
 0001:00013b7b       McHorVer02_ssse3.width4_height_ge8 0000000180014b7b     mc_luma.obj
 0001:00013c86       McHorVer02_ssse3.width4_height_ge8_done 0000000180014c86     mc_luma.obj
 0001:00013c96       McHorVer02_ssse3.width8or16 0000000180014c96     mc_luma.obj
 0001:00013c9c       McHorVer02_ssse3.xloop     0000000180014c9c     mc_luma.obj
 0001:00013d1e       McHorVer02_ssse3.yloop_begin_even 0000000180014d1e     mc_luma.obj
 0001:00013d44       McHorVer02_ssse3.yloop     0000000180014d44     mc_luma.obj
 0001:00013fc8       McHorVer02_ssse3.yloop_exit 0000000180014fc8     mc_luma.obj
 0001:00013fe2       McHorVer02_ssse3.width8or16_done 0000000180014fe2     mc_luma.obj
 0001:00014047       McHorVer20_ssse3.width4_yloop 0000000180015047     mc_luma.obj
 0001:000140cf       McHorVer20_ssse3.width8_yloop 00000001800150cf     mc_luma.obj
 0001:00014179       McHorVer20_ssse3.width16_yloop 0000000180015179     mc_luma.obj
 0001:00014269       McHorVer20Width5Or9Or17_ssse3.width5_yloop 0000000180015269     mc_luma.obj
 0001:000142dd       McHorVer20Width5Or9Or17_ssse3.width9_yloop 00000001800152dd     mc_luma.obj
 0001:000143cd       McHorVer20Width5Or9Or17_ssse3.width17_yloop 00000001800153cd     mc_luma.obj
 0001:00014581       McHorVer20Width4U8ToS16_ssse3.yloop 0000000180015581     mc_luma.obj
 0001:000147ce       McHorVer02Width4S16ToU8_ssse3.done 00000001800157ce     mc_luma.obj
 0001:00014819       McHorVer20Width8U8ToS16_ssse3.yloop 0000000180015819     mc_luma.obj
 0001:000148d8       McHorVer20Width8U8ToS16_ssse3.done 00000001800158d8     mc_luma.obj
 0001:00014c6f       McHorVer02Width5S16ToU8_ssse3.done 0000000180015c6f     mc_luma.obj
 0001:00014cd6       McHorVer20Width9Or17U8ToS16_ssse3.width9_yloop 0000000180015cd6     mc_luma.obj
 0001:00014d93       McHorVer20Width9Or17U8ToS16_ssse3.width17_yloop 0000000180015d93     mc_luma.obj
 0001:00014f59       McHorVer02WidthGe8S16ToU8_ssse3.height_loop_unalign 0000000180015f59     mc_luma.obj
 0001:00015056       McHorVer02WidthGe8S16ToU8_ssse3.height_loop_unalign_exit 0000000180016056     mc_luma.obj
 0001:000150a5       McHorVer02WidthGe8S16ToU8_ssse3.filter5_unalign 00000001800160a5     mc_luma.obj
 0001:00015169       McHorVer02WidthGe8S16ToU8_ssse3.unalign_done 0000000180016169     mc_luma.obj
 0001:00015174       McHorVer02WidthGe8S16ToU8_ssse3.width_loop 0000000180016174     mc_luma.obj
 0001:00015193       McHorVer02WidthGe8S16ToU8_ssse3.height_loop 0000000180016193     mc_luma.obj
 0001:00015443       McHorVer02WidthGe8S16ToU8_ssse3.x_loop_dec 0000000180016443     mc_luma.obj
 0001:0001545d       McHorVer02WidthGe8S16ToU8_ssse3.store_xmm4_exit 000000018001645d     mc_luma.obj
 0001:00015468       McHorVer02WidthGe8S16ToU8_ssse3.done 0000000180016468     mc_luma.obj
 0001:000155fa       McHorVer02_avx2.width4_height_ge8 00000001800165fa     mc_luma.obj
 0001:000156d6       McHorVer02_avx2.width4_done 00000001800166d6     mc_luma.obj
 0001:000156e9       McHorVer02_avx2.width8     00000001800166e9     mc_luma.obj
 0001:00015725       McHorVer02_avx2.width8_yloop 0000000180016725     mc_luma.obj
 0001:00015831       McHorVer02_avx2.width8_height_ge8 0000000180016831     mc_luma.obj
 0001:00015926       McHorVer02_avx2.width8_done 0000000180016926     mc_luma.obj
 0001:00015939       McHorVer02_avx2.width16    0000000180016939     mc_luma.obj
 0001:00015a0b       McHorVer02_avx2.width16_yloop_begin_even 0000000180016a0b     mc_luma.obj
 0001:00015a70       McHorVer02_avx2.width16_yloop 0000000180016a70     mc_luma.obj
 0001:00015d8e       McHorVer20_avx2.width4_yloop 0000000180016d8e     mc_luma.obj
 0001:00015e3f       McHorVer20_avx2.width8     0000000180016e3f     mc_luma.obj
 0001:00015e43       McHorVer20_avx2.width8_yloop 0000000180016e43     mc_luma.obj
 0001:00015f0f       McHorVer20_avx2.width16_yloop 0000000180016f0f     mc_luma.obj
 0001:00016020       McHorVer20Width5Or9Or17_avx2.width5_yloop 0000000180017020     mc_luma.obj
 0001:000160b1       McHorVer20Width5Or9Or17_avx2.width9 00000001800170b1     mc_luma.obj
 0001:000160b5       McHorVer20Width5Or9Or17_avx2.width9_yloop 00000001800170b5     mc_luma.obj
 0001:000161db       McHorVer20Width5Or9Or17_avx2.width17 00000001800171db     mc_luma.obj
 0001:000161df       McHorVer20Width5Or9Or17_avx2.width17_yloop 00000001800171df     mc_luma.obj
 0001:000163d8       McHorVer20Width4U8ToS16_avx2.yloop 00000001800173d8     mc_luma.obj
 0001:0001659c       McHorVer02Width4S16ToU8_avx2.done 000000018001759c     mc_luma.obj
 0001:000165db       McHorVer20Width8U8ToS16_avx2.yloop 00000001800175db     mc_luma.obj
 0001:0001665b       McHorVer20Width8U8ToS16_avx2.done 000000018001765b     mc_luma.obj
 0001:0001689a       McHorVer02Width5S16ToU8_avx2.done 000000018001789a     mc_luma.obj
 0001:000168e3       McHorVer02Width8S16ToU8_avx2.yloop 00000001800178e3     mc_luma.obj
 0001:00016a48       McHorVer02Width8S16ToU8_avx2.done 0000000180017a48     mc_luma.obj
 0001:00016a94       McHorVer20Width16U8ToS16_avx2.yloop 0000000180017a94     mc_luma.obj
 0001:00016b5c       McHorVer20Width16U8ToS16_avx2.done 0000000180017b5c     mc_luma.obj
 0001:00016ba4       McHorVer02Width9S16ToU8_avx2.height_loop 0000000180017ba4     mc_luma.obj
 0001:00016e86       McHorVer02Width9S16ToU8_avx2.done 0000000180017e86     mc_luma.obj
 0001:00016ede       McHorVer20Width17U8ToS16_avx2.yloop 0000000180017ede     mc_luma.obj
 0001:0001719f       McHorVer02Width16Or17S16ToU8_avx2.height_loop_unalign 000000018001819f     mc_luma.obj
 0001:0001728c       McHorVer02Width16Or17S16ToU8_avx2.height_loop_unalign_exit 000000018001828c     mc_luma.obj
 0001:000172d5       McHorVer02Width16Or17S16ToU8_avx2.align_begin 00000001800182d5     mc_luma.obj
 0001:000172f1       McHorVer02Width16Or17S16ToU8_avx2.height_loop 00000001800182f1     mc_luma.obj
 0001:00017574       McHorVer02Width16Or17S16ToU8_avx2.done 0000000180018574     mc_luma.obj
 0001:000192bd       not_dc                     000000018001a2bd     satd_sad.obj
 0001:00019346       not_dc_h                   000000018001a346     satd_sad.obj
 0001:000195a1       WelsIntra16x16Combined3Satd_sse41.loop16x16_get_satd 000000018001a5a1     satd_sad.obj
 0001:000195a1       WelsIntra16x16Combined3Satd_sse41.loopStart1 000000018001a5a1     satd_sad.obj
 0001:00019776       WelsIntra16x16Combined3Satd_sse41.loop16x16_get_satd_end 000000018001a776     satd_sad.obj
 0001:0001980a       not_dc_16x16               000000018001a80a     satd_sad.obj
 0001:0001981f       not_dc_h_16x16             000000018001a81f     satd_sad.obj
 0001:00019827       return_satd_intra_16x16_x3 000000018001a827     satd_sad.obj
 0001:00019867       loop_chroma_satdx3         000000018001a867     satd_sad.obj
 0001:0001a2a9       not_dc_8x8                 000000018001b2a9     satd_sad.obj
 0001:0001a2be       not_dc_h_8x8               000000018001b2be     satd_sad.obj
 0001:0001a2c6       return_satd_intra_8x8_x3   000000018001b2c6     satd_sad.obj
